 sauerbraten

 Timestamp is 4ce7225c (Fri Nov 19 20:20:28 2010)

 Preferred load address is 00400000

 Start         Length     Name                   Class
 0001:00000000 00047cf3H .text                   CODE
 0001:00047cf3 00001587H .text$x                 CODE
 0001:0004927a 00002de4H .text$yc                CODE
 0001:0004c05e 00000882H .text$yd                CODE
 0002:00000000 000004d0H .idata$5                DATA
 0002:000004d0 00000004H .CRT$XCA                DATA
 0002:000004d4 00000004H .CRT$XCAA               DATA
 0002:000004d8 00000588H .CRT$XCU                DATA
 0002:00000a60 00000004H .CRT$XCZ                DATA
 0002:00000a64 00000004H .CRT$XIA                DATA
 0002:00000a68 00000004H .CRT$XIAA               DATA
 0002:00000a6c 00000004H .CRT$XIC                DATA
 0002:00000a70 00000004H .CRT$XIZ                DATA
 0002:00000a80 000061a0H .rdata                  DATA
 0002:00006c20 00000041H .rdata$debug            DATA
 0002:00006c64 00001af0H .rdata$r                DATA
 0002:00008754 00000004H .rtc$IAA                DATA
 0002:00008758 00000004H .rtc$IZZ                DATA
 0002:0000875c 00000004H .rtc$TAA                DATA
 0002:00008760 00000004H .rtc$TZZ                DATA
 0002:00008768 0000220cH .xdata$x                DATA
 0002:0000a974 000000f0H .idata$2                DATA
 0002:0000aa64 00000014H .idata$3                DATA
 0002:0000aa78 000004d0H .idata$4                DATA
 0002:0000af48 000010acH .idata$6                DATA
 0002:0000bff4 00000000H .edata                  DATA
 0003:00000000 00042ad0H .data                   DATA
 0003:00042ad0 0015b784H .bss                    DATA
 0004:00000000 00000010H .rsrc$01                DATA
 0004:00000010 00000000H .rsrc$02                DATA

  Address         Publics by Value              Rva+Base       Lib:Object

 0000:00000000       ___safe_se_handler_table   00000000     <absolute>
 0000:00000000       ___safe_se_handler_count   00000000     <absolute>
 0000:00000000       __except_list              00000000     <absolute>
 0000:00009876       __ldused                   00009876     <absolute>
 0000:00009876       __fltused                  00009876     <absolute>
 0000:00000000       ___ImageBase               00400000     <linker-defined>
 0001:00000000       ?formatstring@@YAXPADPBD0@Z 00401000 f i cubeloader.obj
 0001:0000001f       ??Rs_sprintf_f@@QAAXPBDZZ  0040101f f i cubeloader.obj
 0001:00000038       ??_H@YGXPAXIHP6EPAX0@Z@Z   00401038 f i cubeloader.obj
 0001:00000051       ?create_ent@cubeloader@@QAEXAAUc_persistent_entity@1@@Z 00401051 f i cubeloader.obj
 0001:00000178       ?getcube@cubeloader@@QAEAAUcube@@HHH@Z 00401178 f i cubeloader.obj
 0001:000001bb       ?neighbours@cubeloader@@QAEHAAUc_sqr@1@@Z 004011bb f i cubeloader.obj
 0001:000001f2       ?preprocess_cubes@cubeloader@@QAEXXZ 004011f2 f i cubeloader.obj
 0001:00000271       ?getfloorceil@cubeloader@@QAEHAAUc_sqr@1@AAH1@Z 00401271 f i cubeloader.obj
 0001:000002d2       ?boundingbox@cubeloader@@QAEXXZ 004012d2 f i cubeloader.obj
 0001:0000037a       ?hf@cubeloader@@QAEXHHHHHH@Z 0040137a f i cubeloader.obj
 0001:000003ff       ?cornersolid@cubeloader@@QAE_NHPAUc_sqr@1@@Z 004013ff f i cubeloader.obj
 0001:0000041d       ?create_cubes@cubeloader@@QAEXXZ 0040141d f i cubeloader.obj
 0001:0000079a       ?load_cube_world@cubeloader@@QAEXPAD@Z 0040179a f i cubeloader.obj
 0001:00000bd2       ?importcube@@YAXPAD@Z      00401bd2 f   cubeloader.obj
 0001:00000bfe       ??8vec@@QBE_NABU0@@Z       00401bfe f i lightmap.obj
 0001:00000c30       ?iszero@vec@@QBE_NXZ       00401c30 f i lightmap.obj
 0001:00000c58       ?squaredlen@vec@@QBEMXZ    00401c58 f i lightmap.obj
 0001:00000c7e       ?dot@vec@@QBEMABU1@@Z      00401c7e f i lightmap.obj
 0001:00000c9e       ?mul@vec@@QAEAAU1@M@Z      00401c9e f i lightmap.obj
 0001:00000cbd       ?div@vec@@QAEAAU1@M@Z      00401cbd f i lightmap.obj
 0001:00000cdc       ?normalize@vec@@QAEAAU1@XZ 00401cdc f i lightmap.obj
 0001:00000cf9       ?cross@vec@@QAEAAU1@ABU1@0@Z 00401cf9 f i lightmap.obj
 0001:00000d28       ?orthonormalize@matrix@@QAEXXZ 00401d28 f i lightmap.obj
 0001:00000e17       ??0plane@@QAE@XZ           00401e17 f i lightmap.obj
 0001:00000e17       ??0bvec@@QAE@XZ            00401e17 f i normal.obj
 0001:00000e1a       ??0ivec@@QAE@HHHHH@Z       00401e1a f i lightmap.obj
 0001:00000e50       ??0bvec@@QAE@ABUvec@@@Z    00401e50 f i lightmap.obj
 0001:00000e94       ?tovec@vvec@@QBE?AUvec@@XZ 00401e94 f i lightmap.obj
 0001:00000ef2       ?tovec@vvec@@QBE?AUvec@@HHH@Z 00401ef2 f i lightmap.obj
 0001:00000f39       ??0PackNode@@QAE@GGGG@Z    00401f39 f i lightmap.obj
 0001:00000f72       ?clear@PackNode@@QAEXXZ    00401f72 f i lightmap.obj
 0001:00000fa9       ??1PackNode@@QAE@XZ        00401fa9 f i lightmap.obj
 0001:00000fae       ??0LightMap@@QAE@XZ        00401fae f i lightmap.obj
 0001:00001031       ?boundbox@model@@QAEXHAAUvec@@0@Z 00402031 f i lightmap.obj
 0001:0000106b       ?above@model@@QAEMH@Z      0040206b f i lightmap.obj
 0001:00001091       ?var_lightprecision@@YAXXZ 00402091 f   lightmap.obj
 0001:0000109c       ?var_lighterror@@YAXXZ     0040209c f   lightmap.obj
 0001:000010a7       ?var_bumperror@@YAXXZ      004020a7 f   lightmap.obj
 0001:000010b2       ?var_lightlod@@YAXXZ       004020b2 f   lightmap.obj
 0001:000010bd       ?var_worldlod@@YAXXZ       004020bd f   lightmap.obj
 0001:000010c8       ?var_ambient@@YAXXZ        004020c8 f   lightmap.obj
 0001:000010d3       ?check_calclight_canceled@@YAXXZ 004020d3 f   lightmap.obj
 0001:00001110       ?show_calclight_progress@@YAXXZ 00402110 f   lightmap.obj
 0001:000011fa       ?insert@PackNode@@QAE_NAAG0GG@Z 004021fa f   lightmap.obj
 0001:000013e7       ?insert@LightMap@@QAE_NAAG0PAEGG@Z 004023e7 f   lightmap.obj
 0001:0000146f       ?insert_unlit@@YAXH@Z      0040246f f   lightmap.obj
 0001:0000151b       ?insert_lightmap@@YAXHAAG00@Z 0040251b f   lightmap.obj
 0001:00001767       ?pack_lightmap@@YAXHAAUsurfaceinfo@@@Z 00402767 f   lightmap.obj
 0001:0000182e       ?generate_lumel@@YAXMABU?$vector@PBUentity@@@@ABUvec@@1AAU2@HH@Z 0040282e f   lightmap.obj
 0001:00001c0e       ?lumel_sample@@YA_NABUvec@@HH@Z 00402c0e f   lightmap.obj
 0001:00001dd9       ?generate_lightmap@@YA_NMIIABUvec@@PBUlerpvert@@H00@Z 00402dd9 f   lightmap.obj
 0001:00002b63       ?clear_lmids@@YAXPAUcube@@@Z 00403b63 f   lightmap.obj
 0001:00002ba2       ??0lightcacheentry@@QAE@XZ 00403ba2 f i lightmap.obj
 0001:00002bd0       ??1lightcacheentry@@QAE@XZ 00403bd0 f i lightmap.obj
 0001:00002bf6       ?var_lightcachesize@@YAXXZ 00403bf6 f   lightmap.obj
 0001:00002bfe       ?clearlightcache@@YAXH@Z   00403bfe f   lightmap.obj
 0001:00002d65       ?checklightcache@@YAABU?$vector@H@@HH@Z 00403d65 f   lightmap.obj
 0001:00002fe7       ?find_lights@@YA_NHHHHQAUplane@@H@Z 00403fe7 f   lightmap.obj
 0001:000030cc       ?setup_surface@@YA_NQAUplane@@PBUvec@@11QAE@Z 004040cc f   lightmap.obj
 0001:00003d64       ?setup_surfaces@@YAXAAUcube@@HHHH_N@Z 00404d64 f   lightmap.obj
 0001:000042a7       ?generate_lightmaps@@YAXPAUcube@@HHHH@Z 004052a7 f   lightmap.obj
 0001:00004369       ?resetlightmaps@@YAXXZ     00405369 f   lightmap.obj
 0001:000043c2       ?calclight@@YAXPAH@Z       004053c2 f   lightmap.obj
 0001:000045f7       ?patchlight@@YAXXZ         004055f7 f   lightmap.obj
 0001:0000477c       ?var_fullbright@@YAXXZ     0040577c f   lightmap.obj
 0001:000047a2       ?alloctexids@@YAXXZ        004057a2 f   lightmap.obj
 0001:00004841       ?clearlights@@YAXXZ        00405841 f   lightmap.obj
 0001:00004936       ?lightent@@YAXAAUextentity@@M@Z 00405936 f   lightmap.obj
 0001:000049a9       ?convert_lightmap@@YAXAAULightMap@@0@Z 004059a9 f   lightmap.obj
 0001:00004a6c       ?var_convertlms@@YAXXZ     00405a6c f   lightmap.obj
 0001:00004bb4       ?initlights@@YAXXZ         00405bb4 f   lightmap.obj
 0001:00004db4       ?lightreaching@@YAXABUvec@@AAU1@1PAUextentity@@M@Z 00405db4 f   lightmap.obj
 0001:0000514b       ?brightestlight@@YAPAUentity@@ABUvec@@0@Z 0040614b f   lightmap.obj
 0001:00005302       ?brightencube@@YAXAAUcube@@@Z 00406302 f   lightmap.obj
 0001:00005334       ?newsurfaces@@YAXAAUcube@@@Z 00406334 f   lightmap.obj
 0001:00005374       ?freesurfaces@@YAXAAUcube@@@Z 00406374 f   lightmap.obj
 0001:00005399       ?dumplms@@YAXXZ            00406399 f   lightmap.obj
 0001:000054a6       ??0?$vector@H@@QAE@XZ      004064a6 f i lightmap.obj
 0001:000054a6       ??0?$vector@PAUoctaentities@@@@QAE@XZ 004064a6 f i octarender.obj
 0001:000054a6       ??0?$vector@PAD@@QAE@XZ    004064a6 f i command.obj
 0001:000054be       ?add@?$vector@PAUmesh@vertmodel@@@@QAEAAPAUmesh@vertmodel@@ABQAU23@@Z 004064be f i rendermodel.obj
 0001:000054be       ?add@?$vector@H@@QAEAAHABH@Z 004064be f i lightmap.obj
 0001:000054be       ?add@?$vector@PAUrpgobj@rpgclient@@@@QAEAAPAUrpgobj@rpgclient@@ABQAU23@@Z 004064be f i rpg.obj
 0001:000054be       ?add@?$vector@PAD@@QAEAAPADABQAD@Z 004064be f i command.obj
 0001:000054be       ?add@?$vector@PAUphysent@@@@QAEAAPAUphysent@@ABQAU2@@Z 004064be f i physics.obj
 0001:000054be       ?add@?$vector@PAUpart@vertmodel@@@@QAEAAPAUpart@vertmodel@@ABQAU23@@Z 004064be f i rendermodel.obj
 0001:000054be       ?add@?$vector@PAUclientinfo@fpsserver@@@@QAEAAPAUclientinfo@fpsserver@@ABQAU23@@Z 004064be f i fps.obj
 0001:000054be       ?add@?$vector@PBUentity@@@@QAEAAPBUentity@@ABQBU2@@Z 004064be f i lightmap.obj
 0001:000054be       ?add@?$vector@PAUoctaentities@@@@QAEAAPAUoctaentities@@ABQAU2@@Z 004064be f i octarender.obj
 0001:000054be       ?add@?$vector@PAUmonster@monsterset@fpsclient@@@@QAEAAPAUmonster@monsterset@fpsclient@@ABQAU234@@Z 004064be f i fps.obj
 0001:000054be       ?add@?$vector@PAUmaterialsurface@@@@QAEAAPAUmaterialsurface@@ABQAU2@@Z 004064be f i water.obj
 0001:000054be       ?add@?$vector@PAUextentity@@@@QAEAAPAUextentity@@ABQAU2@@Z 004064be f i cubeloader.obj
 0001:000054be       ?add@?$vector@PAUfpsent@@@@QAEAAPAUfpsent@@ABQAU2@@Z 004064be f i fps.obj
 0001:000054be       ?add@?$vector@PAUvtxarray@@@@QAEAAPAUvtxarray@@ABQAU2@@Z 004064be f i octarender.obj
 0001:000054f2       ?add@?$vector@ULightMap@@@@QAEAAULightMap@@XZ 004064f2 f i lightmap.obj
 0001:00005555       ?setsize@?$vector@ULightMap@@@@QAEXH@Z 00406555 f i lightmap.obj
 0001:0000559b       ?clear@?$hashtable@Ucompresskey@@Ucompressval@@@@QAEXXZ 0040659b f i lightmap.obj
 0001:000055ea       ?vrealloc@?$vector@ULightMap@@@@QAEXXZ 004065ea f i lightmap.obj
 0001:0000563d       ?find@?$hashtable@Ucompresskey@@Ucompressval@@@@QAEPAUchain@1@ABUcompresskey@@_N@Z 0040663d f i lightmap.obj
 0001:000056e0       ?insert@?$hashtable@Ucompresskey@@Ucompressval@@@@QAEPAUchain@1@ABUcompresskey@@I@Z 004066e0 f i lightmap.obj
 0001:00005767       ?ceil@@YAMM@Z              00406767 f i lightmap.obj
 0001:00005782       _sqrtf                     00406782 f i lightmap.obj
 0001:0000579c       _cosf                      0040679c f i normal.obj
 0001:000057b6       ??9vec@@QBE_NABU0@@Z       004067b6 f i normal.obj
 0001:000057e8       ??8ivec@@QBE_NABU0@@Z      004067e8 f i normal.obj
 0001:00005805       ??0nvec@@QAE@ABUvec@@@Z    00406805 f i normal.obj
 0001:0000584a       ?tovec@nvec@@QBE?AUvec@@XZ 0040684a f i normal.obj
 0001:00005891       ??0nkey@@QAE@ABUivec@@ABUvvec@@@Z 00406891 f i normal.obj
 0001:000058d2       ?var_lerpangle@@YAXXZ      004068d2 f   normal.obj
 0001:000058dd       ?addnormal@@YAXABUivec@@HABUvvec@@ABUvec@@@Z 004068dd f   normal.obj
 0001:00005a35       ?findnormal@@YA_NABUivec@@HABUvvec@@AAUvec@@H@Z 00406a35 f   normal.obj
 0001:00005b1c       ?show_calcnormals_progress@@YAXXZ 00406b1c f   normal.obj
 0001:00005b5c       ?addnormals@@YAXAAUcube@@ABUivec@@H@Z 00406b5c f   normal.obj
 0001:00005f85       ?calcnormals@@YAXXZ        00406f85 f   normal.obj
 0001:00006009       ?calclerpverts@@YAXABUvec@@PBU1@100PAUlerpvert@@AAH@Z 00407009 f   normal.obj
 0001:00006148       ?setlerpstep@@YAXMAAUlerpbounds@@@Z 00407148 f   normal.obj
 0001:0000626a       ?initlerpbounds@@YAXPBUlerpvert@@HAAUlerpbounds@@1@Z 0040726a f   normal.obj
 0001:00006343       ?updatelerpbounds@@YAXMPBUlerpvert@@HAAUlerpbounds@@1@Z 00407343 f   normal.obj
 0001:000063d9       ?lerpnormal@@YAXMPBUlerpvert@@HAAUlerpbounds@@1AAUvec@@2@Z 004073d9 f   normal.obj
 0001:00006542       ?newnormals@@YAXAAUcube@@@Z 00407542 f   normal.obj
 0001:000065d0       ?freenormals@@YAXAAUcube@@@Z 004075d0 f   normal.obj
 0001:000065ed       ?add@?$vector@Unormal@@@@QAEAAUnormal@@ABU2@@Z 004075ed f i normal.obj
 0001:00006624       ?clear@?$hashtable@Unkey@@Unval@@@@QAEXXZ 00407624 f i normal.obj
 0001:000066a1       ??1chain@?$hashtable@Unkey@@Unval@@@@QAE@XZ 004076a1 f i normal.obj
 0001:000066c5       ?vrealloc@?$vector@Unormal@@@@QAEXXZ 004076c5 f i normal.obj
 0001:0000670b       ?find@?$hashtable@Unkey@@Unval@@@@QAEPAUchain@1@ABUnkey@@_N@Z 0040770b f i normal.obj
 0001:00006756       ?insert@?$hashtable@Unkey@@Unval@@@@QAEPAUchain@1@ABUnkey@@I@Z 00407756 f i normal.obj
 0001:00006803       ??0chain@?$hashtable@Unkey@@Unval@@@@QAE@XZ 00407803 f i normal.obj
 0001:0000683c       ??8plane@@QBE_NABU0@@Z     0040783c f i octa.obj
 0001:0000687d       ?toplane@plane@@QAE_NABUvec@@00@Z 0040787d f i octa.obj
 0001:00006922       ??0ivec@@QAE@HHHH@Z        00407922 f i octa.obj
 0001:00006951       ?mul@ivec@@QAEAAU1@H@Z     00407951 f i octa.obj
 0001:00006973       ?cross@ivec@@QAEAAU1@ABU1@0@Z 00407973 f i octa.obj
 0001:000069ac       ?newcubeext@@YAPAUcubeext@@AAUcube@@@Z 004079ac f   octa.obj
 0001:000069fe       ?newcubes@@YAPAUcube@@I@Z  004079fe f   octa.obj
 0001:00006a45       ?familysize@@YAHAAUcube@@@Z 00407a45 f   octa.obj
 0001:00006a73       ?freeocta@@YAXPAUcube@@@Z  00407a73 f   octa.obj
 0001:00006a9b       ?discardchildren@@YAXAAUcube@@@Z 00407a9b f   octa.obj
 0001:00006b08       ?getcubevector@@YAXAAUcube@@HHHHAAUivec@@@Z 00407b08 f   octa.obj
 0001:00006b74       ?setcubevector@@YAXAAUcube@@HHHHAAUivec@@@Z 00407b74 f   octa.obj
 0001:00006c10       ?optiface@@YAXPAEAAUcube@@@Z 00407c10 f   octa.obj
 0001:00006c3b       ?printcube@@YAXXZ          00407c3b f   octa.obj
 0001:00006ca6       ?isvalidcube@@YA_NAAUcube@@@Z 00407ca6 f   octa.obj
 0001:00006d1b       ?validatec@@YAXPAUcube@@H@Z 00407d1b f   octa.obj
 0001:00006db0       ?lookupcube@@YAAAUcube@@HHHH@Z 00407db0 f   octa.obj
 0001:00006edf       ?neighbourcube@@YAAAUcube@@HHHHHH@Z 00407edf f   octa.obj
 0001:00006f18       ?octantrectangleoverlap@@YAEABUivec@@H00@Z 00407f18 f   octa.obj
 0001:00006f78       ?getmippedtexture@@YAHAAUcube@@H@Z 00407f78 f   octa.obj
 0001:0000708e       ?forcemip@@YAXAAUcube@@@Z  0040808e f   octa.obj
 0001:00007169       ?midedge@@YAHABUivec@@0HHAA_N@Z 00408169 f   octa.obj
 0001:00007293       ?subdividecube@@YA_NAAUcube@@_N1@Z 00408293 f   octa.obj
 0001:00007680       ?visibleorient@@YAHAAUcube@@H@Z 00408680 f   octa.obj
 0001:0000770a       ?remip@@YA_NAAUcube@@HHHH@Z 0040870a f   octa.obj
 0001:000079c9       ?remipworld@@YAXXZ         004089c9 f   octa.obj
 0001:00007a5b       ?remip_@@YAXXZ             00408a5b f   octa.obj
 0001:00007a69       ?edgelookup@@YAAAEAAUcube@@ABUivec@@H@Z 00408a69 f   octa.obj
 0001:00007a94       ?edgeval@@YAHAAUcube@@ABUivec@@HH@Z 00408a94 f   octa.obj
 0001:00007ab0       ?genvertp@@YAXAAUcube@@AAUivec@@11AAUplane@@@Z 00408ab0 f   octa.obj
 0001:00007b94       ?threeplaneintersect@@YA_NAAUplane@@00AAUvec@@@Z 00408b94 f   octa.obj
 0001:00007cae       ?genedgespanvert@@YAXAAUivec@@AAUcube@@AAUvec@@@Z 00408cae f   octa.obj
 0001:00007ec2       ?edgespan2vectorcube@@YAXAAUcube@@@Z 00408ec2 f   octa.obj
 0001:0000803e       ?genvectorvert@@YAXABUivec@@AAUcube@@AAU1@@Z 0040903e f   octa.obj
 0001:00008075       ?touchingface@@YA_NAAUcube@@H@Z 00409075 f   octa.obj
 0001:0000809d       ?faceconvexity@@YAHAAUcube@@H@Z 0040909d f   octa.obj
 0001:00008153       ?faceverts@@YAHAAUcube@@HH@Z 00409153 f   octa.obj
 0001:000081c9       ?faceedges@@YAIAAUcube@@H@Z 004091c9 f   octa.obj
 0001:000081f2       ?genfacevecs@@YAXAAUcube@@HABUivec@@H_NPAUfacevec@@@Z 004091f2 f   octa.obj
 0001:000082e9       ?clipfacevecy@@YAHABUfacevec@@0HHHAAU1@@Z 004092e9 f   octa.obj
 0001:00008337       ?clipfacevecx@@YAHABUfacevec@@0HHHAAU1@@Z 00409337 f   octa.obj
 0001:00008385       ?clipfacevec@@YAHABUfacevec@@0HHHPAU1@@Z 00409385 f   octa.obj
 0001:00008455       ?insideface@@YA_NPBUfacevec@@H0@Z 00409455 f   octa.obj
 0001:000084ea       ?clipfacevecs@@YAHPBUfacevec@@HHHPAU1@@Z 004094ea f   octa.obj
 0001:000085ca       ?occludesface@@YA_NAAUcube@@HABUivec@@H1HEPBUfacevec@@@Z 004095ca f   octa.obj
 0001:00008734       ?visibleface@@YA_NAAUcube@@HHHHHE_N@Z 00409734 f   octa.obj
 0001:0000891d       ?calcvert@@YAXAAUcube@@HHHHAAUvvec@@H_N@Z 0040991d f   octa.obj
 0001:00008a1c       ?calcverts@@YAXAAUcube@@HHHHPAUvvec@@PA_NPAH_N@Z 00409a1c f   octa.obj
 0001:00008aa1       ?genclipplane@@YAHAAUcube@@HPAUvec@@PAUplane@@@Z 00409aa1 f   octa.obj
 0001:00008b82       ?genclipplanes@@YAXAAUcube@@HHHHAAUclipplanes@@@Z 00409b82 f   octa.obj
 0001:00008f3e       ?mergefaces@@YAHHPAUcubeface@@H@Z 00409f3e f   octa.obj
 0001:00008f7b       ?mincubeface@@YAXAAUcube@@HABUivec@@HABUmergeinfo@@AAU3@@Z 00409f7b f   octa.obj
 0001:000092b3       ?mincubeface@@YA_NAAUcube@@HABUivec@@HAAUmergeinfo@@@Z 0040a2b3 f   octa.obj
 0001:0000934f       ?gencubeface@@YA_NAAUcube@@HABUivec@@HAAU2@AAHAAUcubeface@@@Z 0040a34f f   octa.obj
 0001:000096af       ?addmergeinfo@@YAXAAUcube@@HAAUcubeface@@@Z 0040a6af f   octa.obj
 0001:000097bf       ?freemergeinfo@@YAXAAUcube@@@Z 0040a7bf f   octa.obj
 0001:000097e6       ?genmergeinfo@@YAXPAUcube@@ABUivec@@H@Z 0040a7e6 f   octa.obj
 0001:00009aba       ?genmergedverts@@YAXAAUcube@@HABUivec@@HABUmergeinfo@@PAUvvec@@PAUplane@@@Z 0040aaba f   octa.obj
 0001:00009d06       ?calcmergedsize@@YAHHABUivec@@HABUmergeinfo@@PBUvvec@@@Z 0040ad06 f   octa.obj
 0001:00009e09       ?invalidatemerges@@YAXAAUcube@@@Z 0040ae09 f   octa.obj
 0001:00009e7b       ?add@?$vector@Ucubeface@@@@QAEAAUcubeface@@ABU2@@Z 0040ae7b f i octa.obj
 0001:00009eb0       ??1chain@?$hashtable@Ucfkey@@Ucfval@@@@QAE@XZ 0040aeb0 f i octa.obj
 0001:00009ed4       ??1cfval@@QAE@XZ           0040aed4 f i octa.obj
 0001:00009ef8       ??1?$vector@Uaniminfo@vertmodel@@@@QAE@XZ 0040aef8 f i rendermodel.obj
 0001:00009ef8       ??1?$vector@PAUvtxarray@@@@QAE@XZ 0040aef8 f i octarender.obj
 0001:00009ef8       ??1?$vector@D@@QAE@XZ      0040aef8 f i octarender.obj
 0001:00009ef8       ??1?$vector@G@@QAE@XZ      0040aef8 f i octarender.obj
 0001:00009ef8       ??1?$vector@PAUclientinfo@fpsserver@@@@QAE@XZ 0040aef8 f i fps.obj
 0001:00009ef8       ??1?$vector@Ucubeface@@@@QAE@XZ 0040aef8 f i octa.obj
 0001:00009f0c       ?vrealloc@?$vector@Userver_entity@fpsserver@@@@QAEXXZ 0040af0c f i fps.obj
 0001:00009f0c       ?vrealloc@?$vector@Uaniminfo@vertmodel@@@@QAEXXZ 0040af0c f i rendermodel.obj
 0001:00009f0c       ?vrealloc@?$vector@Ucubeface@@@@QAEXXZ 0040af0c f i octa.obj
 0001:00009f0c       ?vrealloc@?$vector@Uvotecount@fpsserver@@@@QAEXXZ 0040af0c f i fps.obj
 0001:00009f52       ?find@?$hashtable@Ucfkey@@Ucfval@@@@QAEPAUchain@1@ABUcfkey@@_N@Z 0040af52 f i octa.obj
 0001:00009fe1       ?insert@?$hashtable@Ucfkey@@Ucfval@@@@QAEPAUchain@1@ABUcfkey@@I@Z 0040afe1 f i octa.obj
 0001:0000a07e       ??0chain@?$hashtable@Ucfkey@@Ucfval@@@@QAE@XZ 0040b07e f i octa.obj
 0001:0000a0a4       ??0?$vector@Uaniminfo@vertmodel@@@@QAE@XZ 0040b0a4 f i rendermodel.obj
 0001:0000a0a4       ??0?$vector@Ucubeface@@@@QAE@XZ 0040b0a4 f i octa.obj
 0001:0000a0c0       ?rayintersect@plane@@QAE_NABUvec@@0AAM@Z 0040b0c0 f i octaedit.obj
 0001:0000a106       ??0ivec@@QAE@ABUvec@@@Z    0040b106 f i octaedit.obj
 0001:0000a128       ??8selinfo@@QBE_NABU0@@Z   0040b128 f i octaedit.obj
 0001:0000a15d       ??0block3@@QAE@ABUselinfo@@@Z 0040b15d f i octaedit.obj
 0001:0000a17f       ?set@Shader@@QAEXXZ        0040b17f f i octaedit.obj
 0001:0000a1cb       ?boxs@@YAXHHHHHH@Z         0040b1cb f   octaedit.obj
 0001:0000a33b       ?boxs3D@@YAXABUivec@@0H@Z  0040b33b f   octaedit.obj
 0001:0000a39d       ?boxsgrid@@YAXABUivec@@0HH@Z 0040b39d f   octaedit.obj
 0001:0000a448       ?var_dragging@@YAXXZ       0040b448 f   octaedit.obj
 0001:0000a48d       ?var_moving@@YAXXZ         0040b48d f   octaedit.obj
 0001:0000a4ee       ?clearheighttexture@@YAXXZ 0040b4ee f   octaedit.obj
 0001:0000a506       ?clearheightmap@@YAXXZ     0040b506 f   octaedit.obj
 0001:0000a523       ?cubecancel@@YAXXZ         0040b523 f   octaedit.obj
 0001:0000a541       ?entcancel@@YAXXZ          0040b541 f   octaedit.obj
 0001:0000a553       ?cancelsel@@YAXXZ          0040b553 f   octaedit.obj
 0001:0000a55d       ?var_gridpower@@YAXXZ      0040b55d f   octaedit.obj
 0001:0000a590       ?toggleedit@@YAXXZ         0040b590 f   octaedit.obj
 0001:0000a617       ?noedit@@YA_N_N@Z          0040b617 f   octaedit.obj
 0001:0000a75c       ?reorient@@YAXXZ           0040b75c f   octaedit.obj
 0001:0000a7b7       ?selextend@@YAXXZ          0040b7b7 f   octaedit.obj
 0001:0000a81e       ?blockcube@@YAAAUcube@@HHHABUblock3@@H@Z 0040b81e f   octaedit.obj
 0001:0000a880       ??0cmd_havesel@@QAE@XZ     0040b880 f i octaedit.obj
 0001:0000a8f6       ?run@cmd_havesel@@UAEXPAPAD@Z 0040b8f6 f i octaedit.obj
 0001:0000a90f       ??_Gcmd_entselect@@UAEPAXI@Z 0040b90f f i world.obj
 0001:0000a90f       ??_Ecmd_attack@@UAEPAXI@Z  0040b90f f i  CIL library: CIL module
 0001:0000a90f       ??_Gcmd_jump@@UAEPAXI@Z    0040b90f f i physics.obj
 0001:0000a90f       ??_Ecmd_echo@@UAEPAXI@Z    0040b90f f i  CIL library: CIL module
 0001:0000a90f       ??_Gcmd_if@@UAEPAXI@Z      0040b90f f i command.obj
 0001:0000a90f       ??_Gcmd_loop@@UAEPAXI@Z    0040b90f f i command.obj
 0001:0000a90f       ??_Ecmd_forward@@UAEPAXI@Z 0040b90f f i  CIL library: CIL module
 0001:0000a90f       ??_Ecmd_loop@@UAEPAXI@Z    0040b90f f i  CIL library: CIL module
 0001:0000a90f       ??_Ecmd_enthavesel@@UAEPAXI@Z 0040b90f f i  CIL library: CIL module
 0001:0000a90f       ??_Ecmd_if@@UAEPAXI@Z      0040b90f f i  CIL library: CIL module
 0001:0000a90f       ??_Gcmd_right@@UAEPAXI@Z   0040b90f f i physics.obj
 0001:0000a90f       ??_Gcmd_attack@@UAEPAXI@Z  0040b90f f i physics.obj
 0001:0000a90f       ??_Gcmd_entget@@UAEPAXI@Z  0040b90f f i world.obj
 0001:0000a90f       ??_Ecmd_left@@UAEPAXI@Z    0040b90f f i  CIL library: CIL module
 0001:0000a90f       ??_Ecmd_right@@UAEPAXI@Z   0040b90f f i  CIL library: CIL module
 0001:0000a90f       ??_Ecmd_havesel@@UAEPAXI@Z 0040b90f f i  CIL library: CIL module
 0001:0000a90f       ??_Ecmd_entselect@@UAEPAXI@Z 0040b90f f i  CIL library: CIL module
 0001:0000a90f       ??_Ecmd_insel@@UAEPAXI@Z   0040b90f f i  CIL library: CIL module
 0001:0000a90f       ??_Gcmd_left@@UAEPAXI@Z    0040b90f f i physics.obj
 0001:0000a90f       ??_Gcmd_insel@@UAEPAXI@Z   0040b90f f i world.obj
 0001:0000a90f       ??_Ecmd_backward@@UAEPAXI@Z 0040b90f f i  CIL library: CIL module
 0001:0000a90f       ??_Gcmd_backward@@UAEPAXI@Z 0040b90f f i physics.obj
 0001:0000a90f       ??_Ecmd_while@@UAEPAXI@Z   0040b90f f i  CIL library: CIL module
 0001:0000a90f       ??_Gcmd_enthavesel@@UAEPAXI@Z 0040b90f f i world.obj
 0001:0000a90f       ??_Gcmd_while@@UAEPAXI@Z   0040b90f f i command.obj
 0001:0000a90f       ??_Gcmd_havesel@@UAEPAXI@Z 0040b90f f i octaedit.obj
 0001:0000a90f       ??_Gcmd_entloop@@UAEPAXI@Z 0040b90f f i world.obj
 0001:0000a90f       ??_Gcmd_echo@@UAEPAXI@Z    0040b90f f i command.obj
 0001:0000a90f       ??_Ecmd_jump@@UAEPAXI@Z    0040b90f f i  CIL library: CIL module
 0001:0000a90f       ??_Ecmd_entget@@UAEPAXI@Z  0040b90f f i  CIL library: CIL module
 0001:0000a90f       ??_Ecmd_entloop@@UAEPAXI@Z 0040b90f f i  CIL library: CIL module
 0001:0000a90f       ??_Gcmd_forward@@UAEPAXI@Z 0040b90f f i physics.obj
 0001:0000a948       ?countselchild@@YAXPAUcube@@AAUivec@@H@Z 0040b948 f   octaedit.obj
 0001:0000a9df       ?normalizelookupcube@@YAXHHH@Z 0040b9df f   octaedit.obj
 0001:0000aa52       ?updateselection@@YAXXZ    0040ba52 f   octaedit.obj
 0001:0000aafb       ?editmoveplane@@YAXABUvec@@0HMAAU1@1_N@Z 0040bafb f   octaedit.obj
 0001:0000abb1       ?cursorupdate@@YAXXZ       0040bbb1 f   octaedit.obj
 0001:0000b548       ?readychanges@@YAXAAUblock3@@PAUcube@@AAUivec@@H@Z 0040c548 f   octaedit.obj
 0001:0000b634       ?changed@@YAXABUblock3@@@Z 0040c634 f   octaedit.obj
 0001:0000b6c3       ?copycube@@YA?AUcube@@AAU1@@Z 0040c6c3 f   octaedit.obj
 0001:0000b74f       ?pastecube@@YAXAAUcube@@0@Z 0040c74f f   octaedit.obj
 0001:0000b779       ?blockcopy@@YAPAUblock3@@ABU1@H@Z 0040c779 f   octaedit.obj
 0001:0000b86b       ?freeblock@@YAXPAUblock3@@@Z 0040c86b f   octaedit.obj
 0001:0000b8a5       ?selgridmap@@YAPAHAAUselinfo@@@Z 0040c8a5 f   octaedit.obj
 0001:0000b9a0       ?freeundo@@YAXUundoblock@@@Z 0040c9a0 f   octaedit.obj
 0001:0000b9d1       ?pasteundo@@YAXAAUundoblock@@@Z 0040c9d1 f   octaedit.obj
 0001:0000baba       ?pruneundos@@YAXH@Z        0040caba f   octaedit.obj
 0001:0000bbd5       ?initundocube@@YAXAAUundoblock@@AAUselinfo@@@Z 0040cbd5 f   octaedit.obj
 0001:0000bc06       ?addundo@@YAXAAUundoblock@@@Z 0040cc06 f   octaedit.obj
 0001:0000bc28       ?makeundo@@YAXXZ           0040cc28 f   octaedit.obj
 0001:0000bc8a       ?swapundo@@YAXAAU?$vector@Uundoblock@@@@0PBD@Z 0040cc8a f   octaedit.obj
 0001:0000bde5       ?editundo@@YAXXZ           0040cde5 f   octaedit.obj
 0001:0000bdfc       ?editredo@@YAXXZ           0040cdfc f   octaedit.obj
 0001:0000be13       ?freeeditinfo@@YAXAAPAUeditinfo@@@Z 0040ce13 f   octaedit.obj
 0001:0000be33       ?mpcopy@@YAXAAPAUeditinfo@@AAUselinfo@@_N@Z 0040ce33 f   octaedit.obj
 0001:0000bf1c       ?mppaste@@YAXAAPAUeditinfo@@AAUselinfo@@_N@Z 0040cf1c f   octaedit.obj
 0001:0000c06c       ?copy@@YAXXZ               0040d06c f   octaedit.obj
 0001:0000c08c       ?paste@@YAXPAH@Z           0040d08c f   octaedit.obj
 0001:0000c0ea       ?pushside@@YAXAAUcube@@HHHH@Z 0040d0ea f   octaedit.obj
 0001:0000c139       ?setheightmap@@YAXAAUselinfo@@@Z 0040d139 f   octaedit.obj
 0001:0000c51f       ?cubifyheightmap@@YAXAAUselinfo@@@Z 0040d51f f   octaedit.obj
 0001:0000c6da       ?getlimits@@YAXAAH000000@Z 0040d6da f   octaedit.obj
 0001:0000c779       ?createheightmap@@YAXXZ    0040d779 f   octaedit.obj
 0001:0000caaf       ?getheightmap@@YAXXZ       0040daaf f   octaedit.obj
 0001:0000cad6       ?clearbrush@@YAXXZ         0040dad6 f   octaedit.obj
 0001:0000caf3       ?brushvert@@YAXPAH00@Z     0040daf3 f   octaedit.obj
 0001:0000cb46       ?getxcursor@@YAHXZ         0040db46 f   octaedit.obj
 0001:0000cb76       ?getycursor@@YAHXZ         0040db76 f   octaedit.obj
 0001:0000cba8       ?copybrush@@YAXXZ          0040dba8 f   octaedit.obj
 0001:0000cca5       ?savebrush@@YAXPBD@Z       0040dca5 f   octaedit.obj
 0001:0000cd98       ?edithmap@@YAXH@Z          0040dd98 f   octaedit.obj
 0001:0000d056       ?pushedge@@YAXAAEHH@Z      0040e056 f   octaedit.obj
 0001:0000d0f0       ?linkedpush@@YAXAAUcube@@HHHHH@Z 0040e0f0 f   octaedit.obj
 0001:0000d1b7       ?mpeditface@@YAXHHAAUselinfo@@_N@Z 0040e1b7 f   octaedit.obj
 0001:0000d5b6       ?editface@@YAXPAH0@Z       0040e5b6 f   octaedit.obj
 0001:0000d5ff       ?pushsel@@YAXPAH@Z         0040e5ff f   octaedit.obj
 0001:0000d63e       ?mpdelcube@@YAXAAUselinfo@@_N@Z 0040e63e f   octaedit.obj
 0001:0000d749       ?delcube@@YAXXZ            0040e749 f   octaedit.obj
 0001:0000d765       ?tofronttex@@YAXXZ         0040e765 f   octaedit.obj
 0001:0000d790       ?edittexcube@@YAXAAUcube@@HHAA_N@Z 0040e790 f   octaedit.obj
 0001:0000d81c       ?mpedittex@@YAXHHAAUselinfo@@_N@Z 0040e81c f   octaedit.obj
 0001:0000d973       ?filltexlist@@YAXXZ        0040e973 f   octaedit.obj
 0001:0000d9fa       ?edittex@@YAXPAH@Z         0040e9fa f   octaedit.obj
 0001:0000da9f       ?gettex@@YAXXZ             0040ea9f f   octaedit.obj
 0001:0000dbe9       ?replacetexcube@@YAXAAUcube@@HH@Z 0040ebe9 f   octaedit.obj
 0001:0000dc32       ?mpreplacetex@@YAXHHAAUselinfo@@_N@Z 0040ec32 f   octaedit.obj
 0001:0000dc7f       ?replace@@YAXXZ            0040ec7f f   octaedit.obj
 0001:0000dcb7       ?dflip@@YAII@Z             0040ecb7 f   octaedit.obj
 0001:0000dcdc       ?mflip@@YAII@Z             0040ecdc f   octaedit.obj
 0001:0000dcfb       ?flipcube@@YAXAAUcube@@H@Z 0040ecfb f   octaedit.obj
 0001:0000dded       ?rotatequad@@YAXAAUcube@@000@Z 0040eded f   octaedit.obj
 0001:0000de2e       ?rotatecube@@YAXAAUcube@@H@Z 0040ee2e f   octaedit.obj
 0001:0000dfcc       ?mpflip@@YAXAAUselinfo@@_N@Z 0040efcc f   octaedit.obj
 0001:0000e182       ?flip@@YAXXZ               0040f182 f   octaedit.obj
 0001:0000e1a7       ?mprotate@@YAXHAAUselinfo@@_N@Z 0040f1a7 f   octaedit.obj
 0001:0000e432       ?rotate@@YAXPAH@Z          0040f432 f   octaedit.obj
 0001:0000e45e       ?setmat@@YAXAAUcube@@E@Z   0040f45e f   octaedit.obj
 0001:0000e4af       ?mpeditmat@@YAXHAAUselinfo@@_N@Z 0040f4af f   octaedit.obj
 0001:0000e5af       ?editmat@@YAXPAD@Z         0040f5af f   octaedit.obj
 0001:0000e5ec       ?render_texture_panel@@YAXHH@Z 0040f5ec f   octaedit.obj
 0001:0000e8f0       ?add@?$vector@G@@QAEAAGABG@Z 0040f8f0 f i octaedit.obj
 0001:0000e926       ?remove@?$vector@G@@QAEGH@Z 0040f926 f i octaedit.obj
 0001:0000e95a       ?insert@?$vector@G@@QAEAAGHABG@Z 0040f95a f i octaedit.obj
 0001:0000e9a4       ??1?$tident@X@@UAE@XZ      0040f9a4 f i octaedit.obj
 0001:0000e9ab       ?add@?$vector@Uundoblock@@@@QAEAAUundoblock@@ABU2@@Z 0040f9ab f i octaedit.obj
 0001:0000e9e1       ??_G?$tident@X@@UAEPAXI@Z  0040f9e1 f i octaedit.obj
 0001:0000e9e1       ??_E?$tident@X@@UAEPAXI@Z  0040f9e1 f i  CIL library: CIL module
 0001:0000e9fe       ?vrealloc@?$vector@G@@QAEXXZ 0040f9fe f i octaedit.obj
 0001:0000ea3c       ?vrealloc@?$vector@Uundoblock@@@@QAEXXZ 0040fa3c f i octaedit.obj
 0001:0000ea82       ??0vec@@QAE@MM@Z           0040fa82 f i octarender.obj
 0001:0000eadc       ?genfloatverts@@YAXPAUfvertex@@@Z 0040fadc f   octarender.obj
 0001:0000eb48       ?var_vacubemax@@YAXXZ      0040fb48 f   octarender.obj
 0001:0000eb48       ?var_optmats@@YAXXZ        0040fb48 f   water.obj
 0001:0000eb48       ?var_vacubemin@@YAXXZ      0040fb48 f   octarender.obj
 0001:0000eb48       ?var_vbosize@@YAXXZ        0040fb48 f   octarender.obj
 0001:0000eb48       ?var_floatvtx@@YAXXZ       0040fb48 f   octarender.obj
 0001:0000eb48       ?var_vacubesize@@YAXXZ     0040fb48 f   octarender.obj
 0001:0000eb51       ?destroyvbo@@YAXI@Z        0040fb51 f   octarender.obj
 0001:0000eb75       ?genvbo@@YAXHPAXHPAPAUvtxarray@@H@Z 0040fb75 f   octarender.obj
 0001:0000ec37       ?flushvbo@@YAXH@Z          0040fc37 f   octarender.obj
 0001:0000ec88       ?addvbo@@YAPAXPAUvtxarray@@HPAXH@Z 0040fc88 f   octarender.obj
 0001:0000ed5d       ?access@vechash@@QAEHABUvvec@@FFABUbvec@@@Z 0040fd5d f i octarender.obj
 0001:0000eebc       ?size@lodcollect@@QAEHXZ   0040febc f i octarender.obj
 0001:0000eee5       ?clearidx@lodcollect@@QAEXXZ 0040fee5 f i octarender.obj
 0001:0000ef51       ?remapunlit@lodcollect@@QAEXAAU?$vector@Usortkey@@@@@Z 0040ff51 f i octarender.obj
 0001:0000f192       ?optimize@lodcollect@@QAEXXZ 00410192 f i octarender.obj
 0001:0000f30f       ?texsort@lodcollect@@SAHPBUsortkey@@0@Z 0041030f f i octarender.obj
 0001:0000f36c       ?setup@lodcollect@@QAEPADPAUvtxarray@@AAUlodlevel@@PAD@Z 0041036c f i octarender.obj
 0001:0000f60d       ??0lodcollect@@QAE@XZ      0041060d f i octarender.obj
 0001:0000f6b7       ??1lodcollect@@QAE@XZ      004106b7 f i octarender.obj
 0001:0000f735       ?var_lodsize@@YAXXZ        00410735 f   octarender.obj
 0001:0000f740       ?addtriindexes@@YAHAAU?$vector@G@@QAH@Z 00410740 f   octarender.obj
 0001:0000f7e0       ?addcubeverts@@YAXHH_NPAUvvec@@GPAUsurfaceinfo@@PAUsurfacenormals@@@Z 004107e0 f   octarender.obj
 0001:0000f991       ?gencubeverts@@YAXAAUcube@@HHHHH_N@Z 00410991 f   octarender.obj
 0001:0000fab3       ?skyoccluded@@YA_NAAUcube@@H@Z 00410ab3 f   octarender.obj
 0001:0000fae1       ?hasskyfaces@@YAHAAUcube@@HHHHQAH@Z 00410ae1 f   octarender.obj
 0001:0000fbaa       ?minskyface@@YAXAAUcube@@HABUivec@@HAAUmergeinfo@@@Z 00410baa f   octarender.obj
 0001:0000fc43       ?genskyfaces@@YAXAAUcube@@ABUivec@@H_N@Z 00410c43 f   octarender.obj
 0001:0000fda4       ?addskyverts@@YAXABUivec@@H@Z 00410da4 f   octarender.obj
 0001:0000ff18       ?newva@@YAPAUvtxarray@@HHHH@Z 00410f18 f   octarender.obj
 0001:00010142       ?destroyva@@YAXPAUvtxarray@@_N@Z 00411142 f   octarender.obj
 0001:00010260       ?vaclearc@@YAXPAUcube@@@Z  00411260 f   octarender.obj
 0001:000102a0       ?genmergedfaces@@YAXAAUcube@@ABUivec@@HH@Z 004112a0 f   octarender.obj
 0001:000103f9       ?findmergedfaces@@YAXAAUcube@@ABUivec@@HHH@Z 004113f9 f   octarender.obj
 0001:00010499       ?addmergedverts@@YAXH@Z    00411499 f   octarender.obj
 0001:00010509       ?rendercube@@YAXAAUcube@@HHHHH@Z 00411509 f   octarender.obj
 0001:0001074f       ?setva@@YAXAAUcube@@HHHHH@Z 0041174f f   octarender.obj
 0001:000108e2       ?updateva@@YAHPAUcube@@HHHHH@Z 004118e2 f   octarender.obj
 0001:00010b7d       ?genlod@@YAXAAUcube@@H@Z   00411b7d f   octarender.obj
 0001:00010c43       ?octarender@@YAXXZ         00411c43 f   octarender.obj
 0001:00010cfb       ?precachetextures@@YAXAAUlodlevel@@@Z 00411cfb f   octarender.obj
 0001:00010d21       ?precacheall@@YAXXZ        00411d21 f   octarender.obj
 0001:00010d5b       ?allchanged@@YAX_N@Z       00411d5b f   octarender.obj
 0001:00010e12       ?recalc@@YAXXZ             00411e12 f   octarender.obj
 0001:00010e1b       ?isvisiblesphere@@YAHMABUvec@@@Z 00411e1b f   octarender.obj
 0001:00010ed5       ?isvisiblecube@@YAHABUvec@@H@Z 00411ed5 f   octarender.obj
 0001:00010f38       ?vadist@@YAMPAUvtxarray@@ABUvec@@@Z 00411f38 f   octarender.obj
 0001:00010fa7       ?addvisibleva@@YAXPAUvtxarray@@@Z 00411fa7 f   octarender.obj
 0001:00011021       ?findvisiblevas@@YAXAAU?$vector@PAUvtxarray@@@@_N@Z 00412021 f   octarender.obj
 0001:000110cb       ?setvfcP@@YAXMMABUvec@@@Z  004120cb f   octarender.obj
 0001:00011300       ?reflectvfcP@@YAXM@Z       00412300 f   octarender.obj
 0001:00011353       ?restorevfcP@@YAXXZ        00412353 f   octarender.obj
 0001:00011368       ?visiblecubes@@YAXPAUcube@@HHHHHHH@Z 00412368 f   octarender.obj
 0001:000113f1       ?insideva@@YA_NPBUvtxarray@@ABUvec@@@Z 004123f1 f   octarender.obj
 0001:00011494       ?resetorigin@@YAXXZ        00412494 f   octarender.obj
 0001:000114b7       ?setorigin@@YAXPAUvtxarray@@@Z 004124b7 f   octarender.obj
 0001:0001154f       ?setupTMU@@YAXXZ           0041254f f   octarender.obj
 0001:000115ac       ?newquery@@YAPAUoccludequery@@PAX@Z 004125ac f   octarender.obj
 0001:00011601       ?checkquery@@YA_NPAUoccludequery@@_N@Z 00412601 f   octarender.obj
 0001:00011649       ?drawbb@@YAXABUivec@@0ABUvec@@@Z 00412649 f   octarender.obj
 0001:0001170e       ?findvisiblemms@@YAXABU?$vector@PAUextentity@@@@@Z 0041270e f   octarender.obj
 0001:0001188e       ?rendermapmodel@@YAXAAUextentity@@@Z 0041288e f   octarender.obj
 0001:00011955       ?renderreflectedmapmodels@@YAXM_N@Z 00412955 f   octarender.obj
 0001:00011b58       ?rendermapmodels@@YAXXZ    00412b58 f   octarender.obj
 0001:00011df5       ?bboccluded@@YA_NABUivec@@0PAUcube@@0H@Z 00412df5 f   octarender.obj
 0001:00011e97       ?renderoutline@@YAXXZ      00412e97 f   octarender.obj
 0001:00012062       ??0renderstate@@QAE@XZ     00413062 f i octarender.obj
 0001:000120a1       ?renderquery@@YAXAAUrenderstate@@PAUoccludequery@@PAUvtxarray@@@Z 004130a1 f   octarender.obj
 0001:00012297       ?renderva@@YAXAAUrenderstate@@PAUvtxarray@@AAUlodlevel@@_N@Z 00413297 f   octarender.obj
 0001:00012b7b       ?setupTMUs@@YAXXZ          00413b7b f   octarender.obj
 0001:00012cf7       ?cleanupTMUs@@YAXXZ        00413cf7 f   octarender.obj
 0001:00012dcd       ?rendergeom@@YAXXZ         00413dcd f   octarender.obj
 0001:000130c9       ?findreflectedvas@@YAXAAU?$vector@PAUvtxarray@@@@M_N1@Z 004140c9 f   octarender.obj
 0001:0001322c       ?renderreflectedgeom@@YAXM_N@Z 0041422c f   octarender.obj
 0001:00013521       ?renderskyva@@YAXPAUvtxarray@@AAUlodlevel@@_N@Z 00414521 f   octarender.obj
 0001:0001362a       ?renderreflectedskyvas@@YAXAAU?$vector@PAUvtxarray@@@@M_N@Z 0041462a f   octarender.obj
 0001:00013711       ?rendersky@@YAX_NM@Z       00414711 f   octarender.obj
 0001:000137e4       ?writeobj@@YAXPAD@Z        004147e4 f   octarender.obj
 0001:0001399c       ??0?$vector@G@@QAE@XZ      0041499c f i octarender.obj
 0001:000139b8       ??0?$vector@D@@QAE@XZ      004149b8 f i octarender.obj
 0001:000139d2       ?reserve@?$vector@E@@QAE?AU?$databuf@E@@H@Z 004149d2 f i fps.obj
 0001:000139d2       ?reserve@?$vector@D@@QAE?AU?$databuf@D@@H@Z 004149d2 f i octarender.obj
 0001:000139fc       ?add@?$vector@Uteamscore@scoreboard@fpsclient@@@@QAEAAUteamscore@scoreboard@fpsclient@@ABU234@@Z 004149fc f i fps.obj
 0001:000139fc       ?add@?$vector@Usortkey@@@@QAEAAUsortkey@@ABU2@@Z 004149fc f i octarender.obj
 0001:00013a30       ?removeobj@?$vector@Usortkey@@@@QAEXABUsortkey@@@Z 00414a30 f i octarender.obj
 0001:00013a83       ??0?$vector@PAUoctaentities@@@@QAE@ABU0@@Z 00414a83 f i octarender.obj
 0001:00013ac7       ??1chain@?$hashtable@Usortkey@@Usortval@@@@QAE@XZ 00414ac7 f i octarender.obj
 0001:00013aeb       ??1sortval@@QAE@XZ         00414aeb f i octarender.obj
 0001:00013b1c       ?find@?$hashtable@IUvboinfo@@@@QAEPAUchain@1@ABI_N@Z 00414b1c f i octarender.obj
 0001:00013b9b       ?vrealloc@?$vector@D@@QAEXXZ 00414b9b f i octarender.obj
 0001:00013b9b       ?vrealloc@?$vector@E@@QAEXXZ 00414b9b f i crypto.obj
 0001:00013bd7       ?find@?$hashtable@Usortkey@@Usortval@@@@QAEPAUchain@1@ABUsortkey@@_N@Z 00414bd7 f i octarender.obj
 0001:00013c21       ?vrealloc@?$vector@Usortkey@@@@QAEXXZ 00414c21 f i octarender.obj
 0001:00013c21       ?vrealloc@?$vector@Uteamscore@scoreboard@fpsclient@@@@QAEXXZ 00414c21 f i fps.obj
 0001:00013c21       ?vrealloc@?$vector@Uban@fpsserver@@@@QAEXXZ 00414c21 f i fps.obj
 0001:00013c67       ?insert@?$hashtable@Usortkey@@Usortval@@@@QAEPAUchain@1@ABUsortkey@@I@Z 00414c67 f i octarender.obj
 0001:00013d01       ??0chain@?$hashtable@Usortkey@@Usortval@@@@QAE@XZ 00414d01 f i octarender.obj
 0001:00013d3f       ??$dist_to_bb@Uivec@@@vec@@QBEMABUivec@@0@Z 00414d3f f i octarender.obj
 0001:00013db5       _sinf                      00414db5 f i octarender.obj
 0001:00013dcf       ?dist@vec@@QBEMABU1@AAU1@@Z 00414dcf f i physics.obj
 0001:00013e02       ?reject@vec@@QAE_NABU1@M@Z 00414e02 f i physics.obj
 0001:00013e79       ??0physent@@QAE@XZ         00414e79 f i physics.obj
 0001:00013ece       ?reset@physent@@QAEXXZ     00414ece f i physics.obj
 0001:00013f06       ?collisionbox@model@@QAEXHAAUvec@@0@Z 00414f06 f i physics.obj
 0001:00013f59       ?setcubeclip@@YAXAAUcube@@HHHH@Z 00414f59 f   physics.obj
 0001:0001407b       ?freeclipplanes@@YAXAAUcube@@@Z 0041507b f   physics.obj
 0001:000140e1       ?pointincube@@YA_NABUclipplanes@@ABUvec@@@Z 004150e1 f   physics.obj
 0001:00014196       ?raycubeintersect@@YA_NABUcube@@ABUvec@@1AAM@Z 00415196 f   physics.obj
 0001:0001443d       ?rayent@@YAHABUvec@@AAU1@@Z 0041543d f   physics.obj
 0001:0001449a       ?raycubepos@@YAMABUvec@@AAU1@1MHH@Z 0041549a f   physics.obj
 0001:000144fb       ?raycube@@YAMABUvec@@0MHHPAUextentity@@@Z 004154fb f   physics.obj
 0001:00014a31       ?rectcollide@@YA_NPAUphysent@@ABUvec@@1MMMME_N@Z 00415a31 f   physics.obj
 0001:00014cf4       ??0dynentcacheentry@@QAE@XZ 00415cf4 f i physics.obj
 0001:00014d2e       ??1dynentcacheentry@@QAE@XZ 00415d2e f i physics.obj
 0001:00014d60       ?cleardynentcache@@YAXXZ   00415d60 f   physics.obj
 0001:00014d95       ?var_dynentsize@@YAXXZ     00415d95 f   physics.obj
 0001:00014d9a       ?checkdynentcache@@YAABU?$vector@PAUphysent@@@@HH@Z 00415d9a f   physics.obj
 0001:00014eaf       ?updatedynentcache@@YAXPAUphysent@@@Z 00415eaf f   physics.obj
 0001:00014ff6       ?overlapsdynent@@YA_NABUvec@@M@Z 00415ff6 f   physics.obj
 0001:0001513c       ?plcollide@@YA_NPAUphysent@@ABUvec@@@Z 0041613c f   physics.obj
 0001:000152e3       ?rotatebb@@YAXAAUvec@@0H@Z 004162e3 f   physics.obj
 0001:000153e6       ?mmcollide@@YA_NPAUphysent@@ABUvec@@AAUoctaentities@@@Z 004163e6 f   physics.obj
 0001:0001550a       ?cubecollide@@YA_NPAUphysent@@ABUvec@@MAAUcube@@HHHH@Z 0041650a f   physics.obj
 0001:00015822       ?octacollide@@YA_NPAUphysent@@ABUvec@@MABUivec@@2PAUcube@@2H@Z 00416822 f   physics.obj
 0001:0001593c       ?collide@@YA_NPAUphysent@@ABUvec@@M@Z 0041693c f   physics.obj
 0001:00015a02       ?slopegravity@@YAXMABUvec@@AAU1@@Z 00416a02 f   physics.obj
 0001:00015a3c       ?slideagainst@@YAXPAUphysent@@AAUvec@@ABU2@@Z 00416a3c f   physics.obj
 0001:00015afa       ?switchfloor@@YAXPAUphysent@@AAUvec@@_NABU2@@Z 00416afa f   physics.obj
 0001:00015da8       ?trystepup@@YA_NPAUphysent@@AAUvec@@M@Z 00416da8 f   physics.obj
 0001:00015e9d       ?falling@@YAXPAUphysent@@AAUvec@@ABU2@@Z 00416e9d f   physics.obj
 0001:00015f16       ?landing@@YAXPAUphysent@@AAUvec@@ABU2@@Z 00416f16 f   physics.obj
 0001:00015f6d       ?findfloor@@YA_NPAUphysent@@_NABUvec@@AA_NAAU2@@Z 00416f6d f   physics.obj
 0001:00016113       ?move@@YA_NPAUphysent@@AAUvec@@@Z 00417113 f   physics.obj
 0001:00016341       ?bounce@@YA_NPAUphysent@@MMM@Z 00417341 f   physics.obj
 0001:000165e0       ?avoidcollision@@YAXPAUphysent@@ABUvec@@0M@Z 004175e0 f   physics.obj
 0001:00016778       ?dropenttofloor@@YAXPAUentity@@@Z 00417778 f   physics.obj
 0001:00016850       ?phystest@@YAXXZ           00417850 f   physics.obj
 0001:0001691e       ?vecfromyawpitch@@YAXMMHHAAUvec@@_N@Z 0041791e f   physics.obj
 0001:000169e0       ?modifyvelocity@@YAXPAUphysent@@H_N11H@Z 004179e0 f   physics.obj
 0001:00016c1f       ?modifygravity@@YAXPAUphysent@@_NM@Z 00417c1f f   physics.obj
 0001:00016d23       ?moveplayer@@YA_NPAUphysent@@H_NH@Z 00417d23 f   physics.obj
 0001:0001704d       ?physicsframe@@YAXXZ       0041804d f   physics.obj
 0001:00017083       ?moveplayer@@YAXPAUphysent@@H_N@Z 00418083 f   physics.obj
 0001:000170e0       ?intersect@@YA_NPAUphysent@@AAUvec@@1@Z 004180e0 f   physics.obj
 0001:00017238       ??0cmd_backward@@QAE@XZ    00418238 f i physics.obj
 0001:000172ae       ?run@cmd_backward@@UAEXPAPAD@Z 004182ae f i physics.obj
 0001:000172d5       ??0cmd_forward@@QAE@XZ     004182d5 f i physics.obj
 0001:0001734b       ?run@cmd_forward@@UAEXPAPAD@Z 0041834b f i physics.obj
 0001:00017371       ??0cmd_left@@QAE@XZ        00418371 f i physics.obj
 0001:000173e7       ?run@cmd_left@@UAEXPAPAD@Z 004183e7 f i physics.obj
 0001:0001740d       ??0cmd_right@@QAE@XZ       0041840d f i physics.obj
 0001:00017483       ?run@cmd_right@@UAEXPAPAD@Z 00418483 f i physics.obj
 0001:000174aa       ??0cmd_jump@@QAE@XZ        004184aa f i physics.obj
 0001:00017520       ?run@cmd_jump@@UAEXPAPAD@Z 00418520 f i physics.obj
 0001:00017543       ??0cmd_attack@@QAE@XZ      00418543 f i physics.obj
 0001:000175b9       ?run@cmd_attack@@UAEXPAPAD@Z 004185b9 f i physics.obj
 0001:000175d0       ?fixcamerarange@@YAXXZ     004185d0 f   physics.obj
 0001:00017651       ?mousemove@@YAXHH@Z        00418651 f   physics.obj
 0001:000176cf       ?entinmap@@YAXPAUdynent@@@Z 004186cf f   physics.obj
 0001:000177e8       ?updatephysstate@@YAXPAUphysent@@@Z 004187e8 f   physics.obj
 0001:00017955       ?find@?$vector@H@@QAEHABH@Z 00418955 f i physics.obj
 0001:0001797a       ?fabs@@YAMM@Z              0041897a f i physics.obj
 0001:00017994       ?s_strncpy@@YAPADPADPBDI@Z 00418994 f i world.obj
 0001:000179ab       ??0octaentities@@QAE@ABUivec@@H@Z 004189ab f i world.obj
 0001:000179fc       ?modifyoctaentity@@YAX_NHPAUcube@@ABUivec@@H22PAUvtxarray@@@Z 004189fc f   world.obj
 0001:00017cbd       ?getentboundingbox@@YA_NAAUextentity@@AAUivec@@1@Z 00418cbd f   world.obj
 0001:00017e5e       ?freeoctaentities@@YAXAAUcube@@@Z 00418e5e f   world.obj
 0001:00017f01       ?entitiesinoctanodes@@YAXXZ 00418f01 f   world.obj
 0001:00017f2f       ?closestent@@YAHXZ         00418f2f f   world.obj
 0001:00017fc1       ?pointinsel@@YA_NAAUselinfo@@AAUvec@@@Z 00418fc1 f   world.obj
 0001:00018068       ?initundoent@@YAXAAUundoblock@@@Z 00419068 f   world.obj
 0001:0001811d       ?makeundoent@@YAXXZ        0041911d f   world.obj
 0001:0001814d       ?pasteundoents@@YAXAAUundoblock@@@Z 0041914d f   world.obj
 0001:000181d5       ?entflip@@YAXXZ            004191d5 f   world.obj
 0001:0001828f       ?entrotate@@YAXPAH@Z       0041928f f   world.obj
 0001:000183f1       ?entdrag@@YAXABUvec@@HAAUivec@@_N@Z 004193f1 f   world.obj
 0001:000185fa       ?enttoggle@@YA_NH@Z        004195fa f   world.obj
 0001:0001864c       ?var_entmoving@@YAXXZ      0041964c f   world.obj
 0001:000186c5       ?entpush@@YAXPAH@Z         004196c5 f   world.obj
 0001:000188bc       ?delent@@YAXXZ             004198bc f   world.obj
 0001:000189d3       ?findtype@@YAHPAD@Z        004199d3 f   world.obj
 0001:00018a1f       ?dropentity@@YA_NAAUentity@@H@Z 00419a1f f   world.obj
 0001:00018bbf       ?dropent@@YAXXZ            00419bbf f   world.obj
 0001:00018ce7       ?newentity@@YAPAUextentity@@_NABUvec@@HHHHH@Z 00419ce7 f   world.obj
 0001:00018d93       ?newentity@@YAXHHHHH@Z     00419d93 f   world.obj
 0001:00018e30       ?newent@@YAXPADPAH111@Z    00419e30 f   world.obj
 0001:00018e6e       ?entcopy@@YAXXZ            00419e6e f   world.obj
 0001:00018f48       ?entpaste@@YAXXZ           00419f48 f   world.obj
 0001:000190d0       ?entset@@YAXPADPAH111@Z    0041a0d0 f   world.obj
 0001:00019250       ??0cmd_enthavesel@@QAE@XZ  0041a250 f i world.obj
 0001:000192c6       ?run@cmd_enthavesel@@UAEXPAPAD@Z 0041a2c6 f i world.obj
 0001:000192d5       ??0cmd_entselect@@QAE@XZ   0041a2d5 f i world.obj
 0001:0001934b       ?run@cmd_entselect@@UAEXPAPAD@Z 0041a34b f i world.obj
 0001:000193cb       ??0cmd_entloop@@QAE@XZ     0041a3cb f i world.obj
 0001:00019441       ?run@cmd_entloop@@UAEXPAPAD@Z 0041a441 f i world.obj
 0001:00019541       ??0cmd_insel@@QAE@XZ       0041a541 f i world.obj
 0001:000195b7       ?run@cmd_insel@@UAEXPAPAD@Z 0041a5b7 f i world.obj
 0001:000195e5       ??0cmd_entget@@QAE@XZ      0041a5e5 f i world.obj
 0001:0001965b       ?run@cmd_entget@@UAEXPAPAD@Z 0041a65b f i world.obj
 0001:000196cf       ?findentity@@YAHHH@Z       0041a6cf f   world.obj
 0001:00019726       ?findplayerspawn@@YAXPAUdynent@@H@Z 0041a726 f   world.obj
 0001:000197f3       ?splitocta@@YAXPAUcube@@H@Z 0041a7f3 f   world.obj
 0001:00019840       ?emptymap@@YA_NH_N@Z       0041a840 f   world.obj
 0001:000199ea       ?enlargemap@@YA_N_N@Z      0041a9ea f   world.obj
 0001:00019a72       ?newmap@@YAXPAH@Z          0041aa72 f   world.obj
 0001:00019a9c       ?mapenlarge@@YAXXZ         0041aa9c f   world.obj
 0001:00019b22       ?mpeditent@@YAXHABUvec@@HHHHH_N@Z 0041ab22 f   world.obj
 0001:00019c03       ?insideworld@@YA_NABUvec@@@Z 0041ac03 f   world.obj
 0001:00019c34       ?unlocktriggers@@YAXHHH@Z  0041ac34 f   world.obj
 0001:00019ce0       ?trigger@@YAXPAH0@Z        0041ace0 f   world.obj
 0001:00019d02       ?doleveltrigger@@YAXHH@Z   0041ad02 f   world.obj
 0001:00019d57       ?checktriggers@@YAXXZ      0041ad57 f   world.obj
 0001:0001a051       ?remove@?$vector@PAUrpgobj@rpgclient@@@@QAEPAUrpgobj@rpgclient@@H@Z 0041b051 f i rpg.obj
 0001:0001a051       ?remove@?$vector@H@@QAEHH@Z 0041b051 f i world.obj
 0001:0001a074       ?removeobj@?$vector@H@@QAEXABH@Z 0041b074 f i world.obj
 0001:0001a09d       ?removeobj@?$vector@PAUoctaentities@@@@QAEXABQAUoctaentities@@@Z 0041b09d f i world.obj
 0001:0001a09d       ?removeobj@?$vector@PAUvtxarray@@@@QAEXABQAUvtxarray@@@Z 0041b09d f i octarender.obj
 0001:0001a0e0       ?vrealloc@?$vector@Uentity@@@@QAEXXZ 0041b0e0 f i world.obj
 0001:0001a12d       ?s_strcpy@@YAPADPADPBD@Z   0041b12d f i worldio.obj
 0001:0001a14a       ?setnames@@YAXPBD0@Z       0041b14a f   worldio.obj
 0001:0001a2dc       ?readushort@@YAGPAX@Z      0041b2dc f   worldio.obj
 0001:0001a2f8       ?writeushort@@YAXPAXG@Z    0041b2f8 f   worldio.obj
 0001:0001a30d       ?savec@@YAXPAUcube@@PAX_N@Z 0041b30d f   worldio.obj
 0001:0001a61c       ?loadc@@YAXPAXAAUcube@@@Z  0041b61c f   worldio.obj
 0001:0001a910       ?loadchildren@@YAPAUcube@@PAX@Z 0041b910 f   worldio.obj
 0001:0001a939       ?save_world@@YAXPAD_N@Z    0041b939 f   worldio.obj
 0001:0001acbd       ?swapXZ@@YAXPAUcube@@@Z    0041bcbd f   worldio.obj
 0001:0001ad77       ?load_world@@YAXPBD0@Z     0041bd77 f   worldio.obj
 0001:0001b592       ?savecurrentmap@@YAXXZ     0041c592 f   worldio.obj
 0001:0001b5a8       ?savemap@@YAXPAD@Z         0041c5a8 f   worldio.obj
 0001:0001b5b6       ?multiplayer@@YA_N_N@Z     0041c5b6 f   client.obj
 0001:0001b5dd       ?setrate@@YAXH@Z           0041c5dd f   client.obj
 0001:0001b603       ?var_rate@@YAXXZ           0041c603 f   client.obj
 0001:0001b608       ?var_throttle_decel@@YAXXZ 0041c608 f   client.obj
 0001:0001b608       ?var_throttle_interval@@YAXXZ 0041c608 f   client.obj
 0001:0001b608       ?var_throttle_accel@@YAXXZ 0041c608 f   client.obj
 0001:0001b60d       ?throttle@@YAXXZ           0041c60d f   client.obj
 0001:0001b636       ?connects@@YAXPAD@Z        0041c636 f   client.obj
 0001:0001b705       ?lanconnect@@YAXXZ         0041c705 f   client.obj
 0001:0001b70e       ?disconnect@@YAXHH@Z       0041c70e f   client.obj
 0001:0001b7d0       ?trydisconnect@@YAXXZ      0041c7d0 f   client.obj
 0001:0001b81e       ?sendpackettoserv@@YAXPAU_ENetPacket@@H@Z 0041c81e f   client.obj
 0001:0001b84c       ?c2sinfo@@YAXPAUdynent@@H@Z 0041c84c f   client.obj
 0001:0001b900       ?neterr@@YAXPAD@Z          0041c900 f   client.obj
 0001:0001b91b       ?localservertoclient@@YAXHPAEH@Z 0041c91b f   client.obj
 0001:0001b946       ?gets2c@@YAXXZ             0041c946 f   client.obj
 0001:0001ba8b       ?gensboxes@tiger@@SAXXZ    0041ca8b f i crypto.obj
 0001:0001bb88       ?compress@tiger@@SAXPB_KQA_K@Z 0041cb88 f i crypto.obj
 0001:0001c663       ?hash@tiger@@SAXPBEHAAThashval@1@@Z 0041d663 f i crypto.obj
 0001:0001c831       ??0gfield@@QAE@PBD@Z       0041d831 f i crypto.obj
 0001:0001c84d       ?invert@gfield@@QAE_NABU1@@Z 0041d84d f i crypto.obj
 0001:0001ca56       ?sqrt@gfield@@QAE_NABU1@@Z 0041da56 f i crypto.obj
 0001:0001cb07       ?mul2@ecjacobian@@QAEXXZ   0041db07 f i crypto.obj
 0001:0001cc1f       ?add@ecjacobian@@QAEXABU1@@Z 0041dc1f f i crypto.obj
 0001:0001ce2e       ?normalize@ecjacobian@@QAEXXZ 0041de2e f i crypto.obj
 0001:0001cea9       ?calcy@ecjacobian@@QAE_N_N@Z 0041dea9 f i crypto.obj
 0001:0001cf24       ?write@ecjacobian@@QAEXAAU?$vector@E@@@Z 0041df24 f i crypto.obj
 0001:0001cfa5       ?read@ecjacobian@@QAEXABU?$vector@E@@@Z 0041dfa5 f i crypto.obj
 0001:0001d050       ?testgf@@YAXPAD@Z          0041e050 f   crypto.obj
 0001:0001d95e       ?testcurve@@YAXPAD@Z       0041e95e f   crypto.obj
 0001:0001defd       ?hasbit@?$bigint@$00@@QBE_NH@Z 0041eefd f i crypto.obj
 0001:0001defd       ?hasbit@?$bigint@$0N@@@QBE_NH@Z 0041eefd f i crypto.obj
 0001:0001df2b       ??0?$vector@E@@QAE@XZ      0041ef2b f i crypto.obj
 0001:0001df41       ?add@?$vector@E@@QAEAAEABE@Z 0041ef41 f i crypto.obj
 0001:0001df41       ?add@?$vector@D@@QAEAADABD@Z 0041ef41 f i worldio.obj
 0001:0001df6f       ?shrink@?$bigint@$0N@@@QAEXXZ 0041ef6f f i crypto.obj
 0001:0001df86       ??$?M$0N@@?$bigint@$0N@@@QBE_NABU0@@Z 0041ef86 f i crypto.obj
 0001:0001dfc7       ??$sub@$0N@$0N@@?$bigint@$0N@@@QAEAAU0@ABU0@0@Z 0041efc7 f i crypto.obj
 0001:0001e061       ??$legendre@$0N@@gfield@@SAHABU?$bigint@$0N@@@@Z 0041f061 f i crypto.obj
 0001:0001e0f4       ??$pow@$0N@$0N@@gfield@@QAEAAU0@ABU?$bigint@$0N@@@0@Z 0041f0f4 f i crypto.obj
 0001:0001e178       ??$sub@$0N@$0N@@gfield@@QAEAAU0@ABU?$bigint@$0N@@@0@Z 0041f178 f i crypto.obj
 0001:0001e1b5       ??$mul@$0N@$0N@@gfield@@QAEAAU0@ABU?$bigint@$0N@@@0@Z 0041f1b5 f i crypto.obj
 0001:0001e1d9       ??$add@$0N@$0N@@gfield@@QAEAAU0@ABU?$bigint@$0N@@@0@Z 0041f1d9 f i crypto.obj
 0001:0001e201       ??$sub@$0EA@$0EA@@?$bigint@$0EA@@@QAEAAU0@ABU0@0@Z 0041f201 f i crypto.obj
 0001:0001e2e4       ??$mul@$0M@@ecjacobian@@QAEXU?$bigint@$0M@@@@Z 0041f2e4 f i crypto.obj
 0001:0001e316       ??$?8$0N@@?$bigint@$0N@@@QBE_NABU0@@Z 0041f316 f i crypto.obj
 0001:0001e340       ??$mul@$0N@@ecjacobian@@QAEXU?$bigint@$0N@@@@Z 0041f340 f i crypto.obj
 0001:0001e3a1       ??$rshift@$0N@@?$bigint@$0N@@@QAEAAU0@ABU0@H@Z 0041f3a1 f i crypto.obj
 0001:0001e468       ??$rshift@$0EA@@?$bigint@$0EA@@@QAEAAU0@ABU0@H@Z 0041f468 f i crypto.obj
 0001:0001e536       ??$lshift@$0EA@@?$bigint@$0EA@@@QAEAAU0@ABU0@H@Z 0041f536 f i crypto.obj
 0001:0001e5f4       ?numbits@?$bigint@$0N@@@QBEHXZ 0041f5f4 f i crypto.obj
 0001:0001e5f4       ?numbits@?$bigint@$0EA@@@QBEHXZ 0041f5f4 f i crypto.obj
 0001:0001e627       ??$mul@$0N@$0N@@?$bigint@$0BK@@@QAEAAU0@ABU?$bigint@$0N@@@0@Z 0041f627 f i crypto.obj
 0001:0001e6f0       ??$reduce@$0BK@@gfield@@QAEXABU?$bigint@$0BK@@@@Z 0041f6f0 f i crypto.obj
 0001:0001e8b8       ??$add@$0N@$0N@@?$bigint@$0N@@@QAEAAU0@ABU0@0@Z 0041f8b8 f i crypto.obj
 0001:0001e8b8       ??$add@$0EA@$0EA@@?$bigint@$0EA@@@QAEAAU0@ABU0@0@Z 0041f8b8 f i crypto.obj
 0001:0001e8b8       ??$add@$0N@$00@?$bigint@$0N@@@QAEAAU0@ABU0@ABU?$bigint@$00@@@Z 0041f8b8 f i crypto.obj
 0001:0001e95d       ??$pow@$0N@$00@gfield@@QAEAAU0@ABU?$bigint@$0N@@@ABU?$bigint@$00@@@Z 0041f95d f i crypto.obj
 0001:0001ea0b       ??$mul@$0M@@ecjacobian@@QAEXABU0@U?$bigint@$0M@@@@Z 0041fa0b f i crypto.obj
 0001:0001ea99       ??$sub@$0N@$00@?$bigint@$0N@@@QAEAAU0@ABU0@ABU?$bigint@$00@@@Z 0041fa99 f i crypto.obj
 0001:0001eb66       ?putint@@YAXAAU?$databuf@E@@H@Z 0041fb66 f   server.obj
 0001:0001ebf3       ?getint@@YAHAAU?$databuf@E@@@Z 0041fbf3 f   server.obj
 0001:0001ec58       ?putuint@@YAXAAU?$databuf@E@@H@Z 0041fc58 f   server.obj
 0001:0001ecf0       ?getuint@@YAHAAU?$databuf@E@@@Z 0041fcf0 f   server.obj
 0001:0001ed59       ?sendstring@@YAXPBDAAU?$databuf@E@@@Z 0041fd59 f   server.obj
 0001:0001ed7a       ?getstring@@YAXPADAAU?$databuf@E@@H@Z 0041fd7a f   server.obj
 0001:0001edae       ?sendfile@@YAXHHPAU_iobuf@@@Z 0041fdae f   server.obj
 0001:0001ee67       ?getinfo@@YAPAXH@Z         0041fe67 f   server.obj
 0001:0001ee8b       ?getclientip@@YAIH@Z       0041fe8b f   server.obj
 0001:0001eeaf       ?sendpacket@@YAXHHPAU_ENetPacket@@@Z 0041feaf f   server.obj
 0001:0001eeee       ?sendf@@YAXHHPBDZZ         0041feee f   server.obj
 0001:0001effb       ?disconnect_client@@YAXHH@Z 0041fffb f   server.obj
 0001:0001f095       ?process@@YAXPAU_ENetPacket@@HH@Z 00420095 f   server.obj
 0001:0001f0e4       ?send_welcome@@YAXH@Z      004200e4 f   server.obj
 0001:0001f156       ?addclient@@YAAAUclient@@XZ 00420156 f   server.obj
 0001:0001f23f       ?sendpongs@@YAXXZ          0042023f f   server.obj
 0001:0001f2f1       ?httpgetsend@@YAXAAU_ENetAddress@@PAD111@Z 004202f1 f   server.obj
 0001:0001f3d2       ?httpgetreceive@@YAXAAUENetBuffer@@@Z 004203d2 f   server.obj
 0001:0001f436       ?stripheader@@YAPAEPAE@Z   00420436 f   server.obj
 0001:0001f45d       ?checkmasterreply@@YAXXZ   0042045d f   server.obj
 0001:0001f4a3       ?retrieveservers@@YAPAEPAEH@Z 004204a3 f   server.obj
 0001:0001f525       ?serverslice@@YAXHI@Z      00420525 f   server.obj
 0001:0001f796       ?cleanupserver@@YAXXZ      00420796 f   server.obj
 0001:0001f7a8       ?localdisconnect@@YAXXZ    004207a8 f   server.obj
 0001:0001f7e2       ?localconnect@@YAXXZ       004207e2 f   server.obj
 0001:0001f819       ?registergame@@YAXPADPAUigame@@@Z 00420819 f   server.obj
 0001:0001f876       ?initgame@@YAXPAD@Z        00420876 f   server.obj
 0001:0001f8ee       ?initserver@@YAX_N@Z       004208ee f   server.obj
 0001:0001fa94       ?serveroption@@YA_NPAD@Z   00420a94 f   server.obj
 0001:0001fb37       ?get@?$databuf@E@@QAEABEXZ 00420b37 f i server.obj
 0001:0001fb52       ?put@?$databuf@E@@QAEXABE@Z 00420b52 f i server.obj
 0001:0001fb6c       ?resolverloop@@YAHPAX@Z    00420b6c f   serverbrowser.obj
 0001:0001fc97       ?resolverinit@@YAXXZ       00420c97 f   serverbrowser.obj
 0001:0001fd4e       ?resolverstop@@YAXAAUresolverthread@@@Z 00420d4e f   serverbrowser.obj
 0001:0001fd8c       ?resolverclear@@YAXXZ      00420d8c f   serverbrowser.obj
 0001:0001fdf8       ?resolverquery@@YAXPBD@Z   00420df8 f   serverbrowser.obj
 0001:0001fe35       ?resolvercheck@@YA_NPAPBDPAU_ENetAddress@@@Z 00420e35 f   serverbrowser.obj
 0001:0001fed2       ?resolverwait@@YA_NPBDPAU_ENetAddress@@@Z 00420ed2 f   serverbrowser.obj
 0001:00020093       ?addserver@@YAXPAD@Z       00421093 f   serverbrowser.obj
 0001:00020119       ?pingservers@@YAXXZ        00421119 f   serverbrowser.obj
 0001:000201db       ?checkresolver@@YAXXZ      004211db f   serverbrowser.obj
 0001:000202b0       ?checkpings@@YAXXZ         004212b0 f   serverbrowser.obj
 0001:00020421       ?sicompare@@YAHPAUserverinfo@@0@Z 00421421 f   serverbrowser.obj
 0001:000204b7       ?refreshservers@@YAXXZ     004214b7 f   serverbrowser.obj
 0001:000205c0       ?showservers@@YAPBDPAUg3d_gui@@@Z 004215c0 f   serverbrowser.obj
 0001:00020631       ?updatefrommaster@@YAXXZ   00421631 f   serverbrowser.obj
 0001:0002069a       ?writeservercfg@@YAXXZ     0042169a f   serverbrowser.obj
 0001:00020702       ?add@?$vector@PBD@@QAEAAPBDABQBD@Z 00421702 f i serverbrowser.obj
 0001:00020745       ?add@?$vector@Userverinfo@@@@QAEAAUserverinfo@@XZ 00421745 f i serverbrowser.obj
 0001:000207b7       ?setsize@?$vector@Userverinfo@@@@QAEXH@Z 004217b7 f i serverbrowser.obj
 0001:000207fc       ?vrealloc@?$vector@PBD@@QAEXXZ 004217fc f i serverbrowser.obj
 0001:00020849       ?vrealloc@?$vector@Uresolverresult@@@@QAEXXZ 00421849 f i serverbrowser.obj
 0001:00020896       ?vrealloc@?$vector@Userverinfo@@@@QAEXXZ 00421896 f i serverbrowser.obj
 0001:000208e9       _enet_malloc               004218e9 f   callbacks.obj
 0001:00020905       _enet_host_create          00421905 f   host.obj
 0001:00020a44       _enet_host_destroy         00421a44 f   host.obj
 0001:00020a8e       _enet_host_connect         00421a8e f   host.obj
 0001:00020c0f       _enet_host_broadcast       00421c0f f   host.obj
 0001:00020c62       _enet_host_bandwidth_throttle 00421c62 f   host.obj
 0001:00020f65       _enet_packet_create        00421f65 f   packet.obj
 0001:00020fba       _enet_packet_destroy       00421fba f   packet.obj
 0001:00020fde       _enet_packet_resize        00421fde f   packet.obj
 0001:0002101e       _enet_peer_throttle_configure 0042201e f   peer.obj
 0001:00021075       _enet_peer_throttle        00422075 f   peer.obj
 0001:000210ca       _enet_peer_send            004220ca f   peer.obj
 0001:0002122e       _enet_peer_receive         0042222e f   peer.obj
 0001:00021352       _enet_peer_reset_queues    00422352 f   peer.obj
 0001:000213ef       _enet_peer_reset           004223ef f   peer.obj
 0001:000214c3       _enet_peer_disconnect      004224c3 f   peer.obj
 0001:0002154d       _enet_peer_queue_acknowledgement 0042254d f   peer.obj
 0001:00021585       _enet_peer_queue_outgoing_command 00422585 f   peer.obj
 0001:00021678       _enet_peer_queue_incoming_command 00422678 f   peer.obj
 0001:00022fcb       _enet_host_flush           00423fcb f   protocol.obj
 0001:00022fe5       _enet_host_service         00423fe5 f   protocol.obj
 0001:00023165       _enet_initialize           00424165 f   win32.obj
 0001:000231aa       _enet_deinitialize         004241aa f   win32.obj
 0001:000231b8       _enet_time_get             004241b8 f   win32.obj
 0001:000231c5       _enet_address_set_host     004241c5 f   win32.obj
 0001:000231f8       _enet_address_get_host     004241f8 f   win32.obj
 0001:00023243       _enet_socket_create        00424243 f   win32.obj
 0001:00023352       _enet_socket_connect       00424352 f   win32.obj
 0001:0002339f       _enet_socket_send          0042439f f   win32.obj
 0001:0002340f       _enet_socket_receive       0042440f f   win32.obj
 0001:00023495       _enet_socket_wait          00424495 f   win32.obj
 0001:00023545       _atan2f                    00424545 f i 3dgui.obj
 0001:00023568       ??1g3d_gui@@UAE@XZ         00424568 f i 3dgui.obj
 0001:0002356f       ??_Gg3d_gui@@UAEPAXI@Z     0042456f f i 3dgui.obj
 0001:0002356f       ??_Eg3d_gui@@UAEPAXI@Z     0042456f f i  CIL library: CIL module
 0001:0002358c       ?autotab@gui@@QAEXXZ       0042458c f i 3dgui.obj
 0001:000235dc       ?visible@gui@@QAE_NXZ      004245dc f i 3dgui.obj
 0001:000235ff       ?tab@gui@@UAEXPBDH@Z       004245ff f i 3dgui.obj
 0001:0002378a       ?pushlist@gui@@UAEXXZ      0042478a f i 3dgui.obj
 0001:0002383e       ?poplist@gui@@UAEXXZ       0042483e f i 3dgui.obj
 0001:000238c6       ?text@gui@@UAEHPBDH0@Z     004248c6 f i 3dgui.obj
 0001:000238e8       ?button@gui@@UAEHPBDH0@Z   004248e8 f i 3dgui.obj
 0001:0002390a       ?title@gui@@UAEHPBDH0@Z    0042490a f i 3dgui.obj
 0001:0002392c       ?separator@gui@@UAEXXZ     0042492c f i 3dgui.obj
 0001:00023945       ?progress@gui@@UAEXM@Z     00424945 f i 3dgui.obj
 0001:00023962       ?strut@gui@@UAEXH@Z        00424962 f i 3dgui.obj
 0001:00023995       ?layout@gui@@QAEHHH@Z      00424995 f i 3dgui.obj
 0001:00023a1d       ?ishit@gui@@QAE_NHHHH@Z    00424a1d f i 3dgui.obj
 0001:00023a9e       ?image@gui@@UAEHPBDM_N@Z   00424a9e f i 3dgui.obj
 0001:00023b3c       ?slider@gui@@UAEXAAHHHH@Z  00424b3c f i 3dgui.obj
 0001:00023cc2       ?rect_@gui@@QAEXMMMMH@Z    00424cc2 f i 3dgui.obj
 0001:00023db4       ?text_@gui@@QAEXPBDHHH_N@Z 00424db4 f i 3dgui.obj
 0001:00023e00       ?icon_@gui@@QAEXPAUTexture@@_NHHH1@Z 00424e00 f i 3dgui.obj
 0001:00023fbb       ?line_@gui@@QAEXHM@Z       00424fbb f i 3dgui.obj
 0001:0002418f       ?button_@gui@@QAEHPBDH0_N1@Z 0042518f f i 3dgui.obj
 0001:000242c4       ?skin_@gui@@QAEXHHHHHH@Z   004252c4 f i 3dgui.obj
 0001:00024633       ?start@gui@@UAEXHMPAH_N@Z  00425633 f i 3dgui.obj
 0001:000248c1       ?end@gui@@UAEXXZ           004258c1 f i 3dgui.obj
 0001:00024b24       ?g3d_addgui@@YAXPAUg3d_callback@@AAUvec@@@Z 00425b24 f   3dgui.obj
 0001:00024b5b       ?g3d_sort@@YAHPAUgui@@0@Z  00425b5b f   3dgui.obj
 0001:00024b7e       ?g3d_windowhit@@YA_N_N0@Z  00425b7e f   3dgui.obj
 0001:00024bbb       ?g3d_render@@YAXXZ         00425bbb f   3dgui.obj
 0001:00024d26       ?add@?$vector@Ugui@@@@QAEAAUgui@@XZ 00425d26 f i 3dgui.obj
 0001:00024d95       ?setsize@?$vector@Ugui@@@@QAEXH@Z 00425d95 f i 3dgui.obj
 0001:00024dbd       ??_Egui@@UAEPAXI@Z         00425dbd f i  CIL library: CIL module
 0001:00024dbd       ??_Ggui@@UAEPAXI@Z         00425dbd f i 3dgui.obj
 0001:00024df6       ?vrealloc@?$vector@Ulist@gui@@@@QAEXXZ 00425df6 f i 3dgui.obj
 0001:00024e43       ?vrealloc@?$vector@Ugui@@@@QAEXXZ 00425e43 f i 3dgui.obj
 0001:00024e90       ?s_strcat@@YAPADPADPBD@Z   00425e90 f i renderextras.obj
 0001:00024eb1       ?writetgaheader@@YAXPAU_iobuf@@PAUSDL_Surface@@H@Z 00425eb1 f   renderextras.obj
 0001:00024ef9       ?flipnormalmapy@@YAXPAD0@Z 00425ef9 f   renderextras.obj
 0001:00024fa7       ?mergenormalmaps@@YAXPAD0@Z 00425fa7 f   renderextras.obj
 0001:000251d9       ?render2dbox@@YAXAAUvec@@MMM@Z 004261d9 f   renderextras.obj
 0001:0002528b       ?render3dbox@@YAXAAUvec@@MMMM@Z 0042628b f   renderextras.obj
 0001:000253e2       ?blendbox@@YAXHHHH_N@Z     004263e2 f   renderextras.obj
 0001:000254ff       ?renderspheres@@YAXH@Z     004264ff f   renderextras.obj
 0001:000257a8       ?entname@@YAPADAAUentity@@@Z 004267a8 f   renderextras.obj
 0001:00025803       ?renderents@@YAXXZ         00426803 f   renderextras.obj
 0001:00025992       ?aimat@@YAXXZ              00426992 f   renderextras.obj
 0001:00025a9b       ?gl_drawhud@@YAXHHHHH_N@Z  00426a9b f   renderextras.obj
 0001:0002607b       ?add@?$vector@Usphere@@@@QAEAAUsphere@@ABU2@@Z 0042707b f i renderextras.obj
 0001:000260c2       ?remove@?$vector@Usphere@@@@QAE?AUsphere@@H@Z 004270c2 f i renderextras.obj
 0001:00026112       ?vrealloc@?$vector@Usphere@@@@QAEXXZ 00427112 f i renderextras.obj
 0001:0002615f       ?newstring@@YAPADPBDI@Z    0042715f f i rendergl.obj
 0001:0002617a       ?lookupshaderbyname@@YAPAUShader@@PBD@Z 0042717a f   rendergl.obj
 0001:00026188       ?compileshader@@YAXHAAIPAD11@Z 00427188 f   rendergl.obj
 0001:0002623e       ?shader@@YAXPAHPAD11@Z     0042723e f   rendergl.obj
 0001:00026306       ?setshader@@YAXPAD@Z       00427306 f   rendergl.obj
 0001:0002633d       ?fastshader@@YAXPAD0PAH@Z  0042733d f   rendergl.obj
 0001:0002638c       ?setshaderparam@@YAXHHMMMM@Z 0042738c f   rendergl.obj
 0001:00026415       ?setvertexparam@@YAXPAHPAM111@Z 00427415 f   rendergl.obj
 0001:00026451       ?setpixelparam@@YAXPAHPAM111@Z 00427451 f   rendergl.obj
 0001:0002648e       ?gl_init@@YAXHHHHH@Z       0042748e f   rendergl.obj
 0001:00026b95       ?texrotate@@YAPAUSDL_Surface@@PAU1@HH@Z 00427b95 f   rendergl.obj
 0001:00026d10       ?texoffset@@YAPAUSDL_Surface@@PAU1@HH@Z 00427d10 f   rendergl.obj
 0001:00026e19       ?createtexture@@YAXHHHPAX_N1II@Z 00427e19 f   rendergl.obj
 0001:00027199       ?textureload@@YAPAUTexture@@PBD_N11@Z 00428199 f   rendergl.obj
 0001:00027206       ?cubemapfromsky@@YAIH@Z    00428206 f   rendergl.obj
 0001:000272f7       ?cleangl@@YAXXZ            004282f7 f   rendergl.obj
 0001:0002737d       ?settexture@@YAXPBD@Z      0042837d f   rendergl.obj
 0001:0002739e       ??0Slot@@QAE@XZ            0042839e f i rendergl.obj
 0001:000273e8       ??1Slot@@QAE@XZ            004283e8 f i rendergl.obj
 0001:00027436       ?texturereset@@YAXXZ       00428436 f   rendergl.obj
 0001:00027442       ?materialreset@@YAXXZ      00428442 f   rendergl.obj
 0001:0002746c       ?findshaderparam@@YAPAUShaderParam@@AAUSlot@@HH@Z 0042846c f   rendergl.obj
 0001:000274ae       ?texture@@YAXPAD0PAH11@Z   004284ae f   rendergl.obj
 0001:00027f69       ?lookuptexture@@YAAAUSlot@@H_N@Z 00428f69 f   rendergl.obj
 0001:00028002       ?var_wireframe@@YAXXZ      00429002 f   rendergl.obj
 0001:00028016       ?transplayer@@YAXXZ        00429016 f   rendergl.obj
 0001:000280ea       ?drawskylimits@@YAX_NM@Z   004290ea f   rendergl.obj
 0001:00028143       ?drawskyoutline@@YAXXZ     00429143 f   rendergl.obj
 0001:000281dd       ?drawskybox@@YAXH_NM@Z     004291dd f   rendergl.obj
 0001:000283c5       ?limitsky@@YA_NXZ          004293c5 f   rendergl.obj
 0001:00028423       ?setfullscreenshader@@YAXPADPAH111@Z 00429423 f   rendergl.obj
 0001:0002851f       ?renderfsquad@@YAXHHPAUShader@@@Z 0042951f f   rendergl.obj
 0001:000285d8       ?renderfullscreenshader@@YAXHH@Z 004295d8 f   rendergl.obj
 0001:00028869       ?isthirdperson@@YA_NXZ     00429869 f   rendergl.obj
 0001:000288a1       ?recomputecamera@@YAXXZ    004298a1 f   rendergl.obj
 0001:00028999       ?project@@YAXMMH@Z         00429999 f   rendergl.obj
 0001:000289df       ?genclipmatrix@@YAXMMMMQAM@Z 004299df f   rendergl.obj
 0001:00028aec       ?setclipmatrix@@YAXQAM@Z   00429aec f   rendergl.obj
 0001:00028b13       ?undoclipmatrix@@YAXXZ     00429b13 f   rendergl.obj
 0001:00028b30       ?setfogplane@@YAXMM@Z      00429b30 f   rendergl.obj
 0001:00028b78       ?drawreflection@@YAXM_N0@Z 00429b78 f   rendergl.obj
 0001:0002919d       ?drawcubemap@@YAXHABUvec@@MM@Z 0042a19d f   rendergl.obj
 0001:00029369       ?gl_drawframe@@YAXHHM@Z    0042a369 f   rendergl.obj
 0001:00029693       ??0?$vector@UShaderParam@@@@QAE@XZ 0042a693 f i rendergl.obj
 0001:000296ae       ?add@?$vector@UShaderParam@@@@QAEAAUShaderParam@@ABU2@@Z 0042a6ae f i rendergl.obj
 0001:000296e5       ?add@?$vector@USlot@@@@QAEAAUSlot@@XZ 0042a6e5 f i rendergl.obj
 0001:00029743       ?setsize@?$vector@USlot@@@@QAEXH@Z 0042a743 f i rendergl.obj
 0001:00029765       ?vrealloc@?$vector@UShaderParam@@@@QAEXXZ 0042a765 f i rendergl.obj
 0001:000297ab       ?find@?$hashtable@PBDUShader@@@@QAEPAUchain@1@ABQBD_N@Z 0042a7ab f i rendergl.obj
 0001:0002980a       ?find@?$hashtable@PADUTexture@@@@QAEPAUchain@1@ABQAD_N@Z 0042a80a f i rendergl.obj
 0001:000298bd       ?vrealloc@?$vector@USlot@@@@QAEXXZ 0042a8bd f i rendergl.obj
 0001:0002990a       ?insert@?$hashtable@PBDUShader@@@@QAEPAUchain@1@ABQBDI@Z 0042a90a f i rendergl.obj
 0001:000299b4       ??0chain@?$hashtable@PBDUShader@@@@QAE@XZ 0042a9b4 f i rendergl.obj
 0001:000299e2       ??1chain@?$hashtable@PBDUShader@@@@QAE@XZ 0042a9e2 f i rendergl.obj
 0001:00029a06       ??1Shader@@QAE@XZ          0042aa06 f i rendergl.obj
 0001:00029a39       ?rotate_around_z@vec@@QAEXM@Z 0042aa39 f i rendermodel.obj
 0001:00029a9f       ?rotate_around_y@vec@@QAEXM@Z 0042aa9f f i rendermodel.obj
 0001:00029b05       ??1model@@UAE@XZ           0042ab05 f i rendermodel.obj
 0001:00029b21       ?setshader@model@@QAEXXZ   0042ab21 f i rendermodel.obj
 0001:00029cb5       ??_Gmodel@@UAEPAXI@Z       0042acb5 f i rendermodel.obj
 0001:00029cb5       ??_Emodel@@UAEPAXI@Z       0042acb5 f i  CIL library: CIL module
 0001:00029cd1       ?link@triangle@tristrip@@QAE_NGG@Z 0042acd1 f i rendermodel.obj
 0001:00029d0f       ?addtriangles@tristrip@@QAEXPBGH@Z 0042ad0f f i rendermodel.obj
 0001:00029ded       ?findconnectivity@tristrip@@QAEXXZ 0042aded f i rendermodel.obj
 0001:0002a00e       ?removeconnectivity@tristrip@@QAEXG@Z 0042b00e f i rendermodel.obj
 0001:0002a0be       ?findedge@tristrip@@QAEHABUtriangle@1@0G@Z 0042b0be f i rendermodel.obj
 0001:0002a0ef       ?nexttriangle@tristrip@@QAEGAAUtriangle@1@AA_NGG@Z 0042b0ef f i rendermodel.obj
 0001:0002a234       ?buildstrip@tristrip@@QAEXAAU?$vector@G@@_N@Z 0042b234 f i rendermodel.obj
 0001:0002a3d2       ?buildstrips@tristrip@@QAEXAAU?$vector@G@@_N1@Z 0042b3d2 f i rendermodel.obj
 0001:0002a528       ?setframes@anpos@vertmodel@@QAEXABUanimstate@@@Z 0042b528 f i rendermodel.obj
 0001:0002a5d7       ??0mesh@vertmodel@@QAE@XZ  0042b5d7 f i rendermodel.obj
 0001:0002a604       ??1mesh@vertmodel@@QAE@XZ  0042b604 f i rendermodel.obj
 0001:0002a695       ?genva@mesh@vertmodel@@QAEX_N@Z 0042b695 f i rendermodel.obj
 0001:0002aa0c       ?calcbb@mesh@vertmodel@@QAEXHAAUvec@@0QAM@Z 0042ba0c f i rendermodel.obj
 0001:0002aabe       ?gentris@mesh@vertmodel@@QAEXHAAU?$vector@Utriangle@@@@QAM@Z 0042babe f i rendermodel.obj
 0001:0002ac3f       ?gendynverts@mesh@vertmodel@@QAEXAAUanpos@2@PAU32@M@Z 0042bc3f f i rendermodel.obj
 0001:0002aedc       ?bindskin@mesh@vertmodel@@QAEXXZ 0042bedc f i rendermodel.obj
 0001:0002af87       ?render@mesh@vertmodel@@QAEXAAUanimstate@@AAUanpos@2@PAU42@M@Z 0042bf87 f i rendermodel.obj
 0001:0002b142       ??0tag@vertmodel@@QAE@XZ   0042c142 f i rendermodel.obj
 0001:0002b148       ??1tag@vertmodel@@QAE@XZ   0042c148 f i rendermodel.obj
 0001:0002b15d       ??0part@vertmodel@@QAE@XZ  0042c15d f i rendermodel.obj
 0001:0002b1b1       ??1part@vertmodel@@UAE@XZ  0042c1b1 f i rendermodel.obj
 0001:0002b26f       ?link@part@vertmodel@@QAE_NPAU12@PBD@Z 0042c26f f i rendermodel.obj
 0001:0002b2ad       ?scaleverts@part@vertmodel@@QAEXMABUvec@@@Z 0042c2ad f i rendermodel.obj
 0001:0002b380       ?calctransform@part@vertmodel@@QAEXAAUtag@2@QAM1@Z 0042c380 f i rendermodel.obj
 0001:0002b3fc       ?calcbb@part@vertmodel@@QAEXHAAUvec@@0QAM@Z 0042c3fc f i rendermodel.obj
 0001:0002b481       ?gentris@part@vertmodel@@QAEXHAAU?$vector@Utriangle@@@@QAM@Z 0042c481 f i rendermodel.obj
 0001:0002b500       ?getdefaultanim@part@vertmodel@@UAEXAAUanimstate@@HHM@Z 0042c500 f i rendermodel.obj
 0001:0002b519       ?calcanimstate@part@vertmodel@@QAE_NHHMHPAUdynent@@AAUanimstate@@@Z 0042c519 f i rendermodel.obj
 0001:0002b6d6       ?render@part@vertmodel@@QAEXHHMHPAUdynent@@@Z 0042c6d6 f i rendermodel.obj
 0001:0002bb20       ?setanim@part@vertmodel@@QAEXHHHM@Z 0042cb20 f i rendermodel.obj
 0001:0002bbe9       ??0vertmodel@@QAE@PBD@Z    0042cbe9 f i rendermodel.obj
 0001:0002bca2       ??1vertmodel@@UAE@XZ       0042cca2 f i rendermodel.obj
 0001:0002bd19       ?name@vertmodel@@UAEPADXZ  0042cd19 f i rendermodel.obj
 0001:0002bd1d       ?gentris@vertmodel@@QAEXHAAU?$vector@Utriangle@@@@@Z 0042cd1d f i rendermodel.obj
 0001:0002bd72       ?setspheretree@vertmodel@@UAEPAUSphereTree@@XZ 0042cd72 f i rendermodel.obj
 0001:0002bdea       ?setskin@vertmodel@@UAEXH@Z 0042cdea f i rendermodel.obj
 0001:0002be38       ?calcbb@vertmodel@@UAEXHAAUvec@@0@Z 0042ce38 f i rendermodel.obj
 0001:0002bf42       ??1tristrip@@QAE@XZ        0042cf42 f i rendermodel.obj
 0001:0002bf9b       ??_Epart@vertmodel@@UAEPAXI@Z 0042cf9b f i  CIL library: CIL module
 0001:0002bf9b       ??_Gpart@vertmodel@@UAEPAXI@Z 0042cf9b f i rendermodel.obj
 0001:0002bfb7       ??_Evertmodel@@UAEPAXI@Z   0042cfb7 f i  CIL library: CIL module
 0001:0002bfb7       ??_Gvertmodel@@UAEPAXI@Z   0042cfb7 f i rendermodel.obj
 0001:0002bfd4       ?gentcverts@md2part@md2@@QAEXPAHAAU?$vector@Utcvert@vertmodel@@@@AAU?$vector@Utri@vertmodel@@@@@Z 0042cfd4 f i rendermodel.obj
 0001:0002c243       ?load@md2part@md2@@QAE_NPAD@Z 0042d243 f i rendermodel.obj
 0001:0002c5f8       ?getdefaultanim@md2part@md2@@UAEXAAUanimstate@@HHM@Z 0042d5f8 f i rendermodel.obj
 0001:0002c653       ?render@md2@@UAEXHHMHMMMMMPAUdynent@@PAUmodel@@@Z 0042d653 f i rendermodel.obj
 0001:0002c760       ?load@md2@@UAE_NXZ         0042d760 f i rendermodel.obj
 0001:0002c99a       ??_Gmd2@@UAEPAXI@Z         0042d99a f i rendermodel.obj
 0001:0002c99a       ??_Gmd3@@UAEPAXI@Z         0042d99a f i rendermodel.obj
 0001:0002c99a       ??_Emd2@@UAEPAXI@Z         0042d99a f i  CIL library: CIL module
 0001:0002c99a       ??_Emd3@@UAEPAXI@Z         0042d99a f i  CIL library: CIL module
 0001:0002c9d3       ??_Gmd3part@md3@@UAEPAXI@Z 0042d9d3 f i rendermodel.obj
 0001:0002c9d3       ??_Emd2part@md2@@UAEPAXI@Z 0042d9d3 f i  CIL library: CIL module
 0001:0002c9d3       ??_Gmd2part@md2@@UAEPAXI@Z 0042d9d3 f i rendermodel.obj
 0001:0002c9d3       ??_Emd3part@md3@@UAEPAXI@Z 0042d9d3 f i  CIL library: CIL module
 0001:0002ca0b       ?md2anim@@YAXPADPAH10@Z    0042da0b f   rendermodel.obj
 0001:0002ca92       ?type@md3@@UAEHXZ          0042da92 f i rendermodel.obj
 0001:0002ca96       ?load@md3part@md3@@QAE_NPAD@Z 0042da96 f i rendermodel.obj
 0001:0002d0ac       ?render@md3@@UAEXHHMHMMMMMPAUdynent@@PAUmodel@@@Z 0042e0ac f i rendermodel.obj
 0001:0002d196       ?load@md3@@UAE_NXZ         0042e196 f i rendermodel.obj
 0001:0002d3db       ??0md3part@md3@@QAE@XZ     0042e3db f i rendermodel.obj
 0001:0002d40e       ?md3load@@YAXPAD@Z         0042e40e f   rendermodel.obj
 0001:0002d4d1       ?md3skin@@YAXPAD00@Z       0042e4d1 f   rendermodel.obj
 0001:0002d5d4       ?md3anim@@YAXPADPAH10@Z    0042e5d4 f   rendermodel.obj
 0001:0002d661       ?md3link@@YAXPAH0PAD@Z     0042e661 f   rendermodel.obj
 0001:0002d6d8       ?mdlcullface@@YAXPAH@Z     0042e6d8 f   rendermodel.obj
 0001:0002d6fb       ?mdlcollide@@YAXPAH@Z      0042e6fb f   rendermodel.obj
 0001:0002d71e       ?mdlspec@@YAXPAH@Z         0042e71e f   rendermodel.obj
 0001:0002d765       ?mdlambient@@YAXPAH@Z      0042e765 f   rendermodel.obj
 0001:0002d7b0       ?mdlshader@@YAXPAD@Z       0042e7b0 f   rendermodel.obj
 0001:0002d7d9       ?mdlscale@@YAXPAH@Z        0042e7d9 f   rendermodel.obj
 0001:0002d824       ?mdltrans@@YAXPAM00@Z      0042e824 f   rendermodel.obj
 0001:0002d867       ?mdlshadow@@YAXPAH@Z       0042e867 f   rendermodel.obj
 0001:0002d88a       ?mdlbb@@YAXPAM00@Z         0042e88a f   rendermodel.obj
 0001:0002d8bb       ?mdlname@@YAXXZ            0042e8bb f   rendermodel.obj
 0001:0002d8de       ?mmodel@@YAXPADPAH@Z       0042e8de f   rendermodel.obj
 0001:0002d928       ?mapmodelcompat@@YAXPAH00PAD1@Z 0042e928 f   rendermodel.obj
 0001:0002d938       ?mapmodelreset@@YAXXZ      0042e938 f   rendermodel.obj
 0001:0002d94a       ?getmminfo@@YAAAUmapmodelinfo@@H@Z 0042e94a f   rendermodel.obj
 0001:0002d966       ?loadmodel@@YAPAUmodel@@PBDH@Z 0042e966 f   rendermodel.obj
 0001:0002dabb       ?modeloccluded@@YA_NABUvec@@M@Z 0042eabb f   rendermodel.obj
 0001:0002db39       ?rendermodel@@YAXAAUvec@@0PBDHHHMMMMMMHPAUdynent@@H1@Z 0042eb39 f   rendermodel.obj
 0001:0002df95       ?findanim@@YAHPBD@Z        0042ef95 f   rendermodel.obj
 0001:0002e029       ?loadskin@@YAXPBD0AAPAUTexture@@1PAUmodel@@@Z 0042f029 f   rendermodel.obj
 0001:0002e234       ?renderclient@@YAXPAUdynent@@PBD1_NHH@Z 0042f234 f   rendermodel.obj
 0001:0002e3e7       ?setbbfrommodel@@YAXPAUdynent@@PAD@Z 0042f3e7 f   rendermodel.obj
 0001:0002e488       ?vectoyawpitch@@YAXABUvec@@AAM1@Z 0042f488 f   rendermodel.obj
 0001:0002e4fc       ?replacewithlast@?$vector@G@@QAEXABG@Z 0042f4fc f i rendermodel.obj
 0001:0002e53b       ??1?$hashtable@Uedge@tristrip@@G@@QAE@XZ 0042f53b f i rendermodel.obj
 0001:0002e53b       ??1?$hashtable@Usortkey@@Usortval@@@@QAE@XZ 0042f53b f i octarender.obj
 0001:0002e53b       ??1?$hashtable@Uivec@@H@@QAE@XZ 0042f53b f i rendermodel.obj
 0001:0002e53b       ??1?$hashtable@PADPAD@@QAE@XZ 0042f53b f i menus.obj
 0001:0002e54e       ??1?$vector@Ubaseinfo@capturestate@fpsserver@@@@QAE@XZ 0042f54e f i fps.obj
 0001:0002e54e       ??1?$vector@Uufval@unionfind@@@@QAE@XZ 0042f54e f i water.obj
 0001:0002e54e       ??1?$vector@PAUworldstate@fpsserver@@@@QAE@XZ 0042f54e f i fps.obj
 0001:0002e54e       ??1?$vector@PAUoctaentities@@@@QAE@XZ 0042f54e f i octarender.obj
 0001:0002e54e       ??1?$vector@Usortkey@@@@QAE@XZ 0042f54e f i octarender.obj
 0001:0002e54e       ??1?$vector@M@@QAE@XZ      0042f54e f i water.obj
 0001:0002e54e       ??1?$vector@Utri@vertmodel@@@@QAE@XZ 0042f54e f i rendermodel.obj
 0001:0002e54e       ??1?$vector@Utcvert@vertmodel@@@@QAE@XZ 0042f54e f i rendermodel.obj
 0001:0002e54e       ??1?$vector@PAUfpsent@@@@QAE@XZ 0042f54e f i fps.obj
 0001:0002e54e       ??1?$vector@PAUphysent@@@@QAE@XZ 0042f54e f i physics.obj
 0001:0002e54e       ??1?$vector@Uvvert@vertmodel@@@@QAE@XZ 0042f54e f i rendermodel.obj
 0001:0002e54e       ??1?$vector@UTex@Slot@@@@QAE@XZ 0042f54e f i rendergl.obj
 0001:0002e54e       ??1?$vector@Ubaseinfo@capturestate@fpsclient@@@@QAE@XZ 0042f54e f i fps.obj
 0001:0002e54e       ??1?$vector@PAUmesh@vertmodel@@@@QAE@XZ 0042f54e f i rendermodel.obj
 0001:0002e54e       ??1?$vector@PAUmaterialsurface@@@@QAE@XZ 0042f54e f i water.obj
 0001:0002e54e       ??1?$vector@Unormal@@@@QAE@XZ 0042f54e f i normal.obj
 0001:0002e54e       ??1?$vector@Uteamscore@fpsserver@@@@QAE@XZ 0042f54e f i fps.obj
 0001:0002e54e       ??1?$vector@Uvotecount@fpsserver@@@@QAE@XZ 0042f54e f i fps.obj
 0001:0002e54e       ??1?$vector@E@@QAE@XZ      0042f54e f i crypto.obj
 0001:0002e54e       ??1?$vector@Utriangle@tristrip@@@@QAE@XZ 0042f54e f i rendermodel.obj
 0001:0002e54e       ??1?$vector@H@@QAE@XZ      0042f54e f i lightmap.obj
 0001:0002e54e       ??1?$vector@Uscore@capturestate@fpsclient@@@@QAE@XZ 0042f54e f i fps.obj
 0001:0002e54e       ??1?$vector@UShaderParam@@@@QAE@XZ 0042f54e f i rendergl.obj
 0001:0002e54e       ??1?$vector@Umaterialsurface@@@@QAE@XZ 0042f54e f i octarender.obj
 0001:0002e54e       ??1?$vector@PAUmonster@monsterset@fpsclient@@@@QAE@XZ 0042f54e f i fps.obj
 0001:0002e54e       ??1?$vector@PAUextentity@@@@QAE@XZ 0042f54e f i fps.obj
 0001:0002e54e       ??1?$vector@Uscore@capturestate@fpsserver@@@@QAE@XZ 0042f54e f i fps.obj
 0001:0002e54e       ??1?$vector@Userver_entity@fpsserver@@@@QAE@XZ 0042f54e f i fps.obj
 0001:0002e54e       ??1?$vector@PAUrpgobj@rpgclient@@@@QAE@XZ 0042f54e f i rpg.obj
 0001:0002e54e       ??1?$vector@Uteamscore@scoreboard@fpsclient@@@@QAE@XZ 0042f54e f i fps.obj
 0001:0002e54e       ??1?$vector@PAUrpgentity@rpgclient@@@@QAE@XZ 0042f54e f i rpg.obj
 0001:0002e54e       ??1?$vector@Uban@fpsserver@@@@QAE@XZ 0042f54e f i fps.obj
 0001:0002e54e       ??1?$vector@Utriangle@@@@QAE@XZ 0042f54e f i rendermodel.obj
 0001:0002e54e       ??1?$vector@PAUpart@vertmodel@@@@QAE@XZ 0042f54e f i rendermodel.obj
 0001:0002e54e       ??1?$vector@PAUbouncent@weaponstate@fpsclient@@@@QAE@XZ 0042f54e f i fps.obj
 0001:0002e54e       ??1?$vector@PAD@@QAE@XZ    0042f54e f i command.obj
 0001:0002e54e       ??1?$vector@Usavedscore@fpsserver@@@@QAE@XZ 0042f54e f i fps.obj
 0001:0002e562       ?find@?$hashtable@Uedge@tristrip@@G@@QAEPAUchain@1@ABUedge@tristrip@@_N@Z 0042f562 f i rendermodel.obj
 0001:0002e5ad       ?find@?$hashtable@Uivec@@H@@QAEPAUchain@1@ABUivec@@_N@Z 0042f5ad f i rendermodel.obj
 0001:0002e600       ?vrealloc@?$vector@Umapmodelinfo@@@@QAEXXZ 0042f600 f i rendermodel.obj
 0001:0002e653       ?find@?$hashtable@PBDPAUmodel@@@@QAEPAUchain@1@ABQBD_N@Z 0042f653 f i rendermodel.obj
 0001:0002e706       ?insert@?$hashtable@Uedge@tristrip@@G@@QAEPAUchain@1@ABUedge@tristrip@@I@Z 0042f706 f i rendermodel.obj
 0001:0002e77a       ?insert@?$hashtable@Uivec@@H@@QAEPAUchain@1@ABUivec@@I@Z 0042f77a f i rendermodel.obj
 0001:0002e7f3       ?particleinit@@YAXXZ       0042f7f3 f   renderparticles.obj
 0001:0002e87b       ?newparticle@@YAPAUparticle@@ABUvec@@0HH@Z 0042f87b f   renderparticles.obj
 0001:0002e90a       ?render_particles@@YAXH@Z  0042f90a f   renderparticles.obj
 0001:0002f1fc       ?particle_splash@@YAXHHHABUvec@@@Z 004301fc f   renderparticles.obj
 0001:0002f2fd       ?particle_trail@@YAXHHABUvec@@0@Z 004302fd f   renderparticles.obj
 0001:0002f3ec       ?particle_text@@YAXABUvec@@PADHH@Z 004303ec f   renderparticles.obj
 0001:0002f438       ?gettextres@@YAXAAH0@Z     00430438 f   rendertext.obj
 0001:0002f476       ?char_width@@YAHHH@Z       00430476 f   rendertext.obj
 0001:0002f4b2       ?text_width@@YAHPBDH@Z     004304b2 f   rendertext.obj
 0001:0002f4e4       ?draw_textf@@YAXPBDHHZZ    004304e4 f   rendertext.obj
 0001:0002f52a       ?draw_text@@YAXPBDHHHHHH@Z 0043052a f   rendertext.obj
 0001:0002f740       ?loadsky@@YAXPAD@Z         00430740 f   rendertext.obj
 0001:0002f7c4       ?draw_envbox_face@@YAXMMHHHMMHHHMMHHHMMHHHI@Z 004307c4 f   rendertext.obj
 0001:0002f86c       ?draw_envbox@@YAXHM@Z      0043086c f   rendertext.obj
 0001:0002faaa       ??1SphereTree@@UAE@XZ      00430aaa f i spheretree.obj
 0001:0002fab1       ?shellintersect@SphereTree@@QBE_NABUvec@@0M@Z 00430ab1 f i spheretree.obj
 0001:0002fb5f       ?intersect@SphereTree@@QBE_NABUvec@@0MAAM@Z 00430b5f f i spheretree.obj
 0001:0002fba0       ?sendpackets@rpgdummyserver@@UAE_NXZ 00430ba0 f i rpg.obj
 0001:0002fba0       ?isleaf@SphereTree@@UAE_NXZ 00430ba0 f i spheretree.obj
 0001:0002fba3       ??_GSphereTree@@UAEPAXI@Z  00430ba3 f i spheretree.obj
 0001:0002fba3       ??_ESphereTree@@UAEPAXI@Z  00430ba3 f i  CIL library: CIL module
 0001:0002fbc0       ??0SphereBranch@@QAE@PAUSphereTree@@0@Z 00430bc0 f i spheretree.obj
 0001:0002fcab       ?childintersect@SphereBranch@@UBE_NABUvec@@0MAAM@Z 00430cab f i spheretree.obj
 0001:0002fcf7       ??_ESphereBranch@@UAEPAXI@Z 00430cf7 f i  CIL library: CIL module
 0001:0002fcf7       ??_GSphereBranch@@UAEPAXI@Z 00430cf7 f i spheretree.obj
 0001:0002fee4       ??0SphereLeaf@@QAE@ABUtriangle@@@Z 00430ee4 f i spheretree.obj
 0001:0002fffd       ?childintersect@SphereLeaf@@UBE_NABUvec@@0MAAM@Z 00430ffd f i spheretree.obj
 0001:00030021       ??_GSphereLeaf@@UAEPAXI@Z  00431021 f i spheretree.obj
 0001:00030021       ??_ESphereLeaf@@UAEPAXI@Z  00431021 f i  CIL library: CIL module
 0001:0003005a       ?buildspheretree@@YAPAUSphereTree@@HPBUtriangle@@@Z 0043105a f   spheretree.obj
 0001:00030387       ?mmintersect@@YA_NABUextentity@@ABUvec@@1MHAAM@Z 00431387 f   spheretree.obj
 0001:00030491       ?compressfind@unionfind@@QAEHH@Z 00431491 f i water.obj
 0001:000304b0       ?unite@unionfind@@QAEXHH@Z 004314b0 f i water.obj
 0001:0003069d       ?rendervertwater@@YAXIHHHIPAUTexture@@@Z 0043169d f   water.obj
 0001:00030926       ?calcwatersubdiv@@YAIHHHI@Z 00431926 f   water.obj
 0001:00030a51       ?renderwaterlod@@YAIHHHIPAUTexture@@@Z 00431a51 f   water.obj
 0001:00030bda       ??1QuadNode@@QAE@XZ        00431bda f i water.obj
 0001:00030c04       ?insert@QuadNode@@QAEXHHH@Z 00431c04 f i water.obj
 0001:00030d15       ?genmatsurf@QuadNode@@QAEXEEHHHHAAPAUmaterialsurface@@@Z 00431d15 f i water.obj
 0001:00030d5c       ?genmatsurfs@QuadNode@@QAEXEEHAAPAUmaterialsurface@@@Z 00431d5c f i water.obj
 0001:00030dff       ?renderwaterfall@@YAXAAUmaterialsurface@@PAUTexture@@M@Z 00431dff f   water.obj
 0001:00030f10       ?var_reflectsize@@YAXXZ    00431f10 f   water.obj
 0001:00030f10       ?var_waterreflect@@YAXXZ   00431f10 f   water.obj
 0001:00030f10       ?var_waterrefract@@YAXXZ   00431f10 f   water.obj
 0001:00030f15       ?drawface@@YAXHHHHHHM_N@Z  00431f15 f   water.obj
 0001:00031036       ?watercolour@@YAXPAH00@Z   00432036 f   water.obj
 0001:00031058       ?setprojtexmatrix@@YAXAAUReflection@@@Z 00432058 f   water.obj
 0001:00031109       ??0Reflection@@QAE@XZ      00432109 f i water.obj
 0001:00031143       ??1Reflection@@QAE@XZ      00432143 f i water.obj
 0001:00031175       ?renderwater@@YAXXZ        00432175 f   water.obj
 0001:00031787       ?cleanreflections@@YAXXZ   00432787 f   water.obj
 0001:000317ff       ?addreflection@@YAXAAUmaterialsurface@@@Z 004327ff f   water.obj
 0001:00031b62       ?queryreflections@@YAXXZ   00432b62 f   water.obj
 0001:00031d8f       ?maskreflection@@YAXAAUReflection@@M_N@Z 00432d8f f   water.obj
 0001:00031f80       ?drawreflections@@YAXXZ    00432f80 f   water.obj
 0001:0003232a       ?sortmaterials@@YAXAAU?$vector@PAUmaterialsurface@@@@M_N@Z 0043332a f   water.obj
 0001:00032563       ?rendermatgrid@@YAXAAU?$vector@PAUmaterialsurface@@@@@Z 00433563 f   water.obj
 0001:0003260a       ?rendermaterials@@YAXM_N@Z 0043360a f   water.obj
 0001:00032c71       ?findmaterial@@YAHPBD@Z    00433c71 f   water.obj
 0001:00032c9f       ?visiblematerial@@YAHAAUcube@@HHHHH@Z 00433c9f f   water.obj
 0001:00032d2b       ?genmatsurfs@@YAXAAUcube@@HHHHAAU?$vector@Umaterialsurface@@@@@Z 00433d2b f   water.obj
 0001:00033042       ?optimizematsurfs@@YAHPAUmaterialsurface@@H@Z 00434042 f   water.obj
 0001:0003320d       ?var_envmapsize@@YAXXZ     0043420d f   water.obj
 0001:00033216       ?clearenvmaps@@YAXXZ       00434216 f   water.obj
 0001:00033271       ?genenvmap@@YAIABUvec@@@Z  00434271 f   water.obj
 0001:00033462       ?genenvmaps@@YAXXZ         00434462 f   water.obj
 0001:0003354e       ?closestenvmap@@YAIABUvec@@@Z 0043454e f   water.obj
 0001:000335c5       ?setupmaterials@@YAX_N@Z   004345c5 f   water.obj
 0001:00033aec       ??1unionfind@@QAE@XZ       00434aec f i water.obj
 0001:00033aec       ??1nval@@QAE@XZ            00434aec f i normal.obj
 0001:00033b1e       ?add@?$vector@Uenvmap@@@@QAEAAUenvmap@@XZ 00434b1e f i water.obj
 0001:00033b5f       ?vrealloc@?$vector@Uenvmap@@@@QAEXXZ 00434b5f f i water.obj
 0001:00033bac       ?itoa@@YAXPADH@Z           00434bac f   command.obj
 0001:00033bc9       ?exchangestr@@YAPADPADPBD@Z 00434bc9 f   command.obj
 0001:00033be8       ?clear_command@@YAXXZ      00434be8 f   command.obj
 0001:00033c78       ?clearoverrides@@YAXXZ     00434c78 f   command.obj
 0001:00033cf0       ?pusha@@YAXPAD0@Z          00434cf0 f   command.obj
 0001:00033dc0       ?push@@YAXPAD0@Z           00434dc0 f   command.obj
 0001:00033de0       ?pop@@YAXPAD@Z             00434de0 f   command.obj
 0001:00033e1f       ?aliasa@@YAXPAD0@Z         00434e1f f   command.obj
 0001:00033f05       ?alias@@YAXPAD0@Z          00434f05 f   command.obj
 0001:00033f28       ?variable@@YAHPADHHHPAHP6AXXZ_N@Z 00434f28 f   command.obj
 0001:00033fb2       ?setvar@@YAXPADH_N@Z       00434fb2 f   command.obj
 0001:00033fd2       ?getalias@@YAPBDPAD@Z      00434fd2 f   command.obj
 0001:00033ff2       ?addcommand@@YA_NPADP6AXXZ0@Z 00434ff2 f   command.obj
 0001:0003407a       ?addident@@YAXPADPAU?$tident@X@@@Z 0043507a f   command.obj
 0001:000340cf       ?parsemacro@@YAXAAPADHAAU?$vector@D@@@Z 004350cf f   command.obj
 0001:00034187       ?parseexp@@YAPADAAPADH@Z   00435187 f   command.obj
 0001:00034317       ?lookup@@YAPADPAD@Z        00435317 f   command.obj
 0001:00034381       ?parseword@@YAPADAAPAD@Z   00435381 f   command.obj
 0001:0003445c       ?conc@@YAPADPAPADH_N@Z     0043545c f   command.obj
 0001:000344dc       ?executeret@@YAPADPAD@Z    004354dc f   command.obj
 0001:000349ba       ?execute@@YAHPAD@Z         004359ba f   command.obj
 0001:000349e7       ??0filesval@@QAE@PBD0@Z    004359e7 f i command.obj
 0001:00034a41       ?addcomplete@@YAXPAD00@Z   00435a41 f   command.obj
 0001:00034b60       ?buildfilenames@@YAXPAUfilesval@@@Z 00435b60 f   command.obj
 0001:00034c1f       ?complete@@YAXPAD@Z        00435c1f f   command.obj
 0001:00034e88       ?execfile@@YA_NPAD@Z       00435e88 f   command.obj
 0001:00034ece       ?exec@@YAXPAD@Z            00435ece f   command.obj
 0001:00034eed       ?writecfg@@YAXXZ           00435eed f   command.obj
 0001:0003506b       ?intret@@YAXH@Z            0043606b f   command.obj
 0001:000350a4       ??0cmd_if@@QAE@XZ          004360a4 f i command.obj
 0001:0003511a       ?run@cmd_if@@UAEXPAPAD@Z   0043611a f i command.obj
 0001:0003513c       ??0cmd_loop@@QAE@XZ        0043613c f i command.obj
 0001:000351b2       ?run@cmd_loop@@UAEXPAPAD@Z 004361b2 f i command.obj
 0001:0003520b       ??0cmd_while@@QAE@XZ       0043620b f i command.obj
 0001:00035281       ?run@cmd_while@@UAEXPAPAD@Z 00436281 f i command.obj
 0001:000352a8       ?concat@@YAXPBD@Z          004362a8 f   command.obj
 0001:000352a8       ?result@@YAXPBD@Z          004362a8 f   command.obj
 0001:000352c2       ?concatword@@YAXPAPADPAH@Z 004362c2 f   command.obj
 0001:000352dd       ?format@@YAXPAPADPAH@Z     004362dd f   command.obj
 0001:00035395       ?listlen@@YAXPAD@Z         00436395 f   command.obj
 0001:000353fa       ?at@@YAXPADPAH@Z           004363fa f   command.obj
 0001:000354b6       ?getalias_@@YAXPAD@Z       004364b6 f   command.obj
 0001:000354c8       ?add@@YAXPAH0@Z            004364c8 f   command.obj
 0001:000354dc       ?mul@@YAXPAH0@Z            004364dc f   command.obj
 0001:000354f1       ?sub@@YAXPAH0@Z            004364f1 f   command.obj
 0001:00035505       ?divi@@YAXPAH0@Z           00436505 f   command.obj
 0001:00035524       ?mod@@YAXPAH0@Z            00436524 f   command.obj
 0001:00035543       ?equal@@YAXPAH0@Z          00436543 f   command.obj
 0001:0003555c       ?nequal@@YAXPAH0@Z         0043655c f   command.obj
 0001:00035575       ?lt@@YAXPAH0@Z             00436575 f   command.obj
 0001:0003558e       ?gt@@YAXPAH0@Z             0043658e f   command.obj
 0001:000355a7       ?lte@@YAXPAH0@Z            004365a7 f   command.obj
 0001:000355c0       ?gte@@YAXPAH0@Z            004365c0 f   command.obj
 0001:000355d9       ?xora@@YAXPAH0@Z           004365d9 f   command.obj
 0001:000355ed       ?nota@@YAXPAH@Z            004365ed f   command.obj
 0001:00035600       ?anda@@YAXPAD0@Z           00436600 f   command.obj
 0001:0003562b       ?ora@@YAXPAD0@Z            0043662b f   command.obj
 0001:00035652       ?rndn@@YAXPAH@Z            00436652 f   command.obj
 0001:00035673       ?strcmpa@@YAXPAD0@Z        00436673 f   command.obj
 0001:0003568f       ??0cmd_echo@@QAE@XZ        0043668f f i command.obj
 0001:00035705       ?run@cmd_echo@@UAEXPAPAD@Z 00436705 f i command.obj
 0001:0003571a       ?strstra@@YAXPAD0@Z        0043671a f   command.obj
 0001:0003573f       ??0?$tident@X@@QAE@HPADHHHPAHPAX_N@Z 0043673f f i command.obj
 0001:0003577e       ??0?$hashtable@PADPAD@@QAE@H@Z 0043677e f i menus.obj
 0001:0003577e       ??0?$hashtable@PADU?$tident@X@@@@QAE@H@Z 0043677e f i command.obj
 0001:0003577e       ??0?$hashtable@Uivec@@H@@QAE@H@Z 0043677e f i rendermodel.obj
 0001:0003577e       ??0?$hashtable@PADPAUigame@@@@QAE@H@Z 0043677e f i server.obj
 0001:000357bf       ?access@?$hashtable@PADU?$tident@X@@@@QAEPAU?$tident@X@@ABQADPBU2@@Z 004367bf f i command.obj
 0001:0003583a       ?clear@?$hashtable@PADU?$tident@X@@@@QAEXXZ 0043683a f i command.obj
 0001:000358ae       ?add@?$vector@U?$vector@D@@@@QAEAAU?$vector@D@@XZ 004368ae f i command.obj
 0001:0003590c       ??1chain@?$hashtable@PADU?$tident@X@@@@QAE@XZ 0043690c f i command.obj
 0001:00035930       ?vrealloc@?$vector@U?$vector@D@@@@QAEXXZ 00436930 f i command.obj
 0001:0003597d       ?find@?$hashtable@Ufileskey@@PAUfilesval@@@@QAEPAUchain@1@ABUfileskey@@_N@Z 0043697d f i command.obj
 0001:000359fc       ?find@?$hashtable@PADPAUfilesval@@@@QAEPAUchain@1@ABQAD_N@Z 004369fc f i command.obj
 0001:00035aaf       ?insert@?$hashtable@PADU?$tident@X@@@@QAEPAUchain@1@ABQADI@Z 00436aaf f i command.obj
 0001:00035b49       ?insert@?$hashtable@Ufileskey@@PAUfilesval@@@@QAEPAUchain@1@ABUfileskey@@I@Z 00436b49 f i command.obj
 0001:00035bd0       ??0chain@?$hashtable@PADU?$tident@X@@@@QAE@XZ 00436bd0 f i command.obj
 0001:00035bf6       ?setconskip@@YAXPAH@Z      00436bf6 f   console.obj
 0001:00035c0c       ?conline@@YAXPBD_N@Z       00436c0c f   console.obj
 0001:00035c93       ?conoutf@@YAXPBDZZ         00436c93 f   console.obj
 0001:00035d8a       ?toggleconsole@@YAXXZ      00436d8a f   console.obj
 0001:00035d9a       ?rendercommand@@YAXHH@Z    00436d9a f   console.obj
 0001:00035e18       ?renderconsole@@YAHHH@Z    00436e18 f   console.obj
 0001:00035f82       ?keymap@@YAXPAD0@Z         00436f82 f   console.obj
 0001:0003600e       ?bindkey@@YAXPAD0_N@Z      0043700e f   console.obj
 0001:000360da       ?bindnorm@@YAXPAD0@Z       004370da f   console.obj
 0001:000360ee       ?bindedit@@YAXPAD0@Z       004370ee f   console.obj
 0001:00036102       ?saycommand@@YAXPAD@Z      00437102 f   console.obj
 0001:0003614c       ?mapmsg@@YAXPAD@Z          0043714c f   console.obj
 0001:0003616b       ?pasteconsole@@YAXXZ       0043716b f   console.obj
 0001:000361b0       ?history@@YAXPAH@Z         004371b0 f   console.obj
 0001:000361ed       ?addreleaseaction@@YAPBDPBD@Z 004371ed f   console.obj
 0001:00036248       ?onrelease@@YAXPAD@Z       00437248 f   console.obj
 0001:0003624d       ?keypress@@YAXH_NH@Z       0043724d f   console.obj
 0001:0003667f       ?writebinds@@YAXPAU_iobuf@@@Z 0043767f f   console.obj
 0001:000366e6       ?insert@?$vector@Ucline@@@@QAEAAUcline@@HABU2@@Z 004376e6 f i console.obj
 0001:00036766       ?setsize@?$vector@Ukeym@@@@QAEXH@Z 00437766 f i console.obj
 0001:000367bb       ?vrealloc@?$vector@Ukeym@@@@QAEXXZ 004377bb f i console.obj
 0001:00036808       ?vrealloc@?$vector@Ureleaseaction@@@@QAEXXZ 00437808 f i console.obj
 0001:00036855       ?vrealloc@?$vector@Ucline@@@@QAEXXZ 00437855 f i console.obj
 0001:000368a2       ?quit@@YAXXZ               004378a2 f   main.obj
 0001:00036963       ?fatal@@YAXPAD0@Z          00437963 f   main.obj
 0001:000369bb       ?screenshot@@YAXXZ         004379bb f   main.obj
 0001:00036ada       ?computescreen@@YAXPBD@Z   00437ada f   main.obj
 0001:00036d3e       ?bar@@YAXMHHMMM@Z          00437d3e f   main.obj
 0001:00036dbc       ?show_out_of_renderloop_progress@@YAXMPBDM0@Z 00437dbc f   main.obj
 0001:00036fbc       ?screenres@@YAXPAH00@Z     00437fbc f   main.obj
 0001:00036fc8       ?var_fullscreen@@YAXXZ     00437fc8 f   main.obj
 0001:00036fff       ?var_gamma@@YAXXZ          00437fff f   main.obj
 0001:00037055       ?keyrepeat@@YAX_N@Z        00438055 f   main.obj
 0001:00037069       ?var_gamespeed@@YAXXZ      00438069 f   main.obj
 0001:00037080       ?addsleep@@YAXPAHPAD@Z     00438080 f   main.obj
 0001:000370ce       ?checksleep@@YAXH@Z        004380ce f   main.obj
 0001:00037133       ?var_paused@@YAXXZ         00438133 f   main.obj
 0001:00037147       ?estartmap@@YAXPBD@Z       00438147 f   main.obj
 0001:000371b8       ?stackdumper@@YAXIPAU_EXCEPTION_POINTERS@@@Z 004381b8 f   main.obj
 0001:000373b5       _SDL_main                  004383b5 f   main.obj
 0001:00037af3       ?vrealloc@?$vector@Usleepcmd@@@@QAEXXZ 00438af3 f i main.obj
 0001:00037b40       ??1g3d_callback@@UAE@XZ    00438b40 f i menus.obj
 0001:00037b47       ??_Gg3d_callback@@UAEPAXI@Z 00438b47 f i menus.obj
 0001:00037b47       ??_Eg3d_callback@@UAEPAXI@Z 00438b47 f i  CIL library: CIL module
 0001:00037b64       ?menuinfrontofplayer@@YA?AUvec@@XZ 00438b64 f   menus.obj
 0001:00037bd0       ?cleargui@@YAHH@Z          00438bd0 f   menus.obj
 0001:00037c21       ?cleargui_@@YAXPAH@Z       00438c21 f   menus.obj
 0001:00037c34       ?guibutton@@YAXPAD00@Z     00438c34 f   menus.obj
 0001:00037cd7       ?guiimage@@YAXPAD0PAMPAH@Z 00438cd7 f   menus.obj
 0001:00037d36       ?guitext@@YAXPAD@Z         00438d36 f   menus.obj
 0001:00037d54       ?guititle@@YAXPAD@Z        00438d54 f   menus.obj
 0001:00037d6f       ?guitab@@YAXPAD@Z          00438d6f f   menus.obj
 0001:00037d88       ?guibar@@YAXXZ             00438d88 f   menus.obj
 0001:00037e79       ?guislider@@YAXPADPAH10@Z  00438e79 f   menus.obj
 0001:00037f21       ?guicheckbox@@YAXPAD0PAH10@Z 00438f21 f   menus.obj
 0001:00037f8f       ?guiradio@@YAXPAD0PAH0@Z   00438f8f f   menus.obj
 0001:00037fe6       ?guilist@@YAXPAD@Z         00438fe6 f   menus.obj
 0001:0003800b       ?newgui@@YAXPAD0@Z         0043900b f   menus.obj
 0001:0003808a       ?showgui@@YAXPAD@Z         0043908a f   menus.obj
 0001:0003814f       ?guiservers@@YAXXZ         0043914f f   menus.obj
 0001:000381b7       ?gui@mainmenucallback@@UAEXAAUg3d_gui@@_N@Z 004391b7 f i menus.obj
 0001:00038235       ??_Emainmenucallback@@UAEPAXI@Z 00439235 f i  CIL library: CIL module
 0001:00038235       ??_Gmainmenucallback@@UAEPAXI@Z 00439235 f i menus.obj
 0001:0003826e       ?menuprocess@@YAXXZ        0043926e f   menus.obj
 0001:000382f5       ?find@?$hashtable@PADPAD@@QAEPAUchain@1@ABQAD_N@Z 004392f5 f i menus.obj
 0001:000382f5       ?find@?$hashtable@PADPAUigame@@@@QAEPAUchain@1@ABQAD_N@Z 004392f5 f i server.obj
 0001:0003839d       ??1sample@@QAE@XZ          0043939d f i sound.obj
 0001:000383ae       ?var_musicvol@@YAXXZ       004393ae f   sound.obj
 0001:000383d8       ?stopsound@@YAXXZ          004393d8 f   sound.obj
 0001:00038428       ?initsound@@YAXXZ          00439428 f   sound.obj
 0001:0003847a       ?musicdone@@YAXXZ          0043947a f   sound.obj
 0001:000384bb       ?music@@YAXPAD0@Z          004394bb f   sound.obj
 0001:00038582       ?findsound@@YAHPADH@Z      00439582 f   sound.obj
 0001:000385ec       ?registersound@@YAHPAD0@Z  004395ec f   sound.obj
 0001:00038606       ?updatechanvol@@YAXHPBUvec@@H@Z 00439606 f   sound.obj
 0001:00038702       ?playsound@@YAXHPBUvec@@@Z 00439702 f   sound.obj
 0001:00038853       ?playsoundname@@YAXPADPBUvec@@H@Z 00439853 f   sound.obj
 0001:0003886e       ?sound@@YAXPAH@Z           0043986e f   sound.obj
 0001:0003887d       ?clear@?$hashtable@PADUsample@@@@QAEXXZ 0043987d f i sound.obj
 0001:000388fa       ?add@?$vector@PAUsample@@@@QAEAAPAUsample@@ABQAU2@@Z 004398fa f i sound.obj
 0001:0003893d       ??1chain@?$hashtable@PADUsample@@@@QAE@XZ 0043993d f i sound.obj
 0001:0003896f       ?find@?$hashtable@PADUsample@@@@QAEPAUchain@1@ABQAD_N@Z 0043996f f i sound.obj
 0001:000389ce       ?vrealloc@?$vector@PAUsample@@@@QAEXXZ 004399ce f i sound.obj
 0001:00038a1b       ?insert@?$hashtable@PADUsample@@@@QAEPAUchain@1@ABQADI@Z 00439a1b f i sound.obj
 0001:00038ac5       ??0chain@?$hashtable@PADUsample@@@@QAE@XZ 00439ac5 f i sound.obj
 0001:00038ae8       ?raysphereintersect@@YA_NUvec@@MABU1@1AAM@Z 00439ae8 f   geom.obj
 0001:00038b7f       ?rayrectintersect@@YA_NABUivec@@0ABUvec@@1AAMAAH@Z 00439b7f f   geom.obj
 0001:00038cf8       ?intersect_plane_line@@YAHAAUvec@@0000@Z 00439cf8 f   geom.obj
 0001:00038e2c       ?path@@YAPADPAD@Z          00439e2c f   tools.obj
 0001:00038e55       ?parentdir@@YAPADPAD@Z     00439e55 f   tools.obj
 0001:00038e82       ?loadfile@@YAPADPADPAH@Z   00439e82 f   tools.obj
 0001:00038f11       ?reloadMT@@YAIXZ           00439f11 f   tools.obj
 0001:0003903e       ?randomMT@@YAIXZ           0043a03e f   tools.obj
 0001:00039080       ??0dynent@@QAE@XZ          0043a080 f i fps.obj
 0001:00039100       ?abovehead@dynent@@QAE?AUvec@@XZ 0043a100 f i fps.obj
 0001:00039149       ??1icliententities@@UAE@XZ 0043a149 f i fps.obj
 0001:00039150       ??_Eicliententities@@UAEPAXI@Z 0043a150 f i  CIL library: CIL module
 0001:00039150       ??_Gicliententities@@UAEPAXI@Z 0043a150 f i fps.obj
 0001:0003916d       ??1iclientcom@@UAE@XZ      0043a16d f i fps.obj
 0001:00039174       ?type@md2@@UAEHXZ          0043a174 f i rendermodel.obj
 0001:00039174       ?numdynents@rpgclient@@UAEHXZ 0043a174 f i rpg.obj
 0001:00039174       ?nbluehannels@iclientcom@@UAEHXZ 0043a174 f i fps.obj
 0001:00039178       ??_Eiclientcom@@UAEPAXI@Z  0043a178 f i  CIL library: CIL module
 0001:00039178       ??_Giclientcom@@UAEPAXI@Z  0043a178 f i fps.obj
 0001:00039195       ??1igameclient@@UAE@XZ     0043a195 f i fps.obj
 0001:0003919c       ??_Eigameclient@@UAEPAXI@Z 0043a19c f i  CIL library: CIL module
 0001:0003919c       ??_Gigameclient@@UAEPAXI@Z 0043a19c f i fps.obj
 0001:000391b9       ??1igameserver@@UAE@XZ     0043a1b9 f i fps.obj
 0001:000391c0       ??_Eigameserver@@UAEPAXI@Z 0043a1c0 f i  CIL library: CIL module
 0001:000391c0       ??_Gigameserver@@UAEPAXI@Z 0043a1c0 f i fps.obj
 0001:000391dd       ??1igame@@UAE@XZ           0043a1dd f i fps.obj
 0001:000391e4       ??_Gigame@@UAEPAXI@Z       0043a1e4 f i fps.obj
 0001:000391e4       ??_Eigame@@UAEPAXI@Z       0043a1e4 f i  CIL library: CIL module
 0001:00039201       ??0fpsent@@QAE@XZ          0043a201 f i fps.obj
 0001:00039278       ??1fpsent@@QAE@XZ          0043a278 f i fps.obj
 0001:00039288       ?respawn@fpsent@@QAEXXZ    0043a288 f i fps.obj
 0001:00039305       ?enter@baseinfo@capturestate@fpsserver@@QAE_NPBD@Z 0043a305 f i fps.obj
 0001:0003934e       ?occupy@baseinfo@capturestate@fpsserver@@QAEHPBDHH@Z 0043a34e f i fps.obj
 0001:000393c8       ?findscore@capturestate@fpsserver@@QAEAAUscore@12@PBD@Z 0043a3c8 f i fps.obj
 0001:000393c8       ?findscore@capturestate@fpsclient@@QAEAAUscore@12@PBD@Z 0043a3c8 f i fps.obj
 0001:00039470       ?addbase@capturestate@fpsserver@@QAEXABUvec@@@Z 0043a470 f i fps.obj
 0001:000394e5       ?insidebase@capturestate@fpsserver@@QAE_NABUbaseinfo@12@ABUvec@@@Z 0043a4e5 f i fps.obj
 0001:0003954a       ?stealbase@captureserv@fpsserver@@QAEXHPBD@Z 0043a54a f i fps.obj
 0001:000395e1       ?movebases@captureserv@fpsserver@@QAEXPBDABUvec@@1@Z 0043a5e1 f i fps.obj
 0001:000396ea       ?leavebases@captureserv@fpsserver@@QAEXPBDABUvec@@@Z 0043a6ea f i fps.obj
 0001:00039715       ?enterbases@captureserv@fpsserver@@QAEXPBDABUvec@@@Z 0043a715 f i fps.obj
 0001:00039740       ?addscore@captureserv@fpsserver@@QAEXPBDH@Z 0043a740 f i fps.obj
 0001:00039770       ?updatescores@captureserv@fpsserver@@QAEXH@Z 0043a770 f i fps.obj
 0001:0003985c       ?sendbaseinfo@captureserv@fpsserver@@QAEXH@Z 0043a85c f i fps.obj
 0001:00039893       ?initclient@captureserv@fpsserver@@QAEXAAU?$databuf@E@@@Z 0043a893 f i fps.obj
 0001:00039937       ?endcheck@captureserv@fpsserver@@QAEXXZ 0043a937 f i fps.obj
 0001:000399c8       ??0clientinfo@fpsserver@@QAE@XZ 0043a9c8 f i fps.obj
 0001:00039a12       ?mapchange@clientinfo@fpsserver@@QAEXXZ 0043aa12 f i fps.obj
 0001:00039a5a       ?reset@clientinfo@fpsserver@@QAEXXZ 0043aa5a f i fps.obj
 0001:00039a88       ??0fpsserver@@QAE@XZ       0043aa88 f i fps.obj
 0001:00039be7       ?newinfo@fpsserver@@UAEPAXXZ 0043abe7 f i fps.obj
 0001:00039c22       ?resetinfo@fpsserver@@UAEXPAX@Z 0043ac22 f i fps.obj
 0001:00039c2e       ?modestr@fpsserver@@SAPBDH@Z 0043ac2e f i fps.obj
 0001:00039c49       ?msgsizelookup@fpsserver@@SADH@Z 0043ac49 f i fps.obj
 0001:00039c6e       ?sendservmsg@fpsserver@@UAEXPBD@Z 0043ac6e f i fps.obj
 0001:00039c88       ?resetitems@fpsserver@@QAEXXZ 0043ac88 f i fps.obj
 0001:00039cc1       ?pickup@fpsserver@@QAEXHHH@Z 0043acc1 f i fps.obj
 0001:00039d48       ?vote@fpsserver@@QAEXPADHH@Z 0043ad48 f i fps.obj
 0001:00039e62       ?choosebestclient@fpsserver@@QAEPAUclientinfo@1@AAM@Z 0043ae62 f i fps.obj
 0001:00039edd       ?autoteam@fpsserver@@QAEXXZ 0043aedd f i fps.obj
 0001:0003a05c       ?chooseworstteam@fpsserver@@QAEPBDPBD@Z 0043b05c f i fps.obj
 0001:0003a26b       ?changemap@fpsserver@@QAEXPBDH@Z 0043b26b f i fps.obj
 0001:0003a35b       ?findscore@fpsserver@@QAEAAUclientscore@1@PAUclientinfo@1@_N@Z 0043b35b f i fps.obj
 0001:0003a490       ?checkvotes@fpsserver@@QAEX_N@Z 0043b490 f i fps.obj
 0001:0003a6b2       ?freecallback@fpsserver@@SAXPAU_ENetPacket@@@Z 0043b6b2 f i fps.obj
 0001:0003a6bb       ?cleanworldstate@fpsserver@@QAEXPAU_ENetPacket@@@Z 0043b6bb f i fps.obj
 0001:0003a741       ?buildworldstate@fpsserver@@QAE_NXZ 0043b741 f i fps.obj
 0001:0003ab16       ?sendpackets@fpsserver@@UAE_NXZ 0043bb16 f i fps.obj
 0001:0003ab5d       ?parsepacket@fpsserver@@UAEXHH_NAAU?$databuf@E@@@Z 0043bb5d f i fps.obj
 0001:0003b8f1       ?welcomepacket@fpsserver@@UAEHAAU?$databuf@E@@H@Z 0043c8f1 f i fps.obj
 0001:0003ba53       ?checkintermission@fpsserver@@QAEXXZ 0043ca53 f i fps.obj
 0001:0003bab7       ?serverupdate@fpsserver@@UAEXH@Z 0043cab7 f i fps.obj
 0001:0003bc34       ?serverinit@fpsserver@@UAEXPAD0@Z 0043cc34 f i fps.obj
 0001:0003bc72       ?setmaster@fpsserver@@QAEXPAUclientinfo@1@_NPBD@Z 0043cc72 f i fps.obj
 0001:0003bd07       ?localconnect@fpsserver@@UAEXH@Z 0043cd07 f i fps.obj
 0001:0003bd37       ?localdisconnect@fpsserver@@UAEXH@Z 0043cd37 f i fps.obj
 0001:0003bd83       ?clientconnect@fpsserver@@UAEHHI@Z 0043cd83 f i fps.obj
 0001:0003be1d       ?clientdisconnect@fpsserver@@UAEXH@Z 0043ce1d f i fps.obj
 0001:0003bef6       ?servername@fpsserver@@UAEPADXZ 0043cef6 f i fps.obj
 0001:0003befc       ?serverinfoport@fpsserver@@UAEHXZ 0043cefc f i fps.obj
 0001:0003bf02       ?serverport@fpsserver@@UAEHXZ 0043cf02 f i fps.obj
 0001:0003bf08       ?getdefaultmaster@fpsserver@@UAEPADXZ 0043cf08 f i fps.obj
 0001:0003bf0e       ?serverinforeply@fpsserver@@UAEXAAU?$databuf@E@@@Z 0043cf0e f i fps.obj
 0001:0003bf75       ?servercompatible@fpsserver@@UAE_NPAD00HABU?$vector@H@@H@Z 0043cf75 f i fps.obj
 0001:0003bf90       ?serverinfostr@fpsserver@@UAEXPADPBD11HABU?$vector@H@@H@Z 0043cf90 f i fps.obj
 0001:0003c088       ?receivefile@fpsserver@@QAEXHPAEH@Z 0043d088 f i fps.obj
 0001:0003c102       ??1capturestate@fpsclient@@QAE@XZ 0043d102 f i fps.obj
 0001:0003c102       ??1capturestate@fpsserver@@QAE@XZ 0043d102 f i fps.obj
 0001:0003c14f       ??_Efpsserver@@UAEPAXI@Z   0043d14f f i  CIL library: CIL module
 0001:0003c14f       ??_Gfpsserver@@UAEPAXI@Z   0043d14f f i fps.obj
 0001:0003c16c       ??1captureclient@fpsclient@@QAE@XZ 0043d16c f i fps.obj
 0001:0003c16c       ??1captureserv@fpsserver@@QAE@XZ 0043d16c f i fps.obj
 0001:0003c190       ??_Gworldstate@fpsserver@@QAEPAXI@Z 0043d190 f i fps.obj
 0001:0003c1ce       ??1fpsserver@@UAE@XZ       0043d1ce f i fps.obj
 0001:0003c28a       ??0var_maxdebris@weaponstate@fpsclient@@QAE@XZ 0043d28a f i fps.obj
 0001:0003c2fa       ??0weaponstate@fpsclient@@QAE@AAU1@@Z 0043d2fa f i fps.obj
 0001:0003c3ad       ?weaponswitch@weaponstate@fpsclient@@QAEXHHH@Z 0043d3ad f i fps.obj
 0001:0003c4e0       ?offsetray@weaponstate@fpsclient@@QAEXAAUvec@@0H0@Z 0043d4e0 f i fps.obj
 0001:0003c601       ?newbouncer@weaponstate@fpsclient@@QAEXABUvec@@0_NPAUfpsent@@HHH@Z 0043d601 f i fps.obj
 0001:0003c76d       ?bounceupdate@weaponstate@fpsclient@@QAEXH@Z 0043d76d f i fps.obj
 0001:0003c93b       ?projreset@weaponstate@fpsclient@@QAEXXZ 0043d93b f i fps.obj
 0001:0003c980       ?newprojectile@weaponstate@fpsclient@@QAEXABUvec@@0M_NPAUfpsent@@H@Z 0043d980 f i fps.obj
 0001:0003ca2b       ?spawnbouncer@weaponstate@fpsclient@@QAEXAAUvec@@0PAUfpsent@@H@Z 0043da2b f i fps.obj
 0001:0003cae5       ?superdamageeffect@weaponstate@fpsclient@@QAEXABUvec@@AAU3@PAUfpsent@@@Z 0043dae5 f i fps.obj
 0001:0003cb44       ?hit@weaponstate@fpsclient@@QAEXHHPAUfpsent@@0AAUvec@@_N@Z 0043db44 f i fps.obj
 0001:0003ccee       ?hitpush@weaponstate@fpsclient@@QAEXHHPAUfpsent@@0AAUvec@@1@Z 0043dcee f i fps.obj
 0001:0003cd3c       ?rocketdist@weaponstate@fpsclient@@QAEMPAUfpsent@@AAUvec@@1@Z 0043dd3c f i fps.obj
 0001:0003cd97       ?explode@weaponstate@fpsclient@@QAEX_NPAUfpsent@@AAUvec@@PAUdynent@@HH@Z 0043dd97 f i fps.obj
 0001:0003cf77       ?splash@weaponstate@fpsclient@@QAEXAAUprojectile@12@AAUvec@@PAUdynent@@H@Z 0043df77 f i fps.obj
 0001:0003cfc5       ?projdamage@weaponstate@fpsclient@@QAEXPAUfpsent@@AAUprojectile@12@AAUvec@@HH@Z 0043dfc5 f i fps.obj
 0001:0003d02d       ?moveprojectiles@weaponstate@fpsclient@@QAEXH@Z 0043e02d f i fps.obj
 0001:0003d286       ?hudgunorigin@weaponstate@fpsclient@@QAE?AUvec@@HABU3@0PAUfpsent@@@Z 0043e286 f i fps.obj
 0001:0003d3bc       ?shootv@weaponstate@fpsclient@@QAEXHAAUvec@@0PAUfpsent@@_N@Z 0043e3bc f i fps.obj
 0001:0003d5f8       ?intersectclosest@weaponstate@fpsclient@@QAEPAUfpsent@@AAUvec@@0AAHPAU3@@Z 0043e5f8 f i fps.obj
 0001:0003d68f       ?shorten@weaponstate@fpsclient@@QAEXAAUvec@@00@Z 0043e68f f i fps.obj
 0001:0003d6e9       ?raydamage@weaponstate@fpsclient@@QAEXAAUvec@@0PAUfpsent@@@Z 0043e6e9 f i fps.obj
 0001:0003d81e       ?shoot@weaponstate@fpsclient@@QAEXPAUfpsent@@AAUvec@@@Z 0043e81e f i fps.obj
 0001:0003dbc8       ?renderprojectiles@weaponstate@fpsclient@@QAEXXZ 0043ebc8 f i fps.obj
 0001:0003df1f       ??0monster@monsterset@fpsclient@@QAE@HHHHHPAU12@@Z 0043ef1f f i fps.obj
 0001:0003e0b1       ?enemylos@monster@monsterset@fpsclient@@QAE_NAAUvec@@@Z 0043f0b1 f i fps.obj
 0001:0003e12c       ?transition@monster@monsterset@fpsclient@@QAEXHHHH@Z 0043f12c f i fps.obj
 0001:0003e190       ?normalise@monster@monsterset@fpsclient@@QAEXM@Z 0043f190 f i fps.obj
 0001:0003e1e2       ?monsteraction@monster@monsterset@fpsclient@@QAEXH@Z 0043f1e2 f i fps.obj
 0001:0003e68e       ?monsterpain@monster@monsterset@fpsclient@@QAEXHPAUfpsent@@@Z 0043f68e f i fps.obj
 0001:0003e7ca       ??0var_skill@monsterset@fpsclient@@QAE@XZ 0043f7ca f i fps.obj
 0001:0003e83a       ?spawnmonster@monsterset@fpsclient@@QAEXXZ 0043f83a f i fps.obj
 0001:0003e8ce       ?monsterclear@monsterset@fpsclient@@QAEXH@Z 0043f8ce f i fps.obj
 0001:0003ea5b       ?endsp@monsterset@fpsclient@@QAEX_N@Z 0043fa5b f i fps.obj
 0001:0003ea92       ?monsterthink@monsterset@fpsclient@@QAEXHH@Z 0043fa92 f i fps.obj
 0001:0003ec16       ??0scoreboard@fpsclient@@QAE@AAU1@@Z 0043fc16 f i fps.obj
 0001:0003ec9c       ?showscores@scoreboard@fpsclient@@QAEX_N@Z 0043fc9c f i fps.obj
 0001:0003ecd5       ?teamscorecmp@scoreboard@fpsclient@@SAHPBUteamscore@12@0@Z 0043fcd5 f i fps.obj
 0001:0003ecf5       ?playersort@scoreboard@fpsclient@@SAHPAPBUfpsent@@0@Z 0043fcf5 f i fps.obj
 0001:0003ed17       ?gui@scoreboard@fpsclient@@UAEXAAUg3d_gui@@_N@Z 0043fd17 f i fps.obj
 0001:0003f173       ?rendergame@fpsrender@fpsclient@@QAEXAAU2@H@Z 00440173 f i fps.obj
 0001:0003f3fd       ?itemname@entities@fpsclient@@QAEPADH@Z 004403fd f i fps.obj
 0001:0003f41d       ?renderent@entities@fpsclient@@QAEXAAUextentity@@PBDMMHHHM@Z 0044041d f i fps.obj
 0001:0003f478       ?renderentities@entities@fpsclient@@QAEXXZ 00440478 f i fps.obj
 0001:0003f5e7       ?rumble@entities@fpsclient@@UAEXABUextentity@@@Z 004405e7 f i fps.obj
 0001:0003f5f7       ?trigger@entities@fpsclient@@UAEXAAUextentity@@@Z 004405f7 f i fps.obj
 0001:0003f617       ?repammo@entities@fpsclient@@QAEXH@Z 00440617 f i fps.obj
 0001:0003f63e       ?radditem@entities@fpsclient@@QAEXHAAH@Z 0044063e f i fps.obj
 0001:0003f672       ?realpickup@entities@fpsclient@@QAEXHPAUfpsent@@@Z 00440672 f i fps.obj
 0001:0003f7b2       ?additem@entities@fpsclient@@QAEXHAAHH@Z 004407b2 f i fps.obj
 0001:0003f80d       ?teleport@entities@fpsclient@@QAEXHPAUfpsent@@@Z 0044080d f i fps.obj
 0001:0003f8c5       ?pickup@entities@fpsclient@@QAEXHPAUfpsent@@@Z 004408c5 f i fps.obj
 0001:0003faf9       ?checkitems@entities@fpsclient@@QAEXXZ 00440af9 f i fps.obj
 0001:0003fbc2       ?checkquad@entities@fpsclient@@QAEXH@Z 00440bc2 f i fps.obj
 0001:0003fc1a       ?putitems@entities@fpsclient@@QAEXAAU?$databuf@E@@H@Z 00440c1a f i fps.obj
 0001:0003fc9b       ?newentity@entities@fpsclient@@UAEPAUextentity@@XZ 00440c9b f i fps.obj
 0001:0003fcd7       ?fixentity@entities@fpsclient@@UAEXAAUextentity@@@Z 00440cd7 f i fps.obj
 0001:0003fd0e       ?entnameinfo@entities@fpsclient@@UAEPBDAAUentity@@@Z 00440d0e f i fps.obj
 0001:0003fd16       ?entname@entities@fpsclient@@UAEPBDH@Z 00440d16 f i fps.obj
 0001:0003fd34       ?gameplayhud@rpgclient@@UAEXHH@Z 00440d34 f i rpg.obj
 0001:0003fd34       ?parsepacketclient@rpgdummycom@@UAEXHAAU?$databuf@E@@@Z 00440d34 f i rpg.obj
 0001:0003fd34       ?writeent@entities@fpsclient@@UAEXAAUentity@@PAD@Z 00440d34 f i fps.obj
 0001:0003fd34       ?worldhurts@rpgclient@@UAEXPAUphysent@@H@Z 00440d34 f i rpg.obj
 0001:0003fd34       ?serverinit@rpgdummyserver@@UAEXPAD0@Z 00440d34 f i rpg.obj
 0001:0003fd37       ?readent@entities@fpsclient@@UAEXAAUentity@@PAD@Z 00440d37 f i fps.obj
 0001:0003fd66       ?editent@entities@fpsclient@@UAEXH@Z 00440d66 f i fps.obj
 0001:0003fdef       ?dropheight@entities@fpsclient@@UAEMAAUentity@@@Z 00440def f i fps.obj
 0001:0003fe0b       ??0clientcom@fpsclient@@QAE@AAU1@@Z 00440e0b f i fps.obj
 0001:000401f7       ?nbluehannels@clientcom@fpsclient@@UAEHXZ 004411f7 f i fps.obj
 0001:000401fb       ?filtertext@clientcom@fpsclient@@SAXPADPBD_NH@Z 004411fb f i fps.obj
 0001:00040252       ?writeclientinfo@clientcom@fpsclient@@UAEXPAU_iobuf@@@Z 00441252 f i fps.obj
 0001:00040277       ?gameconnect@clientcom@fpsclient@@UAEX_N@Z 00441277 f i fps.obj
 0001:00040293       ?gamedisconnect@clientcom@fpsclient@@UAEXXZ 00441293 f i fps.obj
 0001:0004031c       ?allowedittoggle@clientcom@fpsclient@@UAE_NXZ 0044131c f i fps.obj
 0001:0004034e       ?parseplayer@clientcom@fpsclient@@QAEHPBD@Z 0044134e f i fps.obj
 0001:000403d8       ?addmsg@clientcom@fpsclient@@QAAXHPBDZZ 004413d8 f i fps.obj
 0001:000405a6       ?toserver@clientcom@fpsclient@@UAEXPAD@Z 004415a6 f i fps.obj
 0001:000405e2       ?sendpacketclient@clientcom@fpsclient@@UAEHAAU?$databuf@E@@AA_NPAUdynent@@@Z 004415e2 f i fps.obj
 0001:0004094a       ?updatepos@clientcom@fpsclient@@QAEXPAUfpsent@@@Z 0044194a f i fps.obj
 0001:00040a57       ?parsepositions@clientcom@fpsclient@@QAEXAAU?$databuf@E@@@Z 00441a57 f i fps.obj
 0001:00040c3a       ?parsepacketclient@clientcom@fpsclient@@UAEXHAAU?$databuf@E@@@Z 00441c3a f i fps.obj
 0001:00040c79       ?parsemessages@clientcom@fpsclient@@QAEXHPAUfpsent@@AAU?$databuf@E@@@Z 00441c79 f i fps.obj
 0001:00041d91       ?changemapserv@clientcom@fpsclient@@QAEXPBDH@Z 00442d91 f i fps.obj
 0001:00041e07       ?changemap@clientcom@fpsclient@@UAEXPBD@Z 00442e07 f i fps.obj
 0001:00041e38       ?receivefile@clientcom@fpsclient@@QAEXPAEH@Z 00442e38 f i fps.obj
 0001:00041f0c       ?sendmap@clientcom@fpsclient@@QAEXXZ 00442f0c f i fps.obj
 0001:0004200e       ?addbase@capturestate@fpsclient@@QAEXABUvec@@@Z 0044300e f i fps.obj
 0001:00042083       ?disttoenemy@capturestate@fpsclient@@QAEMAAUbaseinfo@12@@Z 00443083 f i fps.obj
 0001:00042104       ??0captureclient@fpsclient@@QAE@AAU1@@Z 00443104 f i fps.obj
 0001:000421b0       ?sendammo@captureclient@fpsclient@@QAEXXZ 004431b0 f i fps.obj
 0001:0004229e       ?recvammo@captureclient@fpsclient@@QAEXPAUfpsent@@HH@Z 0044329e f i fps.obj
 0001:0004230c       ?renderbases@captureclient@fpsclient@@QAEXXZ 0044330c f i fps.obj
 0001:000425a2       ?drawradar@captureclient@fpsclient@@QAEXMMM@Z 004435a2 f i fps.obj
 0001:00042648       ?drawblips@captureclient@fpsclient@@QAEXHHHH_N@Z 00443648 f i fps.obj
 0001:00042859       ?capturehud@captureclient@fpsclient@@QAEXHH@Z 00443859 f i fps.obj
 0001:00042a43       ?sendbases@captureclient@fpsclient@@QAEXAAU?$databuf@E@@@Z 00443a43 f i fps.obj
 0001:00042abc       ?setupbases@captureclient@fpsclient@@QAEXXZ 00443abc f i fps.obj
 0001:00042b09       ?updatebase@captureclient@fpsclient@@QAEXHPBD0H@Z 00443b09 f i fps.obj
 0001:00042b94       ?closesttoenemy@captureclient@fpsclient@@QAEHPBD_N@Z 00443b94 f i fps.obj
 0001:00042c45       ?pickspawn@captureclient@fpsclient@@QAEHPBD@Z 00443c45 f i fps.obj
 0001:00042cdd       ??0fpsclient@@QAE@XZ       00443cdd f i fps.obj
 0001:00042f39       ?getcom@fpsclient@@UAEPAUiclientcom@@XZ 00443f39 f i fps.obj
 0001:00042f40       ?getents@fpsclient@@UAEPAUicliententities@@XZ 00443f40 f i fps.obj
 0001:00042f47       ?getclientmap@fpsclient@@UAEPADXZ 00443f47 f i fps.obj
 0001:00042f4b       ?rendergame@fpsclient@@UAEXXZ 00443f4b f i fps.obj
 0001:00042f55       ?resetgamestate@fpsclient@@UAEXXZ 00443f55 f i fps.obj
 0001:00042fbf       ?spawnstate@fpsclient@@QAEPAUfpsent@@PAU2@@Z 00443fbf f i fps.obj
 0001:000430cc       ?arenacount@fpsclient@@QAEXPAUfpsent@@AAH1AAPADAA_N@Z 004440cc f i fps.obj
 0001:00043107       ?arenarespawn@fpsclient@@QAEXXZ 00444107 f i fps.obj
 0001:0004325d       ?otherplayers@fpsclient@@QAEXXZ 0044425d f i fps.obj
 0001:000432bb       ?updateworld@fpsclient@@UAEXAAUvec@@HH@Z 004442bb f i fps.obj
 0001:000433dd       ?spawnplayer@fpsclient@@QAEXPAUfpsent@@@Z 004443dd f i fps.obj
 0001:00043438       ?respawn@fpsclient@@QAEXXZ 00444438 f i fps.obj
 0001:00043559       ?doattack@fpsclient@@UAEX_N@Z 00444559 f i fps.obj
 0001:0004357d       ?canjump@fpsclient@@UAE_NXZ 0044457d f i fps.obj
 0001:000435a5       ?selfdamage@fpsclient@@QAEXHHPAUfpsent@@@Z 004445a5 f i fps.obj
 0001:00043869       ?timeupdate@fpsclient@@QAEXH@Z 00444869 f i fps.obj
 0001:00043a64       ?newclient@fpsclient@@QAEPAUfpsent@@H@Z 00444a64 f i fps.obj
 0001:00043b08       ?getclient@fpsclient@@QAEPAUfpsent@@H@Z 00444b08 f i fps.obj
 0001:00043b21       ?initclient@fpsclient@@UAEXXZ 00444b21 f i fps.obj
 0001:00043b26       ?startmap@fpsclient@@UAEXPBD@Z 00444b26 f i fps.obj
 0001:00043ce8       ?physicstrigger@fpsclient@@UAEXPAUphysent@@_NHH@Z 00444ce8 f i fps.obj
 0001:00043d66       ?playsoundc@fpsclient@@QAEXH@Z 00444d66 f i fps.obj
 0001:00043d8d       ?numdynents@fpsclient@@UAEHXZ 00444d8d f i fps.obj
 0001:00043d9e       ?iterdynents@fpsclient@@UAEPAUdynent@@H@Z 00444d9e f i fps.obj
 0001:00043ddb       ?worldhurts@fpsclient@@UAEXPAUphysent@@H@Z 00444ddb f i fps.obj
 0001:00043e0e       ?drawhudmodel@fpsclient@@QAEXHMH@Z 00444e0e f i fps.obj
 0001:00043eb0       ?drawhudgun@fpsclient@@UAEXXZ 00444eb0 f i fps.obj
 0001:00043f3e       ?drawicon@fpsclient@@QAEXMMHH@Z 00444f3e f i fps.obj
 0001:0004400a       ?drawrank@fpsclient@@QAEXMMHH@Z 0044500a f i fps.obj
 0001:000440db       ?gameplayhud@fpsclient@@UAEXHH@Z 004450db f i fps.obj
 0001:0004434b       ?newmap@fpsclient@@UAEXH@Z 0044534b f i fps.obj
 0001:00044368       ?edittrigger@fpsclient@@UAEXABUselinfo@@HHHH@Z 00445368 f i fps.obj
 0001:00044479       ?g3d_gamemenus@fpsclient@@UAEXXZ 00445479 f i fps.obj
 0001:00044492       ?gameident@fpsclient@@UAEPADXZ 00445492 f i fps.obj
 0001:00044498       ?run@cmd_weapon@?1???0weaponstate@fpsclient@@QAE@AAU3@@Z@UAEXPAPAD@Z 00445498 f   fps.obj
 0001:000444fe       ?run@cmd_showscores@?1???0scoreboard@fpsclient@@QAE@AAU3@@Z@UAEXPAPAD@Z 004454fe f   fps.obj
 0001:00044514       ?run@cmd_say@?1???0clientcom@fpsclient@@QAE@AAU3@@Z@UAEXPAPAD@Z 00445514 f   fps.obj
 0001:00044525       ?run@cmd_name@?2???0clientcom@fpsclient@@QAE@AAU3@@Z@UAEXPAPAD@Z 00445525 f   fps.obj
 0001:00044562       ?run@cmd_team@?3???0clientcom@fpsclient@@QAE@AAU3@@Z@UAEXPAPAD@Z 00445562 f   fps.obj
 0001:0004459f       ?run@cmd_map@?4???0clientcom@fpsclient@@QAE@AAU3@@Z@UAEXPAPAD@Z 0044559f f   fps.obj
 0001:000445b0       ?run@cmd_kick@?5???0clientcom@fpsclient@@QAE@AAU3@@Z@UAEXPAPAD@Z 004455b0 f   fps.obj
 0001:000445ea       ?run@cmd_spectator@?6???0clientcom@fpsclient@@QAE@AAU3@@Z@UAEXPAPAD@Z 004455ea f   fps.obj
 0001:0004463b       ?run@cmd_mastermode@?7???0clientcom@fpsclient@@QAE@AAU3@@Z@UAEXPAPAD@Z 0044563b f   fps.obj
 0001:0004466a       ?run@cmd_setmaster@?8???0clientcom@fpsclient@@QAE@AAU3@@Z@UAEXPAPAD@Z 0044566a f   fps.obj
 0001:000446c7       ?run@cmd_setteam@?9???0clientcom@fpsclient@@QAE@AAU3@@Z@UAEXPAPAD@Z 004456c7 f   fps.obj
 0001:00044707       ?run@cmd_getmap@?L@???0clientcom@fpsclient@@QAE@AAU3@@Z@UAEXPAPAD@Z 00445707 f   fps.obj
 0001:00044741       ?run@cmd_sendmap@?M@???0clientcom@fpsclient@@QAE@AAU3@@Z@UAEXPAPAD@Z 00445741 f   fps.obj
 0001:0004474c       ?run@cmd_repammo@?1???0captureclient@fpsclient@@QAE@AAU3@@Z@UAEXPAPAD@Z 0044574c f   fps.obj
 0001:00044757       ?run@cmd_mode@?1???0fpsclient@@QAE@XZ@UAEXPAPAD@Z 00445757 f   fps.obj
 0001:00044792       ?run@cmd_kill@?2???0fpsclient@@QAE@XZ@UAEXPAPAD@Z 00445792 f   fps.obj
 0001:000447b4       ??1cmd_weapon@?1???0weaponstate@fpsclient@@QAE@AAU2@@Z@UAE@XZ 004457b4 f i fps.obj
 0001:000447d9       ??1var_skill@monsterset@fpsclient@@UAE@XZ 004457d9 f i fps.obj
 0001:000447d9       ??1var_maxdebris@weaponstate@fpsclient@@UAE@XZ 004457d9 f i fps.obj
 0001:000447d9       ??1var_hudgun@fpsclient@@UAE@XZ 004457d9 f i fps.obj
 0001:000447fe       ??_Gvar_skill@monsterset@fpsclient@@UAEPAXI@Z 004457fe f i fps.obj
 0001:000447fe       ??_Evar_hudgun@fpsclient@@UAEPAXI@Z 004457fe f i  CIL library: CIL module
 0001:000447fe       ??_Gvar_maxdebris@weaponstate@fpsclient@@UAEPAXI@Z 004457fe f i fps.obj
 0001:000447fe       ??_Evar_maxdebris@weaponstate@fpsclient@@UAEPAXI@Z 004457fe f i  CIL library: CIL module
 0001:000447fe       ??_Gvar_hudgun@fpsclient@@UAEPAXI@Z 004457fe f i fps.obj
 0001:000447fe       ??_Evar_skill@monsterset@fpsclient@@UAEPAXI@Z 004457fe f i  CIL library: CIL module
 0001:0004481b       ??_Gscoreboard@fpsclient@@UAEPAXI@Z 0044581b f i fps.obj
 0001:0004481b       ??_Escoreboard@fpsclient@@UAEPAXI@Z 0044581b f i  CIL library: CIL module
 0001:00044838       ??1cmd_showscores@?1???0scoreboard@fpsclient@@QAE@AAU2@@Z@UAE@XZ 00445838 f i fps.obj
 0001:0004485d       ??_Eentities@fpsclient@@UAEPAXI@Z 0044585d f i  CIL library: CIL module
 0001:0004485d       ??_Gentities@fpsclient@@UAEPAXI@Z 0044585d f i fps.obj
 0001:0004487a       ??_Eclientcom@fpsclient@@UAEPAXI@Z 0044587a f i  CIL library: CIL module
 0001:0004487a       ??_Gclientcom@fpsclient@@UAEPAXI@Z 0044587a f i fps.obj
 0001:00044897       ??1cmd_map@?4???0clientcom@fpsclient@@QAE@AAU2@@Z@UAE@XZ 00445897 f i fps.obj
 0001:00044897       ??1cmd_name@?2???0clientcom@fpsclient@@QAE@AAU2@@Z@UAE@XZ 00445897 f i fps.obj
 0001:00044897       ??1cmd_setmaster@?8???0clientcom@fpsclient@@QAE@AAU2@@Z@UAE@XZ 00445897 f i fps.obj
 0001:00044897       ??1cmd_mastermode@?7???0clientcom@fpsclient@@QAE@AAU2@@Z@UAE@XZ 00445897 f i fps.obj
 0001:00044897       ??1cmd_spectator@?6???0clientcom@fpsclient@@QAE@AAU2@@Z@UAE@XZ 00445897 f i fps.obj
 0001:00044897       ??1cmd_getmap@?L@???0clientcom@fpsclient@@QAE@AAU2@@Z@UAE@XZ 00445897 f i fps.obj
 0001:00044897       ??1cmd_say@?1???0clientcom@fpsclient@@QAE@AAU2@@Z@UAE@XZ 00445897 f i fps.obj
 0001:00044897       ??1cmd_setteam@?9???0clientcom@fpsclient@@QAE@AAU2@@Z@UAE@XZ 00445897 f i fps.obj
 0001:00044897       ??1cmd_sendmap@?M@???0clientcom@fpsclient@@QAE@AAU2@@Z@UAE@XZ 00445897 f i fps.obj
 0001:00044897       ??1cmd_team@?3???0clientcom@fpsclient@@QAE@AAU2@@Z@UAE@XZ 00445897 f i fps.obj
 0001:00044897       ??1cmd_kick@?5???0clientcom@fpsclient@@QAE@AAU2@@Z@UAE@XZ 00445897 f i fps.obj
 0001:000448bc       ??1cmd_repammo@?1???0captureclient@fpsclient@@QAE@AAU2@@Z@UAE@XZ 004458bc f i fps.obj
 0001:000448e1       ??_Efpsclient@@UAEPAXI@Z   004458e1 f i  CIL library: CIL module
 0001:000448e1       ??_Gfpsclient@@UAEPAXI@Z   004458e1 f i fps.obj
 0001:000448fe       ??1weaponstate@fpsclient@@QAE@XZ 004458fe f i fps.obj
 0001:00044948       ??1monsterset@fpsclient@@QAE@XZ 00445948 f i fps.obj
 0001:0004498a       ??1scoreboard@fpsclient@@UAE@XZ 0044598a f i fps.obj
 0001:000449af       ??1entities@fpsclient@@UAE@XZ 004459af f i fps.obj
 0001:000449ee       ??1clientcom@fpsclient@@UAE@XZ 004459ee f i fps.obj
 0001:00044a21       ??1cmd_mode@?1???0fpsclient@@QAE@XZ@UAE@XZ 00445a21 f i fps.obj
 0001:00044a21       ??1cmd_kill@?2???0fpsclient@@QAE@XZ@UAE@XZ 00445a21 f i fps.obj
 0001:00044a46       ??_Gcmd_weapon@?1???0weaponstate@fpsclient@@QAE@AAU2@@Z@UAEPAXI@Z 00445a46 f i fps.obj
 0001:00044a46       ??_Ecmd_weapon@?1???0weaponstate@fpsclient@@QAE@AAU2@@Z@UAEPAXI@Z 00445a46 f i  CIL library: CIL module
 0001:00044a7f       ??_Gcmd_showscores@?1???0scoreboard@fpsclient@@QAE@AAU2@@Z@UAEPAXI@Z 00445a7f f i fps.obj
 0001:00044a7f       ??_Ecmd_showscores@?1???0scoreboard@fpsclient@@QAE@AAU2@@Z@UAEPAXI@Z 00445a7f f i  CIL library: CIL module
 0001:00044ab8       ??_Ecmd_getmap@?L@???0clientcom@fpsclient@@QAE@AAU2@@Z@UAEPAXI@Z 00445ab8 f i  CIL library: CIL module
 0001:00044ab8       ??_Ecmd_setmaster@?8???0clientcom@fpsclient@@QAE@AAU2@@Z@UAEPAXI@Z 00445ab8 f i  CIL library: CIL module
 0001:00044ab8       ??_Gcmd_name@?2???0clientcom@fpsclient@@QAE@AAU2@@Z@UAEPAXI@Z 00445ab8 f i fps.obj
 0001:00044ab8       ??_Gcmd_team@?3???0clientcom@fpsclient@@QAE@AAU2@@Z@UAEPAXI@Z 00445ab8 f i fps.obj
 0001:00044ab8       ??_Ecmd_kick@?5???0clientcom@fpsclient@@QAE@AAU2@@Z@UAEPAXI@Z 00445ab8 f i  CIL library: CIL module
 0001:00044ab8       ??_Ecmd_spectator@?6???0clientcom@fpsclient@@QAE@AAU2@@Z@UAEPAXI@Z 00445ab8 f i  CIL library: CIL module
 0001:00044ab8       ??_Ecmd_name@?2???0clientcom@fpsclient@@QAE@AAU2@@Z@UAEPAXI@Z 00445ab8 f i  CIL library: CIL module
 0001:00044ab8       ??_Gcmd_map@?4???0clientcom@fpsclient@@QAE@AAU2@@Z@UAEPAXI@Z 00445ab8 f i fps.obj
 0001:00044ab8       ??_Gcmd_say@?1???0clientcom@fpsclient@@QAE@AAU2@@Z@UAEPAXI@Z 00445ab8 f i fps.obj
 0001:00044ab8       ??_Ecmd_sendmap@?M@???0clientcom@fpsclient@@QAE@AAU2@@Z@UAEPAXI@Z 00445ab8 f i  CIL library: CIL module
 0001:00044ab8       ??_Ecmd_mastermode@?7???0clientcom@fpsclient@@QAE@AAU2@@Z@UAEPAXI@Z 00445ab8 f i  CIL library: CIL module
 0001:00044ab8       ??_Gcmd_getmap@?L@???0clientcom@fpsclient@@QAE@AAU2@@Z@UAEPAXI@Z 00445ab8 f i fps.obj
 0001:00044ab8       ??_Gcmd_setteam@?9???0clientcom@fpsclient@@QAE@AAU2@@Z@UAEPAXI@Z 00445ab8 f i fps.obj
 0001:00044ab8       ??_Gcmd_kick@?5???0clientcom@fpsclient@@QAE@AAU2@@Z@UAEPAXI@Z 00445ab8 f i fps.obj
 0001:00044ab8       ??_Ecmd_map@?4???0clientcom@fpsclient@@QAE@AAU2@@Z@UAEPAXI@Z 00445ab8 f i  CIL library: CIL module
 0001:00044ab8       ??_Gcmd_spectator@?6???0clientcom@fpsclient@@QAE@AAU2@@Z@UAEPAXI@Z 00445ab8 f i fps.obj
 0001:00044ab8       ??_Gcmd_sendmap@?M@???0clientcom@fpsclient@@QAE@AAU2@@Z@UAEPAXI@Z 00445ab8 f i fps.obj
 0001:00044ab8       ??_Gcmd_mastermode@?7???0clientcom@fpsclient@@QAE@AAU2@@Z@UAEPAXI@Z 00445ab8 f i fps.obj
 0001:00044ab8       ??_Ecmd_setteam@?9???0clientcom@fpsclient@@QAE@AAU2@@Z@UAEPAXI@Z 00445ab8 f i  CIL library: CIL module
 0001:00044ab8       ??_Gcmd_setmaster@?8???0clientcom@fpsclient@@QAE@AAU2@@Z@UAEPAXI@Z 00445ab8 f i fps.obj
 0001:00044ab8       ??_Ecmd_team@?3???0clientcom@fpsclient@@QAE@AAU2@@Z@UAEPAXI@Z 00445ab8 f i  CIL library: CIL module
 0001:00044ab8       ??_Ecmd_say@?1???0clientcom@fpsclient@@QAE@AAU2@@Z@UAEPAXI@Z 00445ab8 f i  CIL library: CIL module
 0001:00044af1       ??_Gcmd_repammo@?1???0captureclient@fpsclient@@QAE@AAU2@@Z@UAEPAXI@Z 00445af1 f i fps.obj
 0001:00044af1       ??_Ecmd_repammo@?1???0captureclient@fpsclient@@QAE@AAU2@@Z@UAEPAXI@Z 00445af1 f i  CIL library: CIL module
 0001:00044b2a       ??_Ecmd_kill@?2???0fpsclient@@QAE@XZ@UAEPAXI@Z 00445b2a f i  CIL library: CIL module
 0001:00044b2a       ??_Gcmd_mode@?1???0fpsclient@@QAE@XZ@UAEPAXI@Z 00445b2a f i fps.obj
 0001:00044b2a       ??_Ecmd_mode@?1???0fpsclient@@QAE@XZ@UAEPAXI@Z 00445b2a f i  CIL library: CIL module
 0001:00044b2a       ??_Gcmd_kill@?2???0fpsclient@@QAE@XZ@UAEPAXI@Z 00445b2a f i fps.obj
 0001:00044b63       ??1fpsclient@@UAE@XZ       00445b63 f i fps.obj
 0001:00044c2b       ?newclient@fpsgame@@UAEPAUigameclient@@XZ 00445c2b f i fps.obj
 0001:00044c66       ?newserver@fpsgame@@UAEPAUigameserver@@XZ 00445c66 f i fps.obj
 0001:00044ca1       ??0?$vector@PAUclientinfo@fpsserver@@@@QAE@XZ 00445ca1 f i fps.obj
 0001:00044ca1       ??0?$vector@PAUvtxarray@@@@QAE@XZ 00445ca1 f i octarender.obj
 0001:00044cbd       ?removeobj@?$vector@PAUclientinfo@fpsserver@@@@QAEXABQAUclientinfo@fpsserver@@@Z 00445cbd f i fps.obj
 0001:00044d05       ??1?$tident@Uweaponstate@fpsclient@@@@UAE@XZ 00445d05 f i fps.obj
 0001:00044d0c       ??1?$tident@Uscoreboard@fpsclient@@@@UAE@XZ 00445d0c f i fps.obj
 0001:00044d13       ??1?$tident@Uclientcom@fpsclient@@@@UAE@XZ 00445d13 f i fps.obj
 0001:00044d1a       ??1?$tident@Ucaptureclient@fpsclient@@@@UAE@XZ 00445d1a f i fps.obj
 0001:00044d21       ??1?$tident@Ufpsclient@@@@UAE@XZ 00445d21 f i fps.obj
 0001:00044d28       ??_G?$tident@Uweaponstate@fpsclient@@@@UAEPAXI@Z 00445d28 f i fps.obj
 0001:00044d28       ??_E?$tident@Uweaponstate@fpsclient@@@@UAEPAXI@Z 00445d28 f i  CIL library: CIL module
 0001:00044d45       ??_G?$tident@Uscoreboard@fpsclient@@@@UAEPAXI@Z 00445d45 f i fps.obj
 0001:00044d45       ??_E?$tident@Uscoreboard@fpsclient@@@@UAEPAXI@Z 00445d45 f i  CIL library: CIL module
 0001:00044d62       ??_G?$tident@Uclientcom@fpsclient@@@@UAEPAXI@Z 00445d62 f i fps.obj
 0001:00044d62       ??_E?$tident@Uclientcom@fpsclient@@@@UAEPAXI@Z 00445d62 f i  CIL library: CIL module
 0001:00044d7f       ??_G?$tident@Ucaptureclient@fpsclient@@@@UAEPAXI@Z 00445d7f f i fps.obj
 0001:00044d7f       ??_E?$tident@Ucaptureclient@fpsclient@@@@UAEPAXI@Z 00445d7f f i  CIL library: CIL module
 0001:00044d9c       ??_G?$tident@Ufpsclient@@@@UAEPAXI@Z 00445d9c f i fps.obj
 0001:00044d9c       ??_E?$tident@Ufpsclient@@@@UAEPAXI@Z 00445d9c f i  CIL library: CIL module
 0001:00044db9       ?vrealloc@?$vector@Ubaseinfo@capturestate@fpsserver@@@@QAEXXZ 00445db9 f i fps.obj
 0001:00044e05       ?vrealloc@?$vector@Usavedscore@fpsserver@@@@QAEXXZ 00445e05 f i fps.obj
 0001:00044e51       ?vrealloc@?$vector@PBUentity@@@@QAEXXZ 00445e51 f i lightmap.obj
 0001:00044e51       ?vrealloc@?$vector@PAUextentity@@@@QAEXXZ 00445e51 f i cubeloader.obj
 0001:00044e51       ?vrealloc@?$vector@PAUmaterialsurface@@@@QAEXXZ 00445e51 f i water.obj
 0001:00044e51       ?vrealloc@?$vector@PAUphysent@@@@QAEXXZ 00445e51 f i physics.obj
 0001:00044e51       ?vrealloc@?$vector@PAUpart@vertmodel@@@@QAEXXZ 00445e51 f i rendermodel.obj
 0001:00044e51       ?vrealloc@?$vector@PAUbouncent@weaponstate@fpsclient@@@@QAEXXZ 00445e51 f i fps.obj
 0001:00044e51       ?vrealloc@?$vector@PAUoctaentities@@@@QAEXXZ 00445e51 f i octarender.obj
 0001:00044e51       ?vrealloc@?$vector@PAUmonster@monsterset@fpsclient@@@@QAEXXZ 00445e51 f i fps.obj
 0001:00044e51       ?vrealloc@?$vector@H@@QAEXXZ 00445e51 f i lightmap.obj
 0001:00044e51       ?vrealloc@?$vector@PAD@@QAEXXZ 00445e51 f i command.obj
 0001:00044e51       ?vrealloc@?$vector@PAUmesh@vertmodel@@@@QAEXXZ 00445e51 f i rendermodel.obj
 0001:00044e51       ?vrealloc@?$vector@PAUfpsent@@@@QAEXXZ 00445e51 f i fps.obj
 0001:00044e51       ?vrealloc@?$vector@PAUrpgobj@rpgclient@@@@QAEXXZ 00445e51 f i rpg.obj
 0001:00044e51       ?vrealloc@?$vector@PAUvtxarray@@@@QAEXXZ 00445e51 f i octarender.obj
 0001:00044e51       ?vrealloc@?$vector@PAUclientinfo@fpsserver@@@@QAEXXZ 00445e51 f i fps.obj
 0001:00044e97       ?vrealloc@?$vector@Ubaseinfo@capturestate@fpsclient@@@@QAEXXZ 00445e97 f i fps.obj
 0001:00044ee3       ??1rpgdummycom@@UAE@XZ     00445ee3 f i rpg.obj
 0001:00044f0e       ?sendpacketclient@rpgdummycom@@UAEHAAU?$databuf@E@@AA_NPAUdynent@@@Z 00445f0e f i rpg.obj
 0001:00044f14       ?writegamedata@rpgclient@@UAEXAAU?$vector@D@@@Z 00445f14 f i rpg.obj
 0001:00044f14       ?run@?$tident@Urpgobjset@rpgclient@@@@UAEXPAPAD@Z 00445f14 f i rpg.obj
 0001:00044f14       ?newmap@rpgclient@@UAEXH@Z 00445f14 f i rpg.obj
 0001:00044f14       ?localdisconnect@rpgdummyserver@@UAEXH@Z 00445f14 f i rpg.obj
 0001:00044f14       ?run@?$tident@Urpgclient@@@@UAEXPAPAD@Z 00445f14 f i rpg.obj
 0001:00044f14       ?gameconnect@rpgdummycom@@UAEX_N@Z 00445f14 f i rpg.obj
 0001:00044f14       ?editent@rpgentities@rpgclient@@UAEXH@Z 00445f14 f i rpg.obj
 0001:00044f14       ?trigger@rpgentities@rpgclient@@UAEXAAUextentity@@@Z 00445f14 f i rpg.obj
 0001:00044f14       ?run@?$tident@X@@UAEXPAPAD@Z 00445f14 f i octaedit.obj
 0001:00044f14       ?readgamedata@fpsclient@@UAEXAAU?$vector@D@@@Z 00445f14 f i fps.obj
 0001:00044f14       ?readgamedata@rpgclient@@UAEXAAU?$vector@D@@@Z 00445f14 f i rpg.obj
 0001:00044f14       ?run@?$tident@Ufpsclient@@@@UAEXPAPAD@Z 00445f14 f i fps.obj
 0001:00044f14       ?resetinfo@rpgdummyserver@@UAEXPAX@Z 00445f14 f i rpg.obj
 0001:00044f14       ?writeclientinfo@rpgdummycom@@UAEXPAU_iobuf@@@Z 00445f14 f i rpg.obj
 0001:00044f14       ?writegamedata@fpsclient@@UAEXAAU?$vector@D@@@Z 00445f14 f i fps.obj
 0001:00044f14       ?serverupdate@rpgdummyserver@@UAEXH@Z 00445f14 f i rpg.obj
 0001:00044f14       ?run@?$tident@Uclientcom@fpsclient@@@@UAEXPAPAD@Z 00445f14 f i fps.obj
 0001:00044f14       ?run@?$tident@Uscoreboard@fpsclient@@@@UAEXPAPAD@Z 00445f14 f i fps.obj
 0001:00044f14       ?run@?$tident@Uweaponstate@fpsclient@@@@UAEXPAPAD@Z 00445f14 f i fps.obj
 0001:00044f14       ?run@?$tident@Urpgentities@rpgclient@@@@UAEXPAPAD@Z 00445f14 f i rpg.obj
 0001:00044f14       ?sendservmsg@rpgdummyserver@@UAEXPBD@Z 00445f14 f i rpg.obj
 0001:00044f14       ?clientdisconnect@rpgdummyserver@@UAEXH@Z 00445f14 f i rpg.obj
 0001:00044f14       ?toserver@rpgdummycom@@UAEXPAD@Z 00445f14 f i rpg.obj
 0001:00044f14       ?serverinforeply@rpgdummyserver@@UAEXAAU?$databuf@E@@@Z 00445f14 f i rpg.obj
 0001:00044f14       ?localconnect@rpgdummyserver@@UAEXH@Z 00445f14 f i rpg.obj
 0001:00044f14       ?run@?$tident@Ucaptureclient@fpsclient@@@@UAEXPAPAD@Z 00445f14 f i fps.obj
 0001:00044f17       ?changemap@rpgdummycom@@UAEXPBD@Z 00445f17 f i rpg.obj
 0001:00044f28       ??_Erpgdummycom@@UAEPAXI@Z 00445f28 f i  CIL library: CIL module
 0001:00044f28       ??_Grpgdummycom@@UAEPAXI@Z 00445f28 f i rpg.obj
 0001:00044f45       ?newinfo@rpgdummyserver@@UAEPAXXZ 00445f45 f i rpg.obj
 0001:00044f45       ?setspheretree@model@@UAEPAUSphereTree@@XZ 00445f45 f i rendermodel.obj
 0001:00044f45       ?serverport@rpgdummyserver@@UAEHXZ 00445f45 f i rpg.obj
 0001:00044f45       ?extraentinfosize@entities@fpsclient@@UAEHXZ 00445f45 f i fps.obj
 0001:00044f45       ?serverinfoport@rpgdummyserver@@UAEHXZ 00445f45 f i rpg.obj
 0001:00044f48       ?clientconnect@rpgdummyserver@@UAEHHI@Z 00445f48 f i rpg.obj
 0001:00044f4d       ?servername@rpgdummyserver@@UAEPADXZ 00445f4d f i rpg.obj
 0001:00044f53       ?parsepacket@rpgdummyserver@@UAEXHH_NAAU?$databuf@E@@@Z 00445f53 f i rpg.obj
 0001:00044f56       ?welcomepacket@rpgdummyserver@@UAEHAAU?$databuf@E@@H@Z 00445f56 f i rpg.obj
 0001:00044f5c       ?servercompatible@rpgdummyserver@@UAE_NPAD00HABU?$vector@H@@H@Z 00445f5c f i rpg.obj
 0001:00044f61       ?serverinfostr@rpgdummyserver@@UAEXPADPBD11HABU?$vector@H@@H@Z 00445f61 f i rpg.obj
 0001:00044f64       ?getdefaultmaster@rpgdummyserver@@UAEPADXZ 00445f64 f i rpg.obj
 0001:00044f6a       ??_Grpgdummyserver@@UAEPAXI@Z 00445f6a f i rpg.obj
 0001:00044f6a       ??_Erpgdummyserver@@UAEPAXI@Z 00445f6a f i  CIL library: CIL module
 0001:00044fa9       ??1rpgentities@rpgclient@@UAE@XZ 00445fa9 f i rpg.obj
 0001:00044fee       ??0rpgentities@rpgclient@@QAE@AAU1@@Z 00445fee f i rpg.obj
 0001:0004508e       ?getents@entities@fpsclient@@UAEAAU?$vector@PAUextentity@@@@XZ 0044608e f i fps.obj
 0001:0004508e       ?getents@rpgclient@@UAEPAUicliententities@@XZ 0044608e f i rpg.obj
 0001:0004508e       ?getents@rpgentities@rpgclient@@UAEAAU?$vector@PAUextentity@@@@XZ 0044608e f i rpg.obj
 0001:00045092       ?entnameinfo@rpgentities@rpgclient@@UAEPBDAAUentity@@@Z 00446092 f i rpg.obj
 0001:0004509c       ?entname@rpgentities@rpgclient@@UAEPBDH@Z 0044609c f i rpg.obj
 0001:000450ba       ?extraentinfosize@rpgentities@rpgclient@@UAEHXZ 004460ba f i rpg.obj
 0001:000450be       ?writeent@rpgentities@rpgclient@@UAEXAAUentity@@PAD@Z 004460be f i rpg.obj
 0001:000450d7       ?readent@rpgentities@rpgclient@@UAEXAAUentity@@PAD@Z 004460d7 f i rpg.obj
 0001:000450f0       ?dropheight@rpgentities@rpgclient@@UAEMAAUentity@@@Z 004460f0 f i rpg.obj
 0001:0004510c       ?rumble@rpgentities@rpgclient@@UAEXABUextentity@@@Z 0044610c f i rpg.obj
 0001:0004511f       ?newentity@rpgentities@rpgclient@@UAEPAUextentity@@XZ 0044611f f i rpg.obj
 0001:0004516c       ?fixentity@rpgentities@rpgclient@@UAEXAAUextentity@@@Z 0044616c f i rpg.obj
 0001:00045190       ?spawnfroment@rpgentities@rpgclient@@QAEXAAUrpgentity@2@@Z 00446190 f i rpg.obj
 0001:000451c4       ??1stats@rpgclient@@QAE@XZ 004461c4 f i rpg.obj
 0001:000451d7       ?alloc@stats@rpgclient@@QAEX_N@Z 004461d7 f i rpg.obj
 0001:00045209       ?init@stats@rpgclient@@QAEX_N@Z 00446209 f i rpg.obj
 0001:0004522b       ?set@stats@rpgclient@@QAEXPADH@Z 0044622b f i rpg.obj
 0001:000452ab       ?gui@stats@rpgclient@@QAEXAAUg3d_gui@@AAU12@@Z 004462ab f i rpg.obj
 0001:000453b9       ??0rpgobj@rpgclient@@QAE@PADAAUrpgobjset@1@@Z 004463b9 f i rpg.obj
 0001:00045430       ??1rpgobj@rpgclient@@UAE@XZ 00446430 f i rpg.obj
 0001:000454bc       ?scriptinit@rpgobj@rpgclient@@QAEXXZ 004464bc f i rpg.obj
 0001:00045501       ?decontain@rpgobj@rpgclient@@QAEXXZ 00446501 f i rpg.obj
 0001:00045530       ?add@rpgobj@rpgclient@@QAEXPAU12@H@Z 00446530 f i rpg.obj
 0001:0004554b       ?recalcstats@rpgobj@rpgclient@@QAEXXZ 0044654b f i rpg.obj
 0001:000455c1       ?placeinworld@rpgobj@rpgclient@@QAEXAAUvec@@M@Z 004465c1 f i rpg.obj
 0001:0004564c       ?render@rpgobj@rpgclient@@QAEXXZ 0044664c f i rpg.obj
 0001:000456dd       ?update@rpgobj@rpgclient@@QAEXH@Z 004466dd f i rpg.obj
 0001:00045751       ?droploot@rpgobj@rpgclient@@QAEXXZ 00446751 f i rpg.obj
 0001:000457a9       ?take@rpgobj@rpgclient@@QAEPAU12@PAD@Z 004467a9 f i rpg.obj
 0001:000457d7       ?attacked@rpgobj@rpgclient@@QAEXAAUrpgent@@@Z 004467d7 f i rpg.obj
 0001:00045890       ?guiaction@rpgobj@rpgclient@@QAEXAAUg3d_gui@@PAUrpgaction@12@@Z 00446890 f i rpg.obj
 0001:000458f4       ?gui@rpgobj@rpgclient@@UAEXAAUg3d_gui@@_N@Z 004468f4 f i rpg.obj
 0001:00045b07       ?invgui@rpgobj@rpgclient@@QAEXAAUg3d_gui@@PAU12@@Z 00446b07 f i rpg.obj
 0001:00045c25       ??0rpgobjset@rpgclient@@QAE@AAU1@@Z 00446c25 f i rpg.obj
 0001:000460a3       ?clearworld@rpgobjset@rpgclient@@QAEXXZ 004470a3 f i rpg.obj
 0001:000460f5       ?update@rpgobjset@rpgclient@@QAEXH@Z 004470f5 f i rpg.obj
 0001:000461a8       ?spawn@rpgobjset@rpgclient@@QAEXPAD@Z 004471a8 f i rpg.obj
 0001:000461f7       ?placeinworld@rpgobjset@rpgclient@@QAEXAAUvec@@M@Z 004471f7 f i rpg.obj
 0001:0004621d       ?pushobj@rpgobjset@rpgclient@@QAEXPAUrpgobj@2@@Z 0044721d f i rpg.obj
 0001:00046259       ?take@rpgobjset@rpgclient@@QAEXPAUrpgobj@2@0@Z 00447259 f i rpg.obj
 0001:000462ae       ?stringpool@rpgobjset@rpgclient@@QAEPADPAD@Z 004472ae f i rpg.obj
 0001:000462f7       ??0rpgclient@@QAE@XZ       004472f7 f i rpg.obj
 0001:00046430       ?getcom@rpgclient@@UAEPAUiclientcom@@XZ 00447430 f i rpg.obj
 0001:00046434       ?updateworld@rpgclient@@UAEXAAUvec@@HH@Z 00447434 f i rpg.obj
 0001:000464ba       ?gui@rpgclient@@UAEXAAUg3d_gui@@_N@Z 004474ba f i rpg.obj
 0001:0004650a       ?pushlist@g3d_gui@@UAEXXZ  0044750a f i 3dgui.obj
 0001:0004650a       ?poplist@g3d_gui@@UAEXXZ   0044750a f i 3dgui.obj
 0001:0004650a       ?resetgamestate@rpgclient@@UAEXXZ 0044750a f i rpg.obj
 0001:0004650a       ?gamedisconnect@rpgdummycom@@UAEXXZ 0044750a f i rpg.obj
 0001:0004650a       ??3@YAXPAX0@Z              0044750a f i lightmap.obj
 0001:0004650a       ?initclient@rpgclient@@UAEXXZ 0044750a f i rpg.obj
 0001:0004650b       ?physicstrigger@rpgclient@@UAEXPAUphysent@@_NHH@Z 0044750b f i rpg.obj
 0001:00046589       ?edittrigger@rpgclient@@UAEXABUselinfo@@HHHH@Z 00447589 f i rpg.obj
 0001:0004658c       ?getclientmap@rpgclient@@UAEPADXZ 0044758c f i rpg.obj
 0001:00046593       ?startmap@rpgclient@@UAEXPBD@Z 00447593 f i rpg.obj
 0001:000465e3       ?drawhudmodel@rpgclient@@QAEXHMH@Z 004475e3 f i rpg.obj
 0001:0004666f       ?drawhudgun@rpgclient@@UAEXXZ 0044766f f i rpg.obj
 0001:000466b8       ?isleaf@SphereLeaf@@UAE_NXZ 004476b8 f i spheretree.obj
 0001:000466b8       ?allowedittoggle@rpgdummycom@@UAE_NXZ 004476b8 f i rpg.obj
 0001:000466b8       ?canjump@rpgclient@@UAE_NXZ 004476b8 f i rpg.obj
 0001:000466bb       ?doattack@rpgclient@@UAEX_N@Z 004476bb f i rpg.obj
 0001:000466c8       ?iterdynents@rpgclient@@UAEPAUdynent@@H@Z 004476c8 f i rpg.obj
 0001:000466da       ?rendergame@rpgclient@@UAEXXZ 004476da f i rpg.obj
 0001:00046722       ?g3d_gamemenus@rpgclient@@UAEXXZ 00447722 f i rpg.obj
 0001:000467a4       ?gameident@rpgclient@@UAEPADXZ 004477a4 f i rpg.obj
 0001:000467aa       ?run@cmd_spawnname@?1???0rpgentities@rpgclient@@QAE@AAU3@@Z@UAEXPAPAD@Z 004477aa f   rpg.obj
 0001:000467e1       ?run@cmd_r_model@?1???0rpgobjset@rpgclient@@QAE@AAU3@@Z@UAEXPAPAD@Z 004477e1 f   rpg.obj
 0001:000467fc       ?run@cmd_r_spawn@?2???0rpgobjset@rpgclient@@QAE@AAU3@@Z@UAEXPAPAD@Z 004477fc f   rpg.obj
 0001:0004681a       ?run@cmd_r_contain@?3???0rpgobjset@rpgclient@@QAE@AAU3@@Z@UAEXPAPAD@Z 0044781a f   rpg.obj
 0001:0004684e       ?run@cmd_r_pop@?4???0rpgobjset@rpgclient@@QAE@AAU3@@Z@UAEXPAPAD@Z 0044784e f   rpg.obj
 0001:0004688b       ?run@cmd_r_ai@?5???0rpgobjset@rpgclient@@QAE@AAU3@@Z@UAEXPAPAD@Z 0044788b f   rpg.obj
 0001:0004689a       ?run@cmd_r_say@?6???0rpgobjset@rpgclient@@QAE@AAU3@@Z@UAEXPAPAD@Z 0044789a f   rpg.obj
 0001:000468b5       ?run@cmd_r_action@?7???0rpgobjset@rpgclient@@QAE@AAU3@@Z@UAEXPAPAD@Z 004478b5 f   rpg.obj
 0001:0004691d       ?run@cmd_r_take@?8???0rpgobjset@rpgclient@@QAE@AAU3@@Z@UAEXPAPAD@Z 0044791d f   rpg.obj
 0001:0004697a       ?run@cmd_r_give@?9???0rpgobjset@rpgclient@@QAE@AAU3@@Z@UAEXPAPAD@Z 0044797a f   rpg.obj
 0001:000469c2       ?run@cmd_r_worth@?L@???0rpgobjset@rpgclient@@QAE@AAU3@@Z@UAEXPAPAD@Z 004479c2 f   rpg.obj
 0001:000469df       ?run@cmd_r_gold@?M@???0rpgobjset@rpgclient@@QAE@AAU3@@Z@UAEXPAPAD@Z 004479df f   rpg.obj
 0001:000469fc       ?run@cmd_r_stat@?N@???0rpgobjset@rpgclient@@QAE@AAU3@@Z@UAEXPAPAD@Z 004479fc f   rpg.obj
 0001:00046a31       ?run@cmd_map@?1???0rpgclient@@QAE@XZ@UAEXPAPAD@Z 00447a31 f   rpg.obj
 0001:00046a43       ?run@cmd_showinventory@?2???0rpgclient@@QAE@XZ@UAEXPAPAD@Z 00447a43 f   rpg.obj
 0001:00046a7f       ??_Grpgentities@rpgclient@@UAEPAXI@Z 00447a7f f i rpg.obj
 0001:00046a7f       ??_Erpgentities@rpgclient@@UAEPAXI@Z 00447a7f f i  CIL library: CIL module
 0001:00046a9c       ??1cmd_spawnname@?1???0rpgentities@rpgclient@@QAE@AAU2@@Z@UAE@XZ 00447a9c f i rpg.obj
 0001:00046ac1       ??_Grpgaction@rpgobj@rpgclient@@QAEPAXI@Z 00447ac1 f i rpg.obj
 0001:00046ae1       ??_Grpgobj@rpgclient@@UAEPAXI@Z 00447ae1 f i rpg.obj
 0001:00046ae1       ??_Erpgobj@rpgclient@@UAEPAXI@Z 00447ae1 f i  CIL library: CIL module
 0001:00046afe       ??1cmd_r_gold@?M@???0rpgobjset@rpgclient@@QAE@AAU2@@Z@UAE@XZ 00447afe f i rpg.obj
 0001:00046afe       ??1cmd_r_action@?7???0rpgobjset@rpgclient@@QAE@AAU2@@Z@UAE@XZ 00447afe f i rpg.obj
 0001:00046afe       ??1cmd_r_worth@?L@???0rpgobjset@rpgclient@@QAE@AAU2@@Z@UAE@XZ 00447afe f i rpg.obj
 0001:00046afe       ??1cmd_r_model@?1???0rpgobjset@rpgclient@@QAE@AAU2@@Z@UAE@XZ 00447afe f i rpg.obj
 0001:00046afe       ??1cmd_r_ai@?5???0rpgobjset@rpgclient@@QAE@AAU2@@Z@UAE@XZ 00447afe f i rpg.obj
 0001:00046afe       ??1cmd_r_say@?6???0rpgobjset@rpgclient@@QAE@AAU2@@Z@UAE@XZ 00447afe f i rpg.obj
 0001:00046afe       ??1cmd_r_stat@?N@???0rpgobjset@rpgclient@@QAE@AAU2@@Z@UAE@XZ 00447afe f i rpg.obj
 0001:00046afe       ??1cmd_r_contain@?3???0rpgobjset@rpgclient@@QAE@AAU2@@Z@UAE@XZ 00447afe f i rpg.obj
 0001:00046afe       ??1cmd_r_spawn@?2???0rpgobjset@rpgclient@@QAE@AAU2@@Z@UAE@XZ 00447afe f i rpg.obj
 0001:00046afe       ??1cmd_r_take@?8???0rpgobjset@rpgclient@@QAE@AAU2@@Z@UAE@XZ 00447afe f i rpg.obj
 0001:00046afe       ??1cmd_r_give@?9???0rpgobjset@rpgclient@@QAE@AAU2@@Z@UAE@XZ 00447afe f i rpg.obj
 0001:00046afe       ??1cmd_r_pop@?4???0rpgobjset@rpgclient@@QAE@AAU2@@Z@UAE@XZ 00447afe f i rpg.obj
 0001:00046b23       ??_Grpgclient@@UAEPAXI@Z   00447b23 f i rpg.obj
 0001:00046b23       ??_Erpgclient@@UAEPAXI@Z   00447b23 f i  CIL library: CIL module
 0001:00046b9e       ??1rpgobjset@rpgclient@@QAE@XZ 00447b9e f i rpg.obj
 0001:00046c04       ??1cmd_showinventory@?2???0rpgclient@@QAE@XZ@UAE@XZ 00447c04 f i rpg.obj
 0001:00046c04       ??1cmd_map@?1???0rpgclient@@QAE@XZ@UAE@XZ 00447c04 f i rpg.obj
 0001:00046c29       ??_Gcmd_spawnname@?1???0rpgentities@rpgclient@@QAE@AAU2@@Z@UAEPAXI@Z 00447c29 f i rpg.obj
 0001:00046c29       ??_Ecmd_spawnname@?1???0rpgentities@rpgclient@@QAE@AAU2@@Z@UAEPAXI@Z 00447c29 f i  CIL library: CIL module
 0001:00046c62       ??_Ecmd_r_pop@?4???0rpgobjset@rpgclient@@QAE@AAU2@@Z@UAEPAXI@Z 00447c62 f i  CIL library: CIL module
 0001:00046c62       ??_Gcmd_r_stat@?N@???0rpgobjset@rpgclient@@QAE@AAU2@@Z@UAEPAXI@Z 00447c62 f i rpg.obj
 0001:00046c62       ??_Ecmd_r_contain@?3???0rpgobjset@rpgclient@@QAE@AAU2@@Z@UAEPAXI@Z 00447c62 f i  CIL library: CIL module
 0001:00046c62       ??_Gcmd_r_action@?7???0rpgobjset@rpgclient@@QAE@AAU2@@Z@UAEPAXI@Z 00447c62 f i rpg.obj
 0001:00046c62       ??_Gcmd_r_worth@?L@???0rpgobjset@rpgclient@@QAE@AAU2@@Z@UAEPAXI@Z 00447c62 f i rpg.obj
 0001:00046c62       ??_Ecmd_r_say@?6???0rpgobjset@rpgclient@@QAE@AAU2@@Z@UAEPAXI@Z 00447c62 f i  CIL library: CIL module
 0001:00046c62       ??_Ecmd_r_gold@?M@???0rpgobjset@rpgclient@@QAE@AAU2@@Z@UAEPAXI@Z 00447c62 f i  CIL library: CIL module
 0001:00046c62       ??_Gcmd_r_model@?1???0rpgobjset@rpgclient@@QAE@AAU2@@Z@UAEPAXI@Z 00447c62 f i rpg.obj
 0001:00046c62       ??_Ecmd_r_give@?9???0rpgobjset@rpgclient@@QAE@AAU2@@Z@UAEPAXI@Z 00447c62 f i  CIL library: CIL module
 0001:00046c62       ??_Gcmd_r_spawn@?2???0rpgobjset@rpgclient@@QAE@AAU2@@Z@UAEPAXI@Z 00447c62 f i rpg.obj
 0001:00046c62       ??_Ecmd_r_spawn@?2???0rpgobjset@rpgclient@@QAE@AAU2@@Z@UAEPAXI@Z 00447c62 f i  CIL library: CIL module
 0001:00046c62       ??_Gcmd_r_take@?8???0rpgobjset@rpgclient@@QAE@AAU2@@Z@UAEPAXI@Z 00447c62 f i rpg.obj
 0001:00046c62       ??_Gcmd_r_pop@?4???0rpgobjset@rpgclient@@QAE@AAU2@@Z@UAEPAXI@Z 00447c62 f i rpg.obj
 0001:00046c62       ??_Gcmd_r_give@?9???0rpgobjset@rpgclient@@QAE@AAU2@@Z@UAEPAXI@Z 00447c62 f i rpg.obj
 0001:00046c62       ??_Ecmd_r_action@?7???0rpgobjset@rpgclient@@QAE@AAU2@@Z@UAEPAXI@Z 00447c62 f i  CIL library: CIL module
 0001:00046c62       ??_Gcmd_r_ai@?5???0rpgobjset@rpgclient@@QAE@AAU2@@Z@UAEPAXI@Z 00447c62 f i rpg.obj
 0001:00046c62       ??_Gcmd_r_contain@?3???0rpgobjset@rpgclient@@QAE@AAU2@@Z@UAEPAXI@Z 00447c62 f i rpg.obj
 0001:00046c62       ??_Ecmd_r_stat@?N@???0rpgobjset@rpgclient@@QAE@AAU2@@Z@UAEPAXI@Z 00447c62 f i  CIL library: CIL module
 0001:00046c62       ??_Ecmd_r_model@?1???0rpgobjset@rpgclient@@QAE@AAU2@@Z@UAEPAXI@Z 00447c62 f i  CIL library: CIL module
 0001:00046c62       ??_Ecmd_r_take@?8???0rpgobjset@rpgclient@@QAE@AAU2@@Z@UAEPAXI@Z 00447c62 f i  CIL library: CIL module
 0001:00046c62       ??_Gcmd_r_gold@?M@???0rpgobjset@rpgclient@@QAE@AAU2@@Z@UAEPAXI@Z 00447c62 f i rpg.obj
 0001:00046c62       ??_Ecmd_r_worth@?L@???0rpgobjset@rpgclient@@QAE@AAU2@@Z@UAEPAXI@Z 00447c62 f i  CIL library: CIL module
 0001:00046c62       ??_Gcmd_r_say@?6???0rpgobjset@rpgclient@@QAE@AAU2@@Z@UAEPAXI@Z 00447c62 f i rpg.obj
 0001:00046c62       ??_Ecmd_r_ai@?5???0rpgobjset@rpgclient@@QAE@AAU2@@Z@UAEPAXI@Z 00447c62 f i  CIL library: CIL module
 0001:00046c9b       ??_Ecmd_showinventory@?2???0rpgclient@@QAE@XZ@UAEPAXI@Z 00447c9b f i  CIL library: CIL module
 0001:00046c9b       ??_Ecmd_map@?1???0rpgclient@@QAE@XZ@UAEPAXI@Z 00447c9b f i  CIL library: CIL module
 0001:00046c9b       ??_Gcmd_map@?1???0rpgclient@@QAE@XZ@UAEPAXI@Z 00447c9b f i rpg.obj
 0001:00046c9b       ??_Gcmd_showinventory@?2???0rpgclient@@QAE@XZ@UAEPAXI@Z 00447c9b f i rpg.obj
 0001:00046cd4       ?newclient@rpggame@@UAEPAUigameclient@@XZ 00447cd4 f i rpg.obj
 0001:00046d0f       ?newserver@rpggame@@UAEPAUigameserver@@XZ 00447d0f f i rpg.obj
 0001:00046d4d       ??_Grpggame@@UAEPAXI@Z     00447d4d f i rpg.obj
 0001:00046d4d       ??_Erpggame@@UAEPAXI@Z     00447d4d f i  CIL library: CIL module
 0001:00046d4d       ??_Gfpsgame@@UAEPAXI@Z     00447d4d f i fps.obj
 0001:00046d4d       ??_Efpsgame@@UAEPAXI@Z     00447d4d f i  CIL library: CIL module
 0001:00046d86       ??1?$tident@Urpgentities@rpgclient@@@@UAE@XZ 00447d86 f i rpg.obj
 0001:00046d8d       ??1?$tident@Urpgobjset@rpgclient@@@@UAE@XZ 00447d8d f i rpg.obj
 0001:00046d94       ??1?$tident@Urpgclient@@@@UAE@XZ 00447d94 f i rpg.obj
 0001:00046d9b       ??_E?$tident@Urpgentities@rpgclient@@@@UAEPAXI@Z 00447d9b f i  CIL library: CIL module
 0001:00046d9b       ??_G?$tident@Urpgentities@rpgclient@@@@UAEPAXI@Z 00447d9b f i rpg.obj
 0001:00046db8       ??_G?$tident@Urpgobjset@rpgclient@@@@UAEPAXI@Z 00447db8 f i rpg.obj
 0001:00046db8       ??_E?$tident@Urpgobjset@rpgclient@@@@UAEPAXI@Z 00447db8 f i  CIL library: CIL module
 0001:00046dd5       ??_G?$tident@Urpgclient@@@@UAEPAXI@Z 00447dd5 f i rpg.obj
 0001:00046dd5       ??_E?$tident@Urpgclient@@@@UAEPAXI@Z 00447dd5 f i  CIL library: CIL module
 0001:00046df2       ??_Erpgclient@@W3AEPAXI@Z  00447df2 f i rpg.obj
 0001:00046dfa       ??2@YAPAXI@Z               00447dfa f   msvcrt:MSVCR80.dll
 0001:00046e00       ??3@YAXPAX@Z               00447e00 f   msvcrt:MSVCR80.dll
 0001:00046e06       _memcpy                    00447e06 f   msvcrt:MSVCR80.dll
 0001:00046e0c       _sqrt                      00447e0c f   msvcrt:MSVCR80.dll
 0001:00046e12       _memset                    00447e12 f   msvcrt:MSVCR80.dll
 0001:00046e18       __onexit                   00447e18 f   msvcrt:atonexit.obj
 0001:00046eb7       _atexit                    00447eb7 f   msvcrt:atonexit.obj
 0001:00046ec9       ??_L@YGXPAXIHP6EX0@Z1@Z    00447ec9 f   msvcrt:ehvecctr.obj
 0001:00046f2e       ?__ArrayUnwind@@YGXPAXIHP6EX0@Z@Z 00447f2e f   msvcrt:ehvecdtr.obj
 0001:00046f8c       ??_M@YGXPAXIHP6EX0@Z@Z     00447f8c f   msvcrt:ehvecdtr.obj
 0001:00046ff0       _cos                       00447ff0 f   msvcrt:MSVCR80.dll
 0001:00046ff6       _abs                       00447ff6 f   msvcrt:MSVCR80.dll
 0001:00046ffc       ??_Etype_info@@UAEPAXI@Z   00447ffc f i msvcrt:ti_inst.obj
 0001:00047046       _sin                       00448046 f   msvcrt:MSVCR80.dll
 0001:0004704c       _memcmp                    0044804c f   msvcrt:MSVCR80.dll
 0001:00047052       _fabs                      00448052 f   msvcrt:MSVCR80.dll
 0001:00047058       _strcmp                    00448058 f   msvcrt:MSVCR80.dll
 0001:0004705e       _strlen                    0044805e f   msvcrt:MSVCR80.dll
 0001:00047064       _free                      00448064 f   msvcrt:MSVCR80.dll
 0001:0004706a       _malloc                    0044806a f   msvcrt:MSVCR80.dll
 0001:00047070       _rand                      00448070 f   msvcrt:MSVCR80.dll
 0001:00047076       _atan2                     00448076 f   msvcrt:MSVCR80.dll
 0001:0004707c       __purecall                 0044807c f   msvcrt:MSVCR80.dll
 0001:00047082       _strcpy                    00448082 f   msvcrt:MSVCR80.dll
 0001:00047088       _asin                      00448088 f   msvcrt:MSVCR80.dll
 0001:0004708e       _strcat                    0044808e f   msvcrt:MSVCR80.dll
 0001:00047337       _mainCRTStartup            00448337 f   msvcrt:crtexe.obj
 0001:00047342       __unlock                   00448342 f   msvcrt:MSVCR80.dll
 0001:00047348       ___dllonexit               00448348 f   msvcrt:MSVCR80.dll
 0001:0004734e       __lock                     0044834e f   msvcrt:MSVCR80.dll
 0001:00047354       __SEH_prolog4              00448354 f   msvcrt:sehprolg4.obj
 0001:00047399       __SEH_epilog4              00448399 f   msvcrt:sehprolg4.obj
 0001:000473ad       __except_handler4          004483ad f   msvcrt:chandler4gs.obj
 0001:000473d0       ?terminate@@YAXXZ          004483d0 f   msvcrt:MSVCR80.dll
 0001:000473d6       __amsg_exit                004483d6 f   msvcrt:MSVCR80.dll
 0001:000473dc       __RTC_Initialize           004483dc f   msvcrt:initsect.obj
 0001:00047400       __RTC_Terminate            00448400 f   msvcrt:initsect.obj
 0001:00047424       __XcptFilter               00448424 f   msvcrt:MSVCR80.dll
 0001:00047430       __ValidateImageBase        00448430 f   msvcrt:pesect.obj
 0001:00047460       __FindPESection            00448460 f   msvcrt:pesect.obj
 0001:000474a2       __IsNonwritableInCurrentImage 004484a2 f   msvcrt:pesect.obj
 0001:0004750e       __initterm                 0044850e f   msvcrt:MSVCR80.dll
 0001:00047514       __initterm_e               00448514 f   msvcrt:MSVCR80.dll
 0001:0004751a       __setdefaultprecision      0044851a f   msvcrt:fp8.obj
 0001:00047543       __matherr                  00448543 f   msvcrt:merr.obj
 0001:00047543       __setargv                  00448543 f   msvcrt:dllargv.obj
 0001:00047546       ___security_init_cookie    00448546 f   msvcrt:gs_support.obj
 0001:000475da       @__security_check_cookie@4 004485da f   msvcrt:secchk.obj
 0001:000475ea       __except_handler4_common   004485ea f   msvcrt:MSVCR80.dll
 0001:000475f0       ??1type_info@@UAE@XZ       004485f0 f   msvcrt:MSVCR80.dll
 0001:000475f0       ?_type_info_dtor_internal_method@type_info@@QAEXXZ 004485f0 f   msvcrt:MSVCR80.dll
 0001:000475f6       __invoke_watson            004485f6 f   msvcrt:MSVCR80.dll
 0001:000475fc       __controlfp_s              004485fc f   msvcrt:MSVCR80.dll
 0001:00047602       ___report_gsfailure        00448602 f   msvcrt:gs_report.obj
 0001:00047706       __crt_debugger_hook        00448706 f   msvcrt:MSVCR80.dll
 0001:0004770c       _gluNewQuadric@0           0044870c f   glu32:GLU32.dll
 0001:00047712       _gluQuadricDrawStyle@8     00448712 f   glu32:GLU32.dll
 0001:00047718       _gluQuadricOrientation@8   00448718 f   glu32:GLU32.dll
 0001:0004771e       _gluQuadricTexture@8       0044871e f   glu32:GLU32.dll
 0001:00047724       _gluSphere@20              00448724 f   glu32:GLU32.dll
 0001:0004772a       _gluDeleteQuadric@4        0044872a f   glu32:GLU32.dll
 0001:00047730       _gluBuild2DMipmaps@28      00448730 f   glu32:GLU32.dll
 0001:00047736       _gluScaleImage@36          00448736 f   glu32:GLU32.dll
 0001:0004773c       _gluPerspective@32         0044873c f   glu32:GLU32.dll
 0001:00047750       _main                      00448750 f   SDLmain:SDL_win32_main.obj
 0001:00047950       _SDL_GetTicks              00448950 f   SDL:SDL.dll
 0001:00047956       _SDL_PollEvent             00448956 f   SDL:SDL.dll
 0001:0004795c       _SDL_AddTimer              0044895c f   SDL:SDL.dll
 0001:00047962       _SDL_RemoveTimer           00448962 f   SDL:SDL.dll
 0001:00047968       _SDL_CreateRGBSurface      00448968 f   SDL:SDL.dll
 0001:0004796e       _SDL_SaveBMP_RW            0044896e f   SDL:SDL.dll
 0001:00047974       _SDL_RWFromFile            00448974 f   SDL:SDL.dll
 0001:0004797a       _SDL_FreeSurface           0044897a f   SDL:SDL.dll
 0001:00047980       _SDL_mutexP                00448980 f   SDL:SDL.dll
 0001:00047986       _SDL_mutexV                00448986 f   SDL:SDL.dll
 0001:0004798c       _SDL_GetThreadID           0044898c f   SDL:SDL.dll
 0001:00047992       _SDL_ThreadID              00448992 f   SDL:SDL.dll
 0001:00047998       _SDL_CondWait              00448998 f   SDL:SDL.dll
 0001:0004799e       _SDL_CondSignal            0044899e f   SDL:SDL.dll
 0001:000479a4       _SDL_CreateMutex           004489a4 f   SDL:SDL.dll
 0001:000479aa       _SDL_CreateCond            004489aa f   SDL:SDL.dll
 0001:000479b0       _SDL_CreateThread          004489b0 f   SDL:SDL.dll
 0001:000479b6       _SDL_KillThread            004489b6 f   SDL:SDL.dll
 0001:000479bc       _SDL_CondWaitTimeout       004489bc f   SDL:SDL.dll
 0001:000479c2       _SDL_GL_GetProcAddress     004489c2 f   SDL:SDL.dll
 0001:000479c8       _SDL_UpperBlit             004489c8 f   SDL:SDL.dll
 0001:000479ce       _SDL_EnableUNICODE         004489ce f   SDL:SDL.dll
 0001:000479d4       _SDL_GetModState           004489d4 f   SDL:SDL.dll
 0001:000479da       _SDL_ShowCursor            004489da f   SDL:SDL.dll
 0001:000479e0       _SDL_Quit                  004489e0 f   SDL:SDL.dll
 0001:000479e6       _SDL_GL_SwapBuffers        004489e6 f   SDL:SDL.dll
 0001:000479ec       _SDL_SetGamma              004489ec f   SDL:SDL.dll
 0001:000479f2       _SDL_GetError              004489f2 f   SDL:SDL.dll
 0001:000479f8       _SDL_EnableKeyRepeat       004489f8 f   SDL:SDL.dll
 0001:000479fe       _SDL_Delay                 004489fe f   SDL:SDL.dll
 0001:00047a04       _SDL_Init                  00448a04 f   SDL:SDL.dll
 0001:00047a0a       _SDL_GL_SetAttribute       00448a0a f   SDL:SDL.dll
 0001:00047a10       _SDL_SetVideoMode          00448a10 f   SDL:SDL.dll
 0001:00047a16       _SDL_WM_SetCaption         00448a16 f   SDL:SDL.dll
 0001:00047a1c       _SDL_WM_GrabInput          00448a1c f   SDL:SDL.dll
 0001:00047a22       _SDL_WarpMouse             00448a22 f   SDL:SDL.dll
 0001:00047a28       _SDL_SetModuleHandle       00448a28 f   SDL:SDL.dll
 0001:00047a2e       _SDL_strlcpy               00448a2e f   SDL:SDL.dll
 0001:00047a34       _IMG_Load                  00448a34 f   SDL_image:SDL_image.dll
 0001:00047a3a       ___WSAFDIsSet@8            00448a3a f   ws2_32:WS2_32.dll
 0001:00047a40       _Mix_VolumeMusic           00448a40 f   SDL_mixer:SDL_mixer.dll
 0001:00047a46       _Mix_HaltMusic             00448a46 f   SDL_mixer:SDL_mixer.dll
 0001:00047a4c       _Mix_FreeMusic             00448a4c f   SDL_mixer:SDL_mixer.dll
 0001:00047a52       _Mix_OpenAudio             00448a52 f   SDL_mixer:SDL_mixer.dll
 0001:00047a58       _Mix_AllocateChannels      00448a58 f   SDL_mixer:SDL_mixer.dll
 0001:00047a5e       _Mix_LoadMUS               00448a5e f   SDL_mixer:SDL_mixer.dll
 0001:00047a64       _Mix_PlayMusic             00448a64 f   SDL_mixer:SDL_mixer.dll
 0001:00047a6a       _Mix_CloseAudio            00448a6a f   SDL_mixer:SDL_mixer.dll
 0001:00047a70       _Mix_Volume                00448a70 f   SDL_mixer:SDL_mixer.dll
 0001:00047a76       _Mix_SetPanning            00448a76 f   SDL_mixer:SDL_mixer.dll
 0001:00047a7c       _Mix_Playing               00448a7c f   SDL_mixer:SDL_mixer.dll
 0001:00047a82       _Mix_PlayingMusic          00448a82 f   SDL_mixer:SDL_mixer.dll
 0001:00047a88       _Mix_LoadWAV_RW            00448a88 f   SDL_mixer:SDL_mixer.dll
 0001:00047a8e       _Mix_PlayChannelTimed      00448a8e f   SDL_mixer:SDL_mixer.dll
 0001:00047aa0       __alloca_probe             00448aa0     msvcrt:chkstk.obj
 0001:00047aa0       __chkstk                   00448aa0 f   msvcrt:chkstk.obj
 0001:00047acc       ___CxxFrameHandler3        00448acc f   msvcrt:MSVCR80.dll
 0001:00047ad4       __EH_prolog                00448ad4 f   msvcrt:ehprolog.obj
 0001:00047b00       __ftol2_sse                00448b00 f   msvcrt:ftol2.obj
 0001:00047b09       __ftol2_pentium4           00448b09 f   msvcrt:ftol2.obj
 0001:00047b1c       __ftol2_sse_excpt          00448b1c f   msvcrt:ftol2.obj
 0001:00047b36       __ftol2                    00448b36 f   msvcrt:ftol2.obj
 0001:00047bb0       __allmul                   00448bb0 f   msvcrt:llmul.obj
 0001:00047be4       __SEH_prolog               00448be4 f   msvcrt:sehprolg.obj
 0001:00047c1f       __SEH_epilog               00448c1f f   msvcrt:sehprolg.obj
 0001:00047c30       __except_handler3          00448c30 f   msvcrt:MSVCR80.dll
 0001:00047c86       __get_sse2_info            00448c86 f   msvcrt:cpu_disp.obj
 0001:00047ce6       ___sse2_available_init     00448ce6 f   msvcrt:cpu_disp.obj
 0002:00000000       __imp__gluNewQuadric@0     0044e000     glu32:GLU32.dll
 0002:00000004       __imp__gluQuadricOrientation@8 0044e004     glu32:GLU32.dll
 0002:00000008       __imp__gluQuadricTexture@8 0044e008     glu32:GLU32.dll
 0002:0000000c       __imp__gluSphere@20        0044e00c     glu32:GLU32.dll
 0002:00000010       __imp__gluDeleteQuadric@4  0044e010     glu32:GLU32.dll
 0002:00000014       __imp__gluBuild2DMipmaps@28 0044e014     glu32:GLU32.dll
 0002:00000018       __imp__gluScaleImage@36    0044e018     glu32:GLU32.dll
 0002:0000001c       __imp__gluPerspective@32   0044e01c     glu32:GLU32.dll
 0002:00000020       __imp__gluQuadricDrawStyle@8 0044e020     glu32:GLU32.dll
 0002:00000024       \177GLU32_NULL_THUNK_DATA  0044e024     glu32:GLU32.dll
 0002:00000028       __imp__SetPriorityClass@8  0044e028     kernel32:KERNEL32.dll
 0002:0000002c       __imp__FindFirstFileA@8    0044e02c     kernel32:KERNEL32.dll
 0002:00000030       __imp__FindNextFileA@8     0044e030     kernel32:KERNEL32.dll
 0002:00000034       __imp__GlobalLock@4        0044e034     kernel32:KERNEL32.dll
 0002:00000038       __imp__GlobalUnlock@4      0044e038     kernel32:KERNEL32.dll
 0002:0000003c       __imp__GetCurrentThread@0  0044e03c     kernel32:KERNEL32.dll
 0002:00000040       __imp__InterlockedExchange@8 0044e040     kernel32:KERNEL32.dll
 0002:00000044       __imp__Sleep@4             0044e044     kernel32:KERNEL32.dll
 0002:00000048       __imp__InterlockedCompareExchange@12 0044e048     kernel32:KERNEL32.dll
 0002:0000004c       __imp__QueryPerformanceCounter@4 0044e04c     kernel32:KERNEL32.dll
 0002:00000050       __imp__GetTickCount@0      0044e050     kernel32:KERNEL32.dll
 0002:00000054       __imp__GetCurrentThreadId@0 0044e054     kernel32:KERNEL32.dll
 0002:00000058       __imp__GetCurrentProcessId@0 0044e058     kernel32:KERNEL32.dll
 0002:0000005c       __imp__GetSystemTimeAsFileTime@4 0044e05c     kernel32:KERNEL32.dll
 0002:00000060       __imp__TerminateProcess@8  0044e060     kernel32:KERNEL32.dll
 0002:00000064       __imp__UnhandledExceptionFilter@4 0044e064     kernel32:KERNEL32.dll
 0002:00000068       __imp__SetUnhandledExceptionFilter@4 0044e068     kernel32:KERNEL32.dll
 0002:0000006c       __imp__IsDebuggerPresent@0 0044e06c     kernel32:KERNEL32.dll
 0002:00000070       __imp__GetModuleHandleA@4  0044e070     kernel32:KERNEL32.dll
 0002:00000074       __imp__GetCurrentProcess@0 0044e074     kernel32:KERNEL32.dll
 0002:00000078       \177KERNEL32_NULL_THUNK_DATA 0044e078     kernel32:KERNEL32.dll
 0002:0000007c       __imp__ftell               0044e07c     msvcrt:MSVCR80.dll
 0002:00000080       __imp__rewind              0044e080     msvcrt:MSVCR80.dll
 0002:00000084       __imp__fread               0044e084     msvcrt:MSVCR80.dll
 0002:00000088       __imp__strstr              0044e088     msvcrt:MSVCR80.dll
 0002:0000008c       __imp__atoi                0044e08c     msvcrt:MSVCR80.dll
 0002:00000090       __imp__abort               0044e090     msvcrt:MSVCR80.dll
 0002:00000094       __imp__free                0044e094     msvcrt:MSVCR80.dll
 0002:00000098       __imp__malloc              0044e098     msvcrt:MSVCR80.dll
 0002:0000009c       __imp__rand                0044e09c     msvcrt:MSVCR80.dll
 0002:000000a0       __imp__perror              0044e0a0     msvcrt:MSVCR80.dll
 0002:000000a4       __imp__atan2               0044e0a4     msvcrt:MSVCR80.dll
 0002:000000a8       __imp___purecall           0044e0a8     msvcrt:MSVCR80.dll
 0002:000000ac       __imp__fwrite              0044e0ac     msvcrt:MSVCR80.dll
 0002:000000b0       __imp__fputc               0044e0b0     msvcrt:MSVCR80.dll
 0002:000000b4       __imp__strspn              0044e0b4     msvcrt:MSVCR80.dll
 0002:000000b8       __imp__strchr              0044e0b8     msvcrt:MSVCR80.dll
 0002:000000bc       __imp__strcpy              0044e0bc     msvcrt:MSVCR80.dll
 0002:000000c0       __imp__atof                0044e0c0     msvcrt:MSVCR80.dll
 0002:000000c4       __imp__asin                0044e0c4     msvcrt:MSVCR80.dll
 0002:000000c8       __imp__isalnum             0044e0c8     msvcrt:MSVCR80.dll
 0002:000000cc       __imp__strcspn             0044e0cc     msvcrt:MSVCR80.dll
 0002:000000d0       __imp__strcat              0044e0d0     msvcrt:MSVCR80.dll
 0002:000000d4       __imp__strtol              0044e0d4     msvcrt:MSVCR80.dll
 0002:000000d8       __imp__memchr              0044e0d8     msvcrt:MSVCR80.dll
 0002:000000dc       __imp__exit                0044e0dc     msvcrt:MSVCR80.dll
 0002:000000e0       __imp__tmpfile             0044e0e0     msvcrt:MSVCR80.dll
 0002:000000e4       __imp__isspace             0044e0e4     msvcrt:MSVCR80.dll
 0002:000000e8       __imp__isprint             0044e0e8     msvcrt:MSVCR80.dll
 0002:000000ec       __imp___unlock             0044e0ec     msvcrt:MSVCR80.dll
 0002:000000f0       __imp___encode_pointer     0044e0f0     msvcrt:MSVCR80.dll
 0002:000000f4       __imp____dllonexit         0044e0f4     msvcrt:MSVCR80.dll
 0002:000000f8       __imp__fseek               0044e0f8     msvcrt:MSVCR80.dll
 0002:000000fc       __imp___onexit             0044e0fc     msvcrt:MSVCR80.dll
 0002:00000100       __imp___decode_pointer     0044e100     msvcrt:MSVCR80.dll
 0002:00000104       __imp_?terminate@@YAXXZ    0044e104     msvcrt:MSVCR80.dll
 0002:00000108       __imp___amsg_exit          0044e108     msvcrt:MSVCR80.dll
 0002:0000010c       __imp____getmainargs       0044e10c     msvcrt:MSVCR80.dll
 0002:00000110       __imp___cexit              0044e110     msvcrt:MSVCR80.dll
 0002:00000114       __imp___exit               0044e114     msvcrt:MSVCR80.dll
 0002:00000118       __imp___XcptFilter         0044e118     msvcrt:MSVCR80.dll
 0002:0000011c       __imp____initenv           0044e11c     msvcrt:MSVCR80.dll
 0002:00000120       __imp___initterm           0044e120     msvcrt:MSVCR80.dll
 0002:00000124       __imp___initterm_e         0044e124     msvcrt:MSVCR80.dll
 0002:00000128       __imp___configthreadlocale 0044e128     msvcrt:MSVCR80.dll
 0002:0000012c       __imp____setusermatherr    0044e12c     msvcrt:MSVCR80.dll
 0002:00000130       __imp___adjust_fdiv        0044e130     msvcrt:MSVCR80.dll
 0002:00000134       __imp____p__commode        0044e134     msvcrt:MSVCR80.dll
 0002:00000138       __imp____p__fmode          0044e138     msvcrt:MSVCR80.dll
 0002:0000013c       __imp____set_app_type      0044e13c     msvcrt:MSVCR80.dll
 0002:00000140       __imp___except_handler4_common 0044e140     msvcrt:MSVCR80.dll
 0002:00000144       __imp_?_type_info_dtor_internal_method@type_info@@QAEXXZ 0044e144     msvcrt:MSVCR80.dll
 0002:00000148       __imp___invoke_watson      0044e148     msvcrt:MSVCR80.dll
 0002:0000014c       __imp___controlfp_s        0044e14c     msvcrt:MSVCR80.dll
 0002:00000150       __imp___crt_debugger_hook  0044e150     msvcrt:MSVCR80.dll
 0002:00000154       __imp____CxxFrameHandler3  0044e154     msvcrt:MSVCR80.dll
 0002:00000158       __imp__fgetc               0044e158     msvcrt:MSVCR80.dll
 0002:0000015c       __imp___iob                0044e15c     msvcrt:MSVCR80.dll
 0002:00000160       __imp___time64             0044e160     msvcrt:MSVCR80.dll
 0002:00000164       __imp__isxdigit            0044e164     msvcrt:MSVCR80.dll
 0002:00000168       __imp__puts                0044e168     msvcrt:MSVCR80.dll
 0002:0000016c       __imp__putchar             0044e16c     msvcrt:MSVCR80.dll
 0002:00000170       __imp__toupper             0044e170     msvcrt:MSVCR80.dll
 0002:00000174       __imp__isdigit             0044e174     msvcrt:MSVCR80.dll
 0002:00000178       __imp__isalpha             0044e178     msvcrt:MSVCR80.dll
 0002:0000017c       __imp____iob_func          0044e17c     msvcrt:MSVCR80.dll
 0002:00000180       __imp__strpbrk             0044e180     msvcrt:MSVCR80.dll
 0002:00000184       __imp__rename              0044e184     msvcrt:MSVCR80.dll
 0002:00000188       __imp__remove              0044e188     msvcrt:MSVCR80.dll
 0002:0000018c       __imp__strlen              0044e18c     msvcrt:MSVCR80.dll
 0002:00000190       __imp__strcmp              0044e190     msvcrt:MSVCR80.dll
 0002:00000194       __imp__strncpy             0044e194     msvcrt:MSVCR80.dll
 0002:00000198       __imp__printf              0044e198     msvcrt:MSVCR80.dll
 0002:0000019c       __imp__fabs                0044e19c     msvcrt:MSVCR80.dll
 0002:000001a0       __imp__memcmp              0044e1a0     msvcrt:MSVCR80.dll
 0002:000001a4       __imp__sin                 0044e1a4     msvcrt:MSVCR80.dll
 0002:000001a8       __imp__fclose              0044e1a8     msvcrt:MSVCR80.dll
 0002:000001ac       __imp__fprintf             0044e1ac     msvcrt:MSVCR80.dll
 0002:000001b0       __imp__fopen               0044e1b0     msvcrt:MSVCR80.dll
 0002:000001b4       __imp__qsort               0044e1b4     msvcrt:MSVCR80.dll
 0002:000001b8       __imp__memmove             0044e1b8     msvcrt:MSVCR80.dll
 0002:000001bc       __imp__cos                 0044e1bc     msvcrt:MSVCR80.dll
 0002:000001c0       __imp__abs                 0044e1c0     msvcrt:MSVCR80.dll
 0002:000001c4       __imp__strrchr             0044e1c4     msvcrt:MSVCR80.dll
 0002:000001c8       __imp__ceil                0044e1c8     msvcrt:MSVCR80.dll
 0002:000001cc       __imp__memset              0044e1cc     msvcrt:MSVCR80.dll
 0002:000001d0       __imp__sqrt                0044e1d0     msvcrt:MSVCR80.dll
 0002:000001d4       __imp__memcpy              0044e1d4     msvcrt:MSVCR80.dll
 0002:000001d8       __imp__strncmp             0044e1d8     msvcrt:MSVCR80.dll
 0002:000001dc       __imp_??3@YAXPAX@Z         0044e1dc     msvcrt:MSVCR80.dll
 0002:000001e0       __imp_??2@YAPAXI@Z         0044e1e0     msvcrt:MSVCR80.dll
 0002:000001e4       __imp___lock               0044e1e4     msvcrt:MSVCR80.dll
 0002:000001e8       __imp___vsnprintf          0044e1e8     msvcrt:MSVCR80.dll
 0002:000001ec       __imp___except_handler3    0044e1ec     msvcrt:MSVCR80.dll
 0002:000001f0       \177MSVCR80_NULL_THUNK_DATA 0044e1f0     msvcrt:MSVCR80.dll
 0002:000001f4       __imp__glColor4ub@16       0044e1f4     opengl32:OPENGL32.dll
 0002:000001f8       __imp__glGetFloatv@8       0044e1f8     opengl32:OPENGL32.dll
 0002:000001fc       __imp__glColor3f@12        0044e1fc     opengl32:OPENGL32.dll
 0002:00000200       __imp__glColor3d@24        0044e200     opengl32:OPENGL32.dll
 0002:00000204       __imp__glCallList@4        0044e204     opengl32:OPENGL32.dll
 0002:00000208       __imp__glColor3fv@4        0044e208     opengl32:OPENGL32.dll
 0002:0000020c       __imp__glTexCoord2d@16     0044e20c     opengl32:OPENGL32.dll
 0002:00000210       __imp__glGetIntegerv@8     0044e210     opengl32:OPENGL32.dll
 0002:00000214       __imp__glGetString@4       0044e214     opengl32:OPENGL32.dll
 0002:00000218       __imp__glViewport@16       0044e218     opengl32:OPENGL32.dll
 0002:0000021c       __imp__glClearColor@16     0044e21c     opengl32:OPENGL32.dll
 0002:00000220       __imp__glClearDepth@8      0044e220     opengl32:OPENGL32.dll
 0002:00000224       __imp__glShadeModel@4      0044e224     opengl32:OPENGL32.dll
 0002:00000228       __imp__glFogi@8            0044e228     opengl32:OPENGL32.dll
 0002:0000022c       __imp__glFogf@8            0044e22c     opengl32:OPENGL32.dll
 0002:00000230       __imp__glHint@8            0044e230     opengl32:OPENGL32.dll
 0002:00000234       __imp__glFogfv@8           0044e234     opengl32:OPENGL32.dll
 0002:00000238       __imp__glPolygonOffset@8   0044e238     opengl32:OPENGL32.dll
 0002:0000023c       __imp__glCullFace@4        0044e23c     opengl32:OPENGL32.dll
 0002:00000240       __imp__glNewList@8         0044e240     opengl32:OPENGL32.dll
 0002:00000244       __imp__glEndList@0         0044e244     opengl32:OPENGL32.dll
 0002:00000248       __imp__glPixelStorei@8     0044e248     opengl32:OPENGL32.dll
 0002:0000024c       __imp__glTexParameteri@12  0044e24c     opengl32:OPENGL32.dll
 0002:00000250       __imp__glTexImage2D@36     0044e250     opengl32:OPENGL32.dll
 0002:00000254       __imp__glGetTexImage@20    0044e254     opengl32:OPENGL32.dll
 0002:00000258       __imp__glRotatef@16        0044e258     opengl32:OPENGL32.dll
 0002:0000025c       __imp__glCopyTexSubImage2D@32 0044e25c     opengl32:OPENGL32.dll
 0002:00000260       __imp__glClipPlane@8       0044e260     opengl32:OPENGL32.dll
 0002:00000264       __imp__glGetClipPlane@8    0044e264     opengl32:OPENGL32.dll
 0002:00000268       __imp__glLoadMatrixf@4     0044e268     opengl32:OPENGL32.dll
 0002:0000026c       __imp__glClear@4           0044e26c     opengl32:OPENGL32.dll
 0002:00000270       __imp__glVertex3fv@4       0044e270     opengl32:OPENGL32.dll
 0002:00000274       __imp__glAlphaFunc@8       0044e274     opengl32:OPENGL32.dll
 0002:00000278       __imp__glNormal3fv@4       0044e278     opengl32:OPENGL32.dll
 0002:0000027c       __imp__glMultMatrixf@4     0044e27c     opengl32:OPENGL32.dll
 0002:00000280       __imp__glNormalPointer@12  0044e280     opengl32:OPENGL32.dll
 0002:00000284       __imp__glColor3ubv@4       0044e284     opengl32:OPENGL32.dll
 0002:00000288       __imp__glDeleteTextures@8  0044e288     opengl32:OPENGL32.dll
 0002:0000028c       __imp__glDepthRange@16     0044e28c     opengl32:OPENGL32.dll
 0002:00000290       __imp__glColor4ubv@4       0044e290     opengl32:OPENGL32.dll
 0002:00000294       __imp__glReadPixels@28     0044e294     opengl32:OPENGL32.dll
 0002:00000298       __imp__glVertex2i@8        0044e298     opengl32:OPENGL32.dll
 0002:0000029c       __imp__glTexCoord2iv@4     0044e29c     opengl32:OPENGL32.dll
 0002:000002a0       __imp__glDepthFunc@4       0044e2a0     opengl32:OPENGL32.dll
 0002:000002a4       __imp__glMatrixMode@4      0044e2a4     opengl32:OPENGL32.dll
 0002:000002a8       __imp__glTexEnvf@12        0044e2a8     opengl32:OPENGL32.dll
 0002:000002ac       __imp__glTexGeni@12        0044e2ac     opengl32:OPENGL32.dll
 0002:000002b0       __imp__glTexGenfv@12       0044e2b0     opengl32:OPENGL32.dll
 0002:000002b4       __imp__glTexCoordPointer@16 0044e2b4     opengl32:OPENGL32.dll
 0002:000002b8       __imp__glColorPointer@16   0044e2b8     opengl32:OPENGL32.dll
 0002:000002bc       __imp__glDisableClientState@4 0044e2bc     opengl32:OPENGL32.dll
 0002:000002c0       __imp__glGenTextures@8     0044e2c0     opengl32:OPENGL32.dll
 0002:000002c4       __imp__glBegin@4           0044e2c4     opengl32:OPENGL32.dll
 0002:000002c8       __imp__glVertex3f@12       0044e2c8     opengl32:OPENGL32.dll
 0002:000002cc       __imp__glEnd@0             0044e2cc     opengl32:OPENGL32.dll
 0002:000002d0       __imp__glEnable@4          0044e2d0     opengl32:OPENGL32.dll
 0002:000002d4       __imp__glBlendFunc@8       0044e2d4     opengl32:OPENGL32.dll
 0002:000002d8       __imp__glColor3ub@12       0044e2d8     opengl32:OPENGL32.dll
 0002:000002dc       __imp__glDisable@4         0044e2dc     opengl32:OPENGL32.dll
 0002:000002e0       __imp__glDepthMask@4       0044e2e0     opengl32:OPENGL32.dll
 0002:000002e4       __imp__glLoadIdentity@0    0044e2e4     opengl32:OPENGL32.dll
 0002:000002e8       __imp__glOrtho@48          0044e2e8     opengl32:OPENGL32.dll
 0002:000002ec       __imp__glBindTexture@8     0044e2ec     opengl32:OPENGL32.dll
 0002:000002f0       __imp__glColor4f@16        0044e2f0     opengl32:OPENGL32.dll
 0002:000002f4       __imp__glTexCoord2f@8      0044e2f4     opengl32:OPENGL32.dll
 0002:000002f8       __imp__glVertex2f@8        0044e2f8     opengl32:OPENGL32.dll
 0002:000002fc       __imp__glPopMatrix@0       0044e2fc     opengl32:OPENGL32.dll
 0002:00000300       __imp__glPushMatrix@0      0044e300     opengl32:OPENGL32.dll
 0002:00000304       __imp__glTranslatef@12     0044e304     opengl32:OPENGL32.dll
 0002:00000308       __imp__glScalef@12         0044e308     opengl32:OPENGL32.dll
 0002:0000030c       __imp__glTexEnvi@12        0044e30c     opengl32:OPENGL32.dll
 0002:00000310       __imp__glVertex3i@12       0044e310     opengl32:OPENGL32.dll
 0002:00000314       __imp__glColorMask@16      0044e314     opengl32:OPENGL32.dll
 0002:00000318       __imp__glFlush@0           0044e318     opengl32:OPENGL32.dll
 0002:0000031c       __imp__glEnableClientState@4 0044e31c     opengl32:OPENGL32.dll
 0002:00000320       __imp__glPolygonMode@8     0044e320     opengl32:OPENGL32.dll
 0002:00000324       __imp__glVertexPointer@16  0044e324     opengl32:OPENGL32.dll
 0002:00000328       __imp__glDrawElements@16   0044e328     opengl32:OPENGL32.dll
 0002:0000032c       __imp__glTexCoord2i@8      0044e32c     opengl32:OPENGL32.dll
 0002:00000330       \177OPENGL32_NULL_THUNK_DATA 0044e330     opengl32:OPENGL32.dll
 0002:00000334       __imp__SDL_EnableKeyRepeat 0044e334     SDL:SDL.dll
 0002:00000338       __imp__SDL_Delay           0044e338     SDL:SDL.dll
 0002:0000033c       __imp__SDL_Init            0044e33c     SDL:SDL.dll
 0002:00000340       __imp__SDL_GL_SetAttribute 0044e340     SDL:SDL.dll
 0002:00000344       __imp__SDL_SetVideoMode    0044e344     SDL:SDL.dll
 0002:00000348       __imp__SDL_WM_SetCaption   0044e348     SDL:SDL.dll
 0002:0000034c       __imp__SDL_WM_GrabInput    0044e34c     SDL:SDL.dll
 0002:00000350       __imp__SDL_WarpMouse       0044e350     SDL:SDL.dll
 0002:00000354       __imp__SDL_SetModuleHandle 0044e354     SDL:SDL.dll
 0002:00000358       __imp__SDL_strlcpy         0044e358     SDL:SDL.dll
 0002:0000035c       __imp__SDL_GetError        0044e35c     SDL:SDL.dll
 0002:00000360       __imp__SDL_GL_SwapBuffers  0044e360     SDL:SDL.dll
 0002:00000364       __imp__SDL_GetTicks        0044e364     SDL:SDL.dll
 0002:00000368       __imp__SDL_PollEvent       0044e368     SDL:SDL.dll
 0002:0000036c       __imp__SDL_AddTimer        0044e36c     SDL:SDL.dll
 0002:00000370       __imp__SDL_RemoveTimer     0044e370     SDL:SDL.dll
 0002:00000374       __imp__SDL_CreateRGBSurface 0044e374     SDL:SDL.dll
 0002:00000378       __imp__SDL_SaveBMP_RW      0044e378     SDL:SDL.dll
 0002:0000037c       __imp__SDL_RWFromFile      0044e37c     SDL:SDL.dll
 0002:00000380       __imp__SDL_FreeSurface     0044e380     SDL:SDL.dll
 0002:00000384       __imp__SDL_mutexP          0044e384     SDL:SDL.dll
 0002:00000388       __imp__SDL_mutexV          0044e388     SDL:SDL.dll
 0002:0000038c       __imp__SDL_GetThreadID     0044e38c     SDL:SDL.dll
 0002:00000390       __imp__SDL_ThreadID        0044e390     SDL:SDL.dll
 0002:00000394       __imp__SDL_CondWait        0044e394     SDL:SDL.dll
 0002:00000398       __imp__SDL_CondSignal      0044e398     SDL:SDL.dll
 0002:0000039c       __imp__SDL_CreateMutex     0044e39c     SDL:SDL.dll
 0002:000003a0       __imp__SDL_CreateCond      0044e3a0     SDL:SDL.dll
 0002:000003a4       __imp__SDL_CreateThread    0044e3a4     SDL:SDL.dll
 0002:000003a8       __imp__SDL_KillThread      0044e3a8     SDL:SDL.dll
 0002:000003ac       __imp__SDL_CondWaitTimeout 0044e3ac     SDL:SDL.dll
 0002:000003b0       __imp__SDL_GL_GetProcAddress 0044e3b0     SDL:SDL.dll
 0002:000003b4       __imp__SDL_UpperBlit       0044e3b4     SDL:SDL.dll
 0002:000003b8       __imp__SDL_EnableUNICODE   0044e3b8     SDL:SDL.dll
 0002:000003bc       __imp__SDL_GetModState     0044e3bc     SDL:SDL.dll
 0002:000003c0       __imp__SDL_ShowCursor      0044e3c0     SDL:SDL.dll
 0002:000003c4       __imp__SDL_Quit            0044e3c4     SDL:SDL.dll
 0002:000003c8       __imp__SDL_SetGamma        0044e3c8     SDL:SDL.dll
 0002:000003cc       \177SDL_NULL_THUNK_DATA    0044e3cc     SDL:SDL.dll
 0002:000003d0       __imp__IMG_Load            0044e3d0     SDL_image:SDL_image.dll
 0002:000003d4       \177SDL_image_NULL_THUNK_DATA 0044e3d4     SDL_image:SDL_image.dll
 0002:000003d8       __imp__Mix_AllocateChannels 0044e3d8     SDL_mixer:SDL_mixer.dll
 0002:000003dc       __imp__Mix_LoadMUS         0044e3dc     SDL_mixer:SDL_mixer.dll
 0002:000003e0       __imp__Mix_PlayMusic       0044e3e0     SDL_mixer:SDL_mixer.dll
 0002:000003e4       __imp__Mix_CloseAudio      0044e3e4     SDL_mixer:SDL_mixer.dll
 0002:000003e8       __imp__Mix_Volume          0044e3e8     SDL_mixer:SDL_mixer.dll
 0002:000003ec       __imp__Mix_SetPanning      0044e3ec     SDL_mixer:SDL_mixer.dll
 0002:000003f0       __imp__Mix_Playing         0044e3f0     SDL_mixer:SDL_mixer.dll
 0002:000003f4       __imp__Mix_PlayingMusic    0044e3f4     SDL_mixer:SDL_mixer.dll
 0002:000003f8       __imp__Mix_LoadWAV_RW      0044e3f8     SDL_mixer:SDL_mixer.dll
 0002:000003fc       __imp__Mix_PlayChannelTimed 0044e3fc     SDL_mixer:SDL_mixer.dll
 0002:00000400       __imp__Mix_OpenAudio       0044e400     SDL_mixer:SDL_mixer.dll
 0002:00000404       __imp__Mix_VolumeMusic     0044e404     SDL_mixer:SDL_mixer.dll
 0002:00000408       __imp__Mix_HaltMusic       0044e408     SDL_mixer:SDL_mixer.dll
 0002:0000040c       __imp__Mix_FreeMusic       0044e40c     SDL_mixer:SDL_mixer.dll
 0002:00000410       \177SDL_mixer_NULL_THUNK_DATA 0044e410     SDL_mixer:SDL_mixer.dll
 0002:00000414       __imp__OpenClipboard@4     0044e414     user32:USER32.dll
 0002:00000418       __imp__IsClipboardFormatAvailable@4 0044e418     user32:USER32.dll
 0002:0000041c       __imp__CloseClipboard@0    0044e41c     user32:USER32.dll
 0002:00000420       __imp__MessageBoxA@16      0044e420     user32:USER32.dll
 0002:00000424       __imp__GetClipboardData@4  0044e424     user32:USER32.dll
 0002:00000428       \177USER32_NULL_THUNK_DATA 0044e428     user32:USER32.dll
 0002:0000042c       __imp__timeGetTime@0       0044e42c     winmm:WINMM.dll
 0002:00000430       __imp__timeEndPeriod@4     0044e430     winmm:WINMM.dll
 0002:00000434       __imp__timeBeginPeriod@4   0044e434     winmm:WINMM.dll
 0002:00000438       \177WINMM_NULL_THUNK_DATA  0044e438     winmm:WINMM.dll
 0002:0000043c       __imp__WSASendTo@36        0044e43c     ws2_32:WS2_32.dll
 0002:00000440       __imp__ntohl@4             0044e440     ws2_32:WS2_32.dll
 0002:00000444       __imp__ntohs@4             0044e444     ws2_32:WS2_32.dll
 0002:00000448       __imp__htonl@4             0044e448     ws2_32:WS2_32.dll
 0002:0000044c       __imp__htons@4             0044e44c     ws2_32:WS2_32.dll
 0002:00000450       __imp__WSARecvFrom@36      0044e450     ws2_32:WS2_32.dll
 0002:00000454       __imp__ioctlsocket@12      0044e454     ws2_32:WS2_32.dll
 0002:00000458       __imp__connect@12          0044e458     ws2_32:WS2_32.dll
 0002:0000045c       __imp__inet_ntoa@4         0044e45c     ws2_32:WS2_32.dll
 0002:00000460       __imp__WSAStartup@8        0044e460     ws2_32:WS2_32.dll
 0002:00000464       __imp__inet_addr@4         0044e464     ws2_32:WS2_32.dll
 0002:00000468       __imp__select@20           0044e468     ws2_32:WS2_32.dll
 0002:0000046c       __imp__WSAGetLastError@0   0044e46c     ws2_32:WS2_32.dll
 0002:00000470       __imp__setsockopt@20       0044e470     ws2_32:WS2_32.dll
 0002:00000474       __imp__WSACleanup@0        0044e474     ws2_32:WS2_32.dll
 0002:00000478       __imp__bind@12             0044e478     ws2_32:WS2_32.dll
 0002:0000047c       __imp__socket@12           0044e47c     ws2_32:WS2_32.dll
 0002:00000480       __imp____WSAFDIsSet@8      0044e480     ws2_32:WS2_32.dll
 0002:00000484       __imp__closesocket@4       0044e484     ws2_32:WS2_32.dll
 0002:00000488       __imp__gethostbyaddr@12    0044e488     ws2_32:WS2_32.dll
 0002:0000048c       __imp__gethostbyname@4     0044e48c     ws2_32:WS2_32.dll
 0002:00000490       __imp__listen@8            0044e490     ws2_32:WS2_32.dll
 0002:00000494       \177WS2_32_NULL_THUNK_DATA 0044e494     ws2_32:WS2_32.dll
 0002:00000498       __imp__SymGetLineFromAddr@16 0044e498     dbghelp:dbghelp.dll
 0002:0000049c       __imp__SymGetSymFromAddr@16 0044e49c     dbghelp:dbghelp.dll
 0002:000004a0       __imp__SymFunctionTableAccess@8 0044e4a0     dbghelp:dbghelp.dll
 0002:000004a4       __imp__SymGetModuleBase@8  0044e4a4     dbghelp:dbghelp.dll
 0002:000004a8       __imp__StackWalk@36        0044e4a8     dbghelp:dbghelp.dll
 0002:000004ac       __imp__SymInitialize@12    0044e4ac     dbghelp:dbghelp.dll
 0002:000004b0       \177dbghelp_NULL_THUNK_DATA 0044e4b0     dbghelp:dbghelp.dll
 0002:000004b4       __imp__gzwrite             0044e4b4     zdll:zlib1.dll
 0002:000004b8       __imp__gzclose             0044e4b8     zdll:zlib1.dll
 0002:000004bc       __imp__gzgetc              0044e4bc     zdll:zlib1.dll
 0002:000004c0       __imp__gzread              0044e4c0     zdll:zlib1.dll
 0002:000004c4       __imp__gzopen              0044e4c4     zdll:zlib1.dll
 0002:000004c8       __imp__gzputc              0044e4c8     zdll:zlib1.dll
 0002:000004cc       \177zlib1_NULL_THUNK_DATA  0044e4cc     zdll:zlib1.dll
 0002:000004d0       ___xc_a                    0044e4d0     msvcrt:cinitexe.obj
 0002:00000a60       ___xc_z                    0044ea60     msvcrt:cinitexe.obj
 0002:00000a64       ___xi_a                    0044ea64     msvcrt:cinitexe.obj
 0002:00000a70       ___xi_z                    0044ea70     msvcrt:cinitexe.obj
 0002:00000aa0       ??_7type_info@@6B@         0044eaa0     msvcrt:ti_inst.obj
 0002:00000cf0       ?skiny@gui@@2QBHB          0044ecf0     3dgui.obj
 0002:00000d14       ?skinx@gui@@2QBHB          0044ed14     3dgui.obj
 0002:00000d40       ?patches@gui@@2QBUpatch@1@B 0044ed40     3dgui.obj
 0002:00000fdc       ?fv@@3QAY03$$CBGA          0044efdc     octa.obj
 0002:0000100c       ?faceedgesidx@@3QAY03$$CBEA 0044f00c     octa.obj
 0002:000010a8       ??_C@_0BA@HBMBINDF@importcuberemip?$AA@ 0044f0a8     cubeloader.obj
 0002:000010b8       ??_C@_04FCMNJMCO@?$CFd?$CF?$CF?$AA@ 0044f0b8     cubeloader.obj
 0002:000010c0       ??_C@_0BC@BCINKHFP@creating?5cubes?4?4?4?$AA@ 0044f0c0     cubeloader.obj
 0002:000010d4       ??_C@_07KMMCDPHI@cube?1?$CFs?$AA@ 0044f0d4     cubeloader.obj
 0002:000010dc       ??_C@_0BA@OFNGFJLA@packages?1?$CFs?4cgz?$AA@ 0044f0dc     cubeloader.obj
 0002:000010ec       ??_C@_03FKFKNKAA@rb9?$AA@  0044f0ec     cubeloader.obj
 0002:000010f0       ??_C@_0BL@MOCCFNFE@could?5not?5read?5cube?5map?5?$CFs?$AA@ 0044f0f0     cubeloader.obj
 0002:0000110c       ??_C@_04CEENDHAF@CUBE?$AA@ 0044f10c     cubeloader.obj
 0002:00001111       ??_C@_00CNPNBAHC@?$AA@     0044f111     cubeloader.obj
 0002:00001114       ??_C@_0CH@FDNECKOJ@while?5reading?5map?3?5header?5malfor@ 0044f114     cubeloader.obj
 0002:0000113c       ??_C@_0DB@KNKANAJE@this?5map?5requires?5a?5newer?5versio@ 0044f13c     cubeloader.obj
 0002:00001170       ??_C@_0N@HKPFLAFL@importing?5?$CFs?$AA@ 0044f170     cubeloader.obj
 0002:00001180       ??_C@_07JEMIPMLL@?$CFd?5?$EA?5?$CFd?$AA@ 0044f180     cubeloader.obj
 0002:00001188       ??_C@_0CH@JAGAMOFA@while?5reading?5map?3?5type?5out?5of?5r@ 0044f188     cubeloader.obj
 0002:000011b0       ??_C@_0CD@EPGLADAI@read?5cube?5map?5?$CFs?5?$CI?$CFd?5millisecond@ 0044f1b0     cubeloader.obj
 0002:000011d4       ??_C@_0BF@FPGPPMPD@packages?1cube?1?$CFs?4cfg?$AA@ 0044f1d4     cubeloader.obj
 0002:000011ec       ??_C@_0BK@FMCKCEIA@packages?1cube?1package?4cfg?$AA@ 0044f1ec     cubeloader.obj
 0002:00001208       ??_C@_01LKDEMHDF@s?$AA@    0044f208     cubeloader.obj
 0002:0000120c       ??_C@_0L@FIHOELOG@importcube?$AA@ 0044f20c     cubeloader.obj
 0002:00001218       ??_C@_0P@HLFCKHKL@lightprecision?$AA@ 0044f218     lightmap.obj
 0002:00001228       ??_C@_0L@IEPABEDF@lighterror?$AA@ 0044f228     lightmap.obj
 0002:00001234       ??_C@_09JAEKHCCH@bumperror?$AA@ 0044f234     lightmap.obj
 0002:00001240       ??_C@_08PJALPBCH@lightlod?$AA@ 0044f240     lightmap.obj
 0002:0000124c       ??_C@_08NPGGECPB@worldlod?$AA@ 0044f24c     lightmap.obj
 0002:00001258       ??_C@_07LIABELBC@ambient?$AA@ 0044f258     lightmap.obj
 0002:00001260       ??_C@_0BK@HPCEEBNL@?$CFd?5textures?5?$CFd?$CF?$CF?5utilized?$AA@ 0044f260     lightmap.obj
 0002:0000127c       ??_C@_0O@BIFMPIKC@lightcompress?$AA@ 0044f27c     lightmap.obj
 0002:0000128c       ??_C@_0O@NMNBENPE@edgetolerance?$AA@ 0044f28c     lightmap.obj
 0002:0000129c       ??_C@_0P@IEPOFCMK@adaptivesample?$AA@ 0044f29c     lightmap.obj
 0002:000012ac       ??_C@_0P@GIDFMGKC@lightcachesize?$AA@ 0044f2ac     lightmap.obj
 0002:000012bc       ??_C@_0CL@FDCAGGNC@valid?5range?5for?5calclight?5qualit@ 0044f2bc     lightmap.obj
 0002:000012e8       ??_C@_0CG@NAICJAFF@computing?5lightmaps?4?4?4?5?$CIesc?5to?5a@ 0044f2e8     lightmap.obj
 0002:00001310       ??_C@_0BB@BNPILHCM@lighting?5done?4?4?4?$AA@ 0044f310     lightmap.obj
 0002:00001324       ??_C@_0BC@JJACDAHL@calclight?5aborted?$AA@ 0044f324     lightmap.obj
 0002:00001338       ??_C@_0EA@PDNDMFEG@generated?5?$CFd?5lightmaps?5using?5?$CFd?$CF@ 0044f338     lightmap.obj
 0002:00001378       ??_C@_01KBJDNOO@i?$AA@     0044f378     lightmap.obj
 0002:0000137c       ??_C@_09BANFGNFM@calclight?$AA@ 0044f37c     lightmap.obj
 0002:00001388       ??_C@_0CF@PAJDEPLO@patching?5lightmaps?4?4?4?5?$CIesc?5to?5ab@ 0044f388     lightmap.obj
 0002:000013b0       ??_C@_0BF@MBCHIICN@computing?5normals?4?4?4?$AA@ 0044f3b0     lightmap.obj
 0002:000013c8       ??_C@_0BD@OKOKEINJ@patchlight?5aborted?$AA@ 0044f3c8     lightmap.obj
 0002:000013dc       ??_C@_0DO@BIPOHHDP@patched?5?$CFd?5lightmaps?5using?5?$CFd?$CF?$CF?5@ 0044f3dc     lightmap.obj
 0002:0000141c       ??_C@_0L@FPHPHHGA@patchlight?$AA@ 0044f41c     lightmap.obj
 0002:00001428       ??_C@_0L@GEONJGBK@fullbright?$AA@ 0044f428     lightmap.obj
 0002:00001434       ??_C@_0L@CFOHJAIM@convertlms?$AA@ 0044f434     lightmap.obj
 0002:00001440       ??_C@_0BD@GBGDLMHK@lightmap_?$CFs_?$CFd?4bmp?$AA@ 0044f440     lightmap.obj
 0002:00001454       ??_C@_02GMLFBBN@wb?$AA@    0044f454     lightmap.obj
 0002:00001458       ??_C@_07IHJLHON@dumplms?$AA@ 0044f458     lightmap.obj
 0002:00001460       ??_C@_09NJFLIGJF@lerpangle?$AA@ 0044f460     normal.obj
 0002:0000146c       ??_C@_0L@GEMHMDHJ@lerpsubdiv?$AA@ 0044f46c     normal.obj
 0002:00001478       ??_C@_0P@PCAKHDDF@lerpsubdivsize?$AA@ 0044f478     normal.obj
 0002:00001488       ??_C@_0BJ@MAFBKHJN@?$DN?5?$CFp?5?$DN?5?$CI?$CFd?0?5?$CFd?0?5?$CFd?$CJ?5?$EA?5?$CFd?$AA@ 0044f488     octa.obj
 0002:000014a4       ??_C@_08KIPBOANC@?5x?5?5?$CF?48x?$AA@ 0044f4a4     octa.obj
 0002:000014b0       ??_C@_08GEFLOAEM@?5y?5?5?$CF?48x?$AA@ 0044f4b0     octa.obj
 0002:000014bc       ??_C@_08OKNEOHKP@?5z?5?5?$CF?48x?$AA@ 0044f4bc     octa.obj
 0002:000014c8       ??_C@_09GBFNOHCC@printcube?$AA@ 0044f4c8     octa.obj
 0002:000014d4       ??_C@_06FDJLJGCD@mipvis?$AA@ 0044f4d4     octa.obj
 0002:000014dc       ??_C@_05PIHAKMCM@remip?$AA@ 0044f4dc     octa.obj
 0002:000014e4       ??_C@_0CF@LIEBPPBH@WARNING?3?5old?5map?0?5use?5savecurren@ 0044f4e4     octa.obj
 0002:0000150c       ??_C@_07DKBAAKPA@minface?$AA@ 0044f50c     octa.obj
 0002:00001514       ??_C@_08GIAHNCC@maxmerge?$AA@ 0044f514     octa.obj
 0002:00001520       ??_C@_0BE@IKKCKJEH@merging?5surfaces?4?4?4?$AA@ 0044f520     octa.obj
 0002:00001534       ??_C@_08MLPFNNDJ@dragging?$AA@ 0044f534     octaedit.obj
 0002:00001540       ??_C@_0O@CMDPCADK@selectcorners?$AA@ 0044f540     octaedit.obj
 0002:00001550       ??_C@_06CJBJAGIH@moving?$AA@ 0044f550     octaedit.obj
 0002:00001558       ??_C@_09PEPLNHHC@gridpower?$AA@ 0044f558     octaedit.obj
 0002:00001564       ??_C@_0BA@IFEGHEHN@passthroughcube?$AA@ 0044f564     octaedit.obj
 0002:00001574       ??_C@_0P@MMCAOJOE@passthroughsel?$AA@ 0044f574     octaedit.obj
 0002:00001584       ??_C@_07HAFNFNOB@editing?$AA@ 0044f584     octaedit.obj
 0002:0000158c       ??_C@_0CE@FFBGEABP@operation?5only?5allowed?5in?5edit?5m@ 0044f58c     octaedit.obj
 0002:000015b0       ??_C@_0BG@KMLAPNDI@selection?5not?5in?5view?$AA@ 0044f5b0     octaedit.obj
 0002:000015c8       ??_C@_0L@IAAMPIAA@edittoggle?$AA@ 0044f5c8     octaedit.obj
 0002:000015d4       ??_C@_09GGDDKLMH@entcancel?$AA@ 0044f5d4     octaedit.obj
 0002:000015e0       ??_C@_0L@FGIDMBCN@cubecancel?$AA@ 0044f5e0     octaedit.obj
 0002:000015ec       ??_C@_09OIKHHPFL@cancelsel?$AA@ 0044f5ec     octaedit.obj
 0002:000015f8       ??_C@_08PFHMHGMO@reorient?$AA@ 0044f5f8     octaedit.obj
 0002:00001604       ??_C@_09ONDGDNFE@selextend?$AA@ 0044f604     octaedit.obj
 0002:00001610       ??_C@_07MGGFOIDK@havesel?$AA@ 0044f610     octaedit.obj
 0002:00001618       ??_C@_08MECIEJGG@undomegs?$AA@ 0044f618     octaedit.obj
 0002:00001624       ??_C@_0BD@KNNPPEDE@nothing?5more?5to?5?$CFs?$AA@ 0044f624     octaedit.obj
 0002:00001638       ??_C@_04HOKNPDPJ@undo?$AA@ 0044f638     octaedit.obj
 0002:00001640       ??_C@_04BLIMKIOI@redo?$AA@ 0044f640     octaedit.obj
 0002:00001648       ??_C@_04COAGEIMF@copy?$AA@ 0044f648     octaedit.obj
 0002:00001650       ??_C@_01CKDDGHAB@D?$AA@    0044f650     octaedit.obj
 0002:00001654       ??_C@_05NDLFFNHM@paste?$AA@ 0044f654     octaedit.obj
 0002:0000165c       ??_C@_0N@GPODCKIB@getheightmap?$AA@ 0044f65c     octaedit.obj
 0002:0000166c       ??_C@_06NBMKNICM@brushx?$AA@ 0044f66c     octaedit.obj
 0002:00001674       ??_C@_06MINBOJGN@brushy?$AA@ 0044f674     octaedit.obj
 0002:0000167c       ??_C@_0CH@NILGMPBL@Selection?5is?5too?5big?5to?5generate@ 0044f67c     octaedit.obj
 0002:000016a4       ??_C@_01MCMALHOG@a?$AA@    0044f6a4     octaedit.obj
 0002:000016a8       ??_C@_0O@PFNJIDBG@mybrushes?4cfg?$AA@ 0044f6a8     octaedit.obj
 0002:000016b8       ??_C@_0BH@MFFJJMD@newbrush?5?$CC?$CFs?$CC?5?$CFd?5?$CFd?5?$FL?6?$AA@ 0044f6b8     octaedit.obj
 0002:000016d0       ??_C@_03BFKGDNFC@?$CC?$CC?6?$AA@ 0044f6d0     octaedit.obj
 0002:000016d4       ??_C@_01BJJEKLCA@?$CC?$AA@ 0044f6d4     octaedit.obj
 0002:000016d8       ??_C@_03JDANDILB@?$CFd?5?$AA@ 0044f6d8     octaedit.obj
 0002:000016dc       ??_C@_02MBJIFMOJ@?$CC?6?$AA@ 0044f6dc     octaedit.obj
 0002:000016e0       ??_C@_03BAKEJKMA@?$FN?6?6?$AA@ 0044f6e0     octaedit.obj
 0002:000016e4       ??_C@_0BB@OKMBGJOG@Brush?5?$CC?$CFs?$CC?5saved?$AA@ 0044f6e4     octaedit.obj
 0002:000016f8       ??_C@_0L@IGILIFOO@clearbrush?$AA@ 0044f6f8     octaedit.obj
 0002:00001704       ??_C@_03GLKMLICL@iii?$AA@  0044f704     octaedit.obj
 0002:00001708       ??_C@_09KMOJGCHA@brushvert?$AA@ 0044f708     octaedit.obj
 0002:00001714       ??_C@_09BBIDBIBB@copybrush?$AA@ 0044f714     octaedit.obj
 0002:00001720       ??_C@_09JIPOLNFG@savebrush?$AA@ 0044f720     octaedit.obj
 0002:0000172c       ??_C@_0BB@PDFCDJPB@invalidcubeguard?$AA@ 0044f72c     octaedit.obj
 0002:00001740       ??_C@_07FCPHCPHL@pushsel?$AA@ 0044f740     octaedit.obj
 0002:00001748       ??_C@_02PDIHAGKM@ii?$AA@   0044f748     octaedit.obj
 0002:0000174c       ??_C@_08BCMNDPAK@editface?$AA@ 0044f74c     octaedit.obj
 0002:00001758       ??_C@_07LJGOPPCL@delcube?$AA@ 0044f758     octaedit.obj
 0002:00001760       ??_C@_08IANOCEHK@allfaces?$AA@ 0044f760     octaedit.obj
 0002:0000176c       ??_C@_07BDCBDDNM@edittex?$AA@ 0044f76c     octaedit.obj
 0002:00001774       ??_C@_06DFEOEHPC@gettex?$AA@ 0044f774     octaedit.obj
 0002:0000177c       ??_C@_0CG@JDIDDNFG@can?5only?5replace?5after?5a?5texture@ 0044f77c     octaedit.obj
 0002:000017a4       ??_C@_07CLEHDIEJ@replace?$AA@ 0044f7a4     octaedit.obj
 0002:000017ac       ??_C@_04DGGGELON@flip?$AA@ 0044f7ac     octaedit.obj
 0002:000017b4       ??_C@_06CEHMNFAL@rotate?$AA@ 0044f7b4     octaedit.obj
 0002:000017bc       ??_C@_0BG@HGOHELP@unknown?5material?5?$CC?$CFs?$CC?$AA@ 0044f7bc     octaedit.obj
 0002:000017d4       ??_C@_07JFIMMMBJ@editmat?$AA@ 0044f7d4     octaedit.obj
 0002:000017dc       ??_C@_07COPKBG@rgbonly?$AA@ 0044f7dc     octaedit.obj
 0002:000017e8       ??_7?$tident@X@@6B@        0044f7e8     octaedit.obj
 0002:000017f4       ??_7cmd_havesel@@6B@       0044f7f4     octaedit.obj
 0002:000017fc       ??_C@_0L@PLANPNFO@showcstats?$AA@ 0044f7fc     octarender.obj
 0002:00001808       ??_C@_0CB@GPPDKOOA@?$CFd?3?5?$CFd?5faces?0?5?$CFd?5leafs?0?5?$CFd?5nodes@ 0044f808     octarender.obj
 0002:0000182c       ??_C@_08PJIFMMEF@floatvtx?$AA@ 0044f82c     octarender.obj
 0002:00001838       ??_C@_08MAMAAIBM@printvbo?$AA@ 0044f838     octarender.obj
 0002:00001844       ??_C@_07KMNJAIDA@vbosize?$AA@ 0044f844     octarender.obj
 0002:0000184c       ??_C@_0CC@CJMJGMBH@vbo?5?$CFd?3?5type?5?$CFd?0?5size?5?$CFd?0?5?$CFd?5use@ 0044f84c     octarender.obj
 0002:00001870       ??_C@_07EKLCLENA@lodsize?$AA@ 0044f870     octarender.obj
 0002:00001878       ??_C@_0M@BMPKAEOC@loddistance?$AA@ 0044f878     octarender.obj
 0002:00001884       ??_C@_09DPFPIEDO@vacubemax?$AA@ 0044f884     octarender.obj
 0002:00001890       ??_C@_0L@MADEAIKP@vacubesize?$AA@ 0044f890     octarender.obj
 0002:0000189c       ??_C@_09CNNEGAFB@vacubemin?$AA@ 0044f89c     octarender.obj
 0002:000018a8       ??_C@_0BK@IIPIFLME@recalculating?5geometry?4?4?4?$AA@ 0044f8a8     octarender.obj
 0002:000018c4       ??_C@_0BC@CDEPGEL@generating?5LOD?4?4?4?$AA@ 0044f8c4     octarender.obj
 0002:000018d8       ??_C@_0BB@ENMEHAAO@clearing?5VBOs?4?4?4?$AA@ 0044f8d8     octarender.obj
 0002:000018ec       ??_C@_06BDEIOILB@recalc?$AA@ 0044f8ec     octarender.obj
 0002:000018f4       ??_C@_03KJMBPJEB@fog?$AA@  0044f8f4     octarender.obj
 0002:000018f8       ??_C@_07EOKGHBAA@oqfrags?$AA@ 0044f8f8     octarender.obj
 0002:00001900       ??_C@_09GDOPFCPM@oqreflect?$AA@ 0044f900     octarender.obj
 0002:0000190c       ??_C@_04GBGAGCBO@oqmm?$AA@ 0044f90c     octarender.obj
 0002:00001914       ??_C@_07PNNKHJNH@outline?$AA@ 0044f914     octarender.obj
 0002:0000191c       ??_C@_08PNHKPKBG@fogworld?$AA@ 0044f91c     octarender.obj
 0002:00001928       ??_C@_06OIGLMBBG@oqdist?$AA@ 0044f928     octarender.obj
 0002:00001930       ??_C@_05MMGJPMGO@zpass?$AA@ 0044f930     octarender.obj
 0002:00001938       ??_C@_06LLFFKDIG@?$CFs?4obj?$AA@ 0044f938     octarender.obj
 0002:00001940       ??_C@_01NOFIACDB@w?$AA@    0044f940     octarender.obj
 0002:00001944       ??_C@_0CB@GLHKDNLM@?$CD?5obj?5file?5of?5sauerbraten?5level?6@ 0044f944     octarender.obj
 0002:00001968       ??_C@_0M@HFLAEIDA@v?5?$CFd?5?$CFd?5?$CFd?6?$AA@ 0044f968     octarender.obj
 0002:00001974       ??_C@_01INIBCBCB@f?$AA@    0044f974     octarender.obj
 0002:00001978       ??_C@_03EBJOKFHF@?5?$CFd?$AA@ 0044f978     octarender.obj
 0002:0000197c       ??_C@_01EEMJAFIK@?6?$AA@   0044f97c     octarender.obj
 0002:00001980       ??_C@_08LAKBGEK@writeobj?$AA@ 0044f980     octarender.obj
 0002:0000198c       ??_C@_06DPMIMFNG@bounce?$AA@ 0044f98c     physics.obj
 0002:00001994       ??_C@_09HKLMEOCN@step?5down?$AA@ 0044f994     physics.obj
 0002:000019a0       ??_C@_07NMPJEAII@step?5up?$AA@ 0044f9a0     physics.obj
 0002:000019a8       ??_C@_05PBJFFIGL@floor?$AA@ 0044f9a8     physics.obj
 0002:000019b0       ??_C@_05LAHHKLJI@slope?$AA@ 0044f9b0     physics.obj
 0002:000019b8       ??_C@_05IODDPPOI@slide?$AA@ 0044f9b8     physics.obj
 0002:000019c0       ??_C@_04CELAAMIG@fall?$AA@ 0044f9c0     physics.obj
 0002:000019c8       ??_C@_05KNFBNCOH@float?$AA@ 0044f9c8     physics.obj
 0002:000019d0       ??_C@_0L@IAAJNJIP@dynentsize?$AA@ 0044f9d0     physics.obj
 0002:000019e0       ??_C@_0EP@FPPBJMBJ@PHYS?$CIpl?$CJ?3?5?$CFs?0?5air?5?$CFd?0?5floor?3?5?$CI?$CFf@ 0044f9e0     physics.obj
 0002:00001a30       ??_C@_0FA@KGAIIKF@PHYS?$CIcam?$CJ?3?5?$CFs?0?5air?5?$CFd?0?5floor?3?5?$CI?$CF@ 0044fa30     physics.obj
 0002:00001a80       ??_C@_08DFDFCNI@phystest?$AA@ 0044fa80     physics.obj
 0002:00001a8c       ??_C@_07HDFBBPBE@maxroll?$AA@ 0044fa8c     physics.obj
 0002:00001a94       ??_C@_0N@LAEBFNGA@minframetime?$AA@ 0044fa94     physics.obj
 0002:00001aa4       ??_C@_08DBMDPFJD@backward?$AA@ 0044faa4     physics.obj
 0002:00001ab0       ??_C@_07CJMBKHEI@forward?$AA@ 0044fab0     physics.obj
 0002:00001ab8       ??_C@_04GOOOJOPP@left?$AA@ 0044fab8     physics.obj
 0002:00001ac0       ??_C@_05DHJDAOHK@right?$AA@ 0044fac0     physics.obj
 0002:00001ac8       ??_C@_04NJIOBGCF@jump?$AA@ 0044fac8     physics.obj
 0002:00001ad0       ??_C@_06JMLBDJHL@attack?$AA@ 0044fad0     physics.obj
 0002:00001ad8       ??_C@_0M@JFLMCFNC@sensitivity?$AA@ 0044fad8     physics.obj
 0002:00001ae4       ??_C@_0BB@CNFCEFCM@sensitivityscale?$AA@ 0044fae4     physics.obj
 0002:00001af8       ??_C@_08BODLGOGL@invmouse?$AA@ 0044faf8     physics.obj
 0002:00001b04       ??_C@_0CH@LJEGDCEP@can?8t?5find?5entity?5spawn?5spot?$CB?5?$CI?$CF@ 0044fb04     physics.obj
 0002:00001b30       ??_7cmd_backward@@6B@      0044fb30     physics.obj
 0002:00001b3c       ??_7cmd_forward@@6B@       0044fb3c     physics.obj
 0002:00001b48       ??_7cmd_left@@6B@          0044fb48     physics.obj
 0002:00001b54       ??_7cmd_right@@6B@         0044fb54     physics.obj
 0002:00001b60       ??_7cmd_jump@@6B@          0044fb60     physics.obj
 0002:00001b6c       ??_7cmd_attack@@6B@        0044fb6c     physics.obj
 0002:00001b74       ??_C@_0M@MJOBAMJH@octaentsize?$AA@ 0044fb74     world.obj
 0002:00001b80       ??_C@_0N@CEOKPFKE@entselradius?$AA@ 0044fb80     world.obj
 0002:00001b90       ??_C@_0L@FAFMCKKN@entselsnap?$AA@ 0044fb90     world.obj
 0002:00001b9c       ??_C@_09NMIKLLOH@entmoving?$AA@ 0044fb9c     world.obj
 0002:00001ba8       ??_C@_07EGFHLFCJ@entflip?$AA@ 0044fba8     world.obj
 0002:00001bb0       ??_C@_09NBOPGIGL@entrotate?$AA@ 0044fbb0     world.obj
 0002:00001bbc       ??_C@_07BHEMHBOB@entpush?$AA@ 0044fbbc     world.obj
 0002:00001bc4       ??_C@_0BJ@IDBMAGIP@unknown?5entity?5type?5?$CC?$CFs?$CC?$AA@ 0044fbc4     world.obj
 0002:00001be0       ??_C@_07IINMLKFH@entdrop?$AA@ 0044fbe0     world.obj
 0002:00001be8       ??_C@_05OCLOKMMH@siiii?$AA@ 0044fbe8     world.obj
 0002:00001bf0       ??_C@_06KPDDOIOG@newent?$AA@ 0044fbf0     world.obj
 0002:00001bf8       ??_C@_06BMHDBBDL@delent?$AA@ 0044fbf8     world.obj
 0002:00001c00       ??_C@_07LABJEPHM@dropent?$AA@ 0044fc00     world.obj
 0002:00001c08       ??_C@_07FODHLGAB@entcopy?$AA@ 0044fc08     world.obj
 0002:00001c10       ??_C@_08EPMMGKCL@entpaste?$AA@ 0044fc10     world.obj
 0002:00001c1c       ??_C@_0L@ILCCBKNP@enthavesel?$AA@ 0044fc1c     world.obj
 0002:00001c28       ??_C@_09EDEBJNEI@entselect?$AA@ 0044fc28     world.obj
 0002:00001c34       ??_C@_07BKNPHONE@entloop?$AA@ 0044fc34     world.obj
 0002:00001c3c       ??_C@_05LJBKOLPA@insel?$AA@ 0044fc3c     world.obj
 0002:00001c44       ??_C@_06CGAPBBGF@entget?$AA@ 0044fc44     world.obj
 0002:00001c4c       ??_C@_0P@GOFAHLEL@?$CFs?5?$CFd?5?$CFd?5?$CFd?5?$CFd?$AA@ 0044fc4c     world.obj
 0002:00001c5c       ??_C@_06PJHENBKN@entset?$AA@ 0044fc5c     world.obj
 0002:00001c64       ??_C@_0CB@MNEFMKAM@newmap?5only?5allowed?5in?5edit?5mode@ 0044fc64     world.obj
 0002:00001c88       ??_C@_04OIAIMIIB@OCTA?$AA@ 0044fc88     world.obj
 0002:00001c90       ??_C@_0BI@DJPFJNDC@Untitled?5Map?5by?5Unknown?$AA@ 0044fc90     world.obj
 0002:00001ca8       ??_C@_0BO@JFIDHGKH@data?1default_map_settings?4cfg?$AA@ 0044fca8     world.obj
 0002:00001cc8       ??_C@_0CF@HMNMOLON@mapenlarge?5only?5allowed?5in?5edit?5@ 0044fcc8     world.obj
 0002:00001cf0       ??_C@_06FLHECDA@newmap?$AA@ 0044fcf0     world.obj
 0002:00001cf8       ??_C@_0L@MNHMBLFM@mapenlarge?$AA@ 0044fcf8     world.obj
 0002:00001d04       ??_C@_07DIDNFGDE@trigger?$AA@ 0044fd04     world.obj
 0002:00001d0c       ??_C@_0N@MIOHHCGI@triggerstate?$AA@ 0044fd0c     world.obj
 0002:00001d1c       ??_C@_0BB@MKGBKILG@level_trigger_?$CFd?$AA@ 0044fd1c     world.obj
 0002:00001d34       ??_7cmd_enthavesel@@6B@    0044fd34     world.obj
 0002:00001d40       ??_7cmd_entselect@@6B@     0044fd40     world.obj
 0002:00001d4c       ??_7cmd_entloop@@6B@       0044fd4c     world.obj
 0002:00001d58       ??_7cmd_insel@@6B@         0044fd58     world.obj
 0002:00001d64       ??_7cmd_entget@@6B@        0044fd64     world.obj
 0002:00001d6c       ??_C@_07EHFJMLKG@savebak?$AA@ 0044fd6c     worldio.obj
 0002:00001d74       ??_C@_02CFKBDFGI@?1?2?$AA@ 0044fd74     worldio.obj
 0002:00001d78       ??_C@_04BHIIPFEC@base?$AA@ 0044fd78     worldio.obj
 0002:00001d80       ??_C@_07DLHDFGAF@base?1?$CFs?$AA@ 0044fd80     worldio.obj
 0002:00001d88       ??_C@_0BA@MDPIOOBN@packages?1?$CFs?4tmf?$AA@ 0044fd88     worldio.obj
 0002:00001d98       ??_C@_0BA@HMFKMAL@packages?1?$CFs?4BAK?$AA@ 0044fd98     worldio.obj
 0002:00001da8       ??_C@_0BD@JOHJEEGO@packages?1?$CFs_?$CFd?4BAK?$AA@ 0044fda8     worldio.obj
 0002:00001dbc       ??_C@_0BI@DECNJLBC@packages?1?$CFs?1package?4cfg?$AA@ 0044fdbc     worldio.obj
 0002:00001dd4       ??_C@_0BD@DAEHBEEN@packages?1?$CFs?1?$CFs?4cfg?$AA@ 0044fdd4     worldio.obj
 0002:00001de8       ??_C@_0P@PBJEKMIN@garbage?5in?5map?$AA@ 0044fde8     worldio.obj
 0002:00001df8       ??_C@_03GNIECKDC@wb9?$AA@  0044fdf8     worldio.obj
 0002:00001dfc       ??_C@_0BK@MMNKLJGP@could?5not?5write?5map?5to?5?$CFs?$AA@ 0044fdfc     worldio.obj
 0002:00001e18       ??_C@_0BC@GPFGLKNK@wrote?5map?5file?5?$CFs?$AA@ 0044fe18     worldio.obj
 0002:00001e2c       ??_C@_0BG@IENFPLMB@could?5not?5read?5map?5?$CFs?$AA@ 0044fe2c     worldio.obj
 0002:00001e44       ??_C@_0CM@JALFDBKL@this?5map?5requires?5a?5newer?5versio@ 0044fe44     worldio.obj
 0002:00001e70       ??_C@_0GB@DCHDGPKE@loading?5older?5?1?5less?5efficient?5m@ 0044fe70     worldio.obj
 0002:00001ed4       ??_C@_03JABFMKFJ@fps?$AA@  0044fed4     worldio.obj
 0002:00001ed8       ??_C@_0FC@JGMDPNDD@WARNING?3?5loading?5map?5from?5?$CFs?5gam@ 0044fed8     worldio.obj
 0002:00001f2c       ??_C@_0BC@DCHMDFAI@clearing?5world?4?4?4?$AA@ 0044ff2c     worldio.obj
 0002:00001f40       ??_C@_0BE@CJBBIHIP@loading?5entities?4?4?4?$AA@ 0044ff40     worldio.obj
 0002:00001f58       ??_C@_0EB@OABDHGPF@warning?3?5ent?5outside?5of?5world?3?5e@ 0044ff58     worldio.obj
 0002:00001f9c       ??_C@_0DG@HBAGAPFA@warning?3?5mapmodel?5ent?5?$CIindex?5?$CFd?$CJ@ 0044ff9c     worldio.obj
 0002:00001fd4       ??_C@_0BC@ODCPBFJJ@loading?5octree?4?4?4?$AA@ 0044ffd4     worldio.obj
 0002:00001fe8       ??_C@_0O@CMLICMCJ@validating?4?4?4?$AA@ 0044ffe8     worldio.obj
 0002:00001ff8       ??_C@_0BF@GLOAPPLE@loading?5lightmaps?4?4?4?$AA@ 0044fff8     worldio.obj
 0002:00002010       ??_C@_0BL@HCIKLEFF@read?5map?5?$CFs?5?$CI?$CF?41f?5seconds?$CJ?$AA@ 00450010     worldio.obj
 0002:0000202c       ??_C@_02DKCKIIND@?$CFs?$AA@ 0045002c     worldio.obj
 0002:00002030       ??_C@_0BN@FHHEABDF@could?5not?5find?5map?5model?3?5?$CFd?$AA@ 00450030     worldio.obj
 0002:00002050       ??_C@_0BJ@CLKIGBHO@could?5not?5load?5model?3?5?$CFs?$AA@ 00450050     worldio.obj
 0002:0000206c       ??_C@_07LGAMBAGK@savemap?$AA@ 0045006c     worldio.obj
 0002:00002074       ??_C@_0P@CFANOFNA@savecurrentmap?$AA@ 00450074     worldio.obj
 0002:00002084       ??_C@_0CH@HDLCKFDP@operation?5not?5available?5in?5multi@ 00450084     client.obj
 0002:000020ac       ??_C@_04HCCHHEEF@rate?$AA@ 004500ac     client.obj
 0002:000020b4       ??_C@_0BC@HEEPLBOG@throttle_interval?$AA@ 004500b4     client.obj
 0002:000020c8       ??_C@_0P@GOIDANDD@throttle_accel?$AA@ 004500c8     client.obj
 0002:000020d8       ??_C@_0P@LBAOGJCA@throttle_decel?$AA@ 004500d8     client.obj
 0002:000020e8       ??_C@_0BM@MMFCJBDC@attempting?5to?5connect?5to?5?$CFs?$AA@ 004500e8     client.obj
 0002:00002104       ??_C@_0BM@GAIBIFNC@could?5not?5resolve?5server?5?$CFs?$AA@ 00450104     client.obj
 0002:00002120       ??_C@_0BP@DBNKPJGO@attempting?5to?5connect?5over?5LAN?$AA@ 00450120     client.obj
 0002:00002140       ??_C@_0BO@FMIGNLBM@?$AM3could?5not?5connect?5to?5server?$AA@ 00450140     client.obj
 0002:00002160       ??_C@_0N@GGGDBMDO@disconnected?$AA@ 00450160     client.obj
 0002:00002170       ??_C@_0O@GLMIBBEG@not?5connected?$AA@ 00450170     client.obj
 0002:00002180       ??_C@_0BM@JCJFMNM@aborting?5connection?5attempt?$AA@ 00450180     client.obj
 0002:0000219c       ??_C@_0BM@KHAAGKOC@attempting?5to?5disconnect?4?4?4?$AA@ 0045019c     client.obj
 0002:000021b8       ??_C@_07KAIBNCHO@connect?$AA@ 004501b8     client.obj
 0002:000021c0       ??_C@_0L@FOGOINHM@lanconnect?$AA@ 004501c0     client.obj
 0002:000021cc       ??_C@_0L@KKPFIJOL@disconnect?$AA@ 004501cc     client.obj
 0002:000021d8       ??_C@_0BP@BDHIAHKH@?$AM3illegal?5network?5message?5?$CI?$CFs?$CJ?$AA@ 004501d8     client.obj
 0002:000021f8       ??_C@_0BJ@NFIAENFO@attempting?5to?5connect?4?4?4?$AA@ 004501f8     client.obj
 0002:00002214       ??_C@_0BE@FHNLFBGA@connected?5to?5server?$AA@ 00450214     client.obj
 0002:00002228       ??_C@_0CP@CDNHMHBG@?$AM3server?5network?5error?0?5disconne@ 00450228     client.obj
 0002:00002258       ??_C@_0EB@PIIHFDOJ@Tiger?5?9?5A?5Fast?5New?5Hash?5Function@ 00450258     crypto.obj
 0002:0000229c       ??_C@_04LEJFMOCJ@?$CF?44x?$AA@ 0045029c     crypto.obj
 0002:000022a4       ??_C@_0DB@EAFCNJGF@fffffffffffffffffffffffffffffffe@ 004502a4     crypto.obj
 0002:000022d8       ??_C@_0DB@BBFMKIMN@64210519e59c80e70fa7e9ab72243049@ 004502d8     crypto.obj
 0002:0000230c       ??_C@_0DB@BFJADMLB@07192b95ffc8da78631011ed6b24cdd5@ 0045030c     crypto.obj
 0002:00002340       ??_C@_0DB@KOHDFAGM@188da80eb03090f67cbf20eb43a18800@ 00450340     crypto.obj
 0002:00002374       ??_C@_03JPMMEJL@p?3?5?$AA@ 00450374     crypto.obj
 0002:00002378       ??_C@_07JPAPDMNE@p?12?$FO3?3?5?$AA@ 00450378     crypto.obj
 0002:00002380       ??_C@_08FNHHALKD@p?12?$FO35?3?5?$AA@ 00450380     crypto.obj
 0002:0000238c       ??_C@_08FNBBKMLK@p?12?$FO99?3?5?$AA@ 0045038c     crypto.obj
 0002:00002398       ??_C@_06GKPGHJLJ@2?$FO?$CFd?3?5?$AA@ 00450398     crypto.obj
 0002:000023a0       ??_C@_06LLGIKJL@p192?3?5?$AA@ 004503a0     crypto.obj
 0002:000023a8       ??_C@_06NPJJJGPI@p224?3?5?$AA@ 004503a8     crypto.obj
 0002:000023b0       ??_C@_06MHLAICGD@p256?3?5?$AA@ 004503b0     crypto.obj
 0002:000023b8       ??_C@_06FOHFFNPM@p384?3?5?$AA@ 004503b8     crypto.obj
 0002:000023c0       ??_C@_06PFECFGHC@p521?3?5?$AA@ 004503c0     crypto.obj
 0002:000023c8       ??_C@_03LJDKOEDH@n?3?5?$AA@ 004503c8     crypto.obj
 0002:000023cc       ??_C@_05BNLKDFBC@n?$FO2?3?5?$AA@ 004503cc     crypto.obj
 0002:000023d4       ??_C@_05IAGNANKL@n?$FO5?3?5?$AA@ 004503d4     crypto.obj
 0002:000023dc       ??_C@_07OACNADO@n?$FO100?3?5?$AA@ 004503dc     crypto.obj
 0002:000023e4       ??_C@_09GBMHMMHB@n?$FO10000?3?5?$AA@ 004503e4     crypto.obj
 0002:000023f0       ??_C@_0BA@LAJNHPHC@no?5square?5root?$CB?$AA@ 004503f0     crypto.obj
 0002:00002400       ??_C@_09LMDOPGHG@sqrt?$CIn?$CJ?3?5?$AA@ 00450400     crypto.obj
 0002:0000240c       ??_C@_03MMEIOMHE@x?3?5?$AA@ 0045040c     crypto.obj
 0002:00002410       ??_C@_05NAHJPOBG@1?1x?3?5?$AA@ 00450410     crypto.obj
 0002:00002418       ??_C@_09DPEFEBEG@?$CI1?1x?$CJ?$CKx?3?5?$AA@ 00450418     crypto.obj
 0002:00002424       ??_C@_0N@PGCKENLJ@?$CI1?1x?$CJ?$CKx?942?3?5?$AA@ 00450424     crypto.obj
 0002:00002434       ??_C@_06GJNPGAA@testgf?$AA@ 00450434     crypto.obj
 0002:0000243c       ??_C@_0BB@OIHGBBEL@hashing?3?5?$CFs?5to?3?5?$AA@ 0045043c     crypto.obj
 0002:00002450       ??_C@_04LABILCJL@?$CF?42x?$AA@ 00450450     crypto.obj
 0002:00002458       ??_C@_0O@OAJNPEBJ@private?5key?3?5?$AA@ 00450458     crypto.obj
 0002:00002468       ??_C@_08JOJJOLPL@base?4x?3?5?$AA@ 00450468     crypto.obj
 0002:00002474       ??_C@_08CGCFIMJO@base?4y?3?5?$AA@ 00450474     crypto.obj
 0002:00002480       ??_C@_07NBPHHPCI@out?4x?3?5?$AA@ 00450480     crypto.obj
 0002:00002488       ??_C@_07GJELBIEN@out?4y?3?5?$AA@ 00450488     crypto.obj
 0002:00002490       ??_C@_0N@MNECPNHH@public?5key?3?5?$AA@ 00450490     crypto.obj
 0002:000024a0       ??_C@_06CCEBBKGP@in?4x?3?5?$AA@ 004504a0     crypto.obj
 0002:000024a8       ??_C@_06JKPNHNAK@in?4y?3?5?$AA@ 004504a8     crypto.obj
 0002:000024b0       ??_C@_0BC@BGGNGODA@key?5serialized?5OK?$AA@ 004504b0     crypto.obj
 0002:000024c4       ??_C@_0BJ@BEBOPHLA@key?5serialization?5FAILED?$AA@ 004504c4     crypto.obj
 0002:000024e0       ??_C@_0BD@KNGFNELG@encrypted?5secret?3?5?$AA@ 004504e0     crypto.obj
 0002:000024f4       ??_C@_0BE@GKIOEKBN@encrypted?5message?3?5?$AA@ 004504f4     crypto.obj
 0002:00002508       ??_C@_0BC@EMGEJLDI@random?3?5?$CF?48x?$CF?48x?6?$AA@ 00450508     crypto.obj
 0002:0000251c       ??_C@_0BH@GKFBJKPF@xtea?5random?3?5?$CF?48x?$CF?48x?6?$AA@ 0045051c     crypto.obj
 0002:00002534       ??_C@_0BD@IHFACHIA@decrypted?5secret?3?5?$AA@ 00450534     crypto.obj
 0002:00002548       ??_C@_0BE@CLGKBLAF@secret?5decrypted?5OK?$AA@ 00450548     crypto.obj
 0002:0000255c       ??_C@_0BJ@FCBPEPFN@secret?5decryption?5FAILED?$AA@ 0045055c     crypto.obj
 0002:00002578       ??_C@_0BK@EHELHHKD@de?9xtea?5random?3?5?$CF?48x?$CF?48x?6?$AA@ 00450578     crypto.obj
 0002:00002594       ??_C@_09PJEJOFJH@testcurve?$AA@ 00450594     crypto.obj
 0002:000025a0       ??_C@_0BJ@GBFHBNIN@server?5FULL?5?$CImaxclients?$CJ?$AA@ 004505a0     server.obj
 0002:000025bc       ??_C@_0BK@CIAFDEPO@server?5is?5in?5private?5mode?$AA@ 004505bc     server.obj
 0002:000025d8       ??_C@_0N@KLGGLKFD@ip?5is?5banned?$AA@ 004505d8     server.obj
 0002:000025e8       ??_C@_08LHFLPAFL@tag?5type?$AA@ 004505e8     server.obj
 0002:000025f4       ??_C@_0O@DDBOENOP@kicked?1banned?$AA@ 004505f4     server.obj
 0002:00002604       ??_C@_0L@CNDFKLPO@client?5num?$AA@ 00450604     server.obj
 0002:00002610       ??_C@_0O@JBDOGIMF@end?5of?5packet?$AA@ 00450610     server.obj
 0002:00002620       ??_C@_06IKLLLDHL@normal?$AA@ 00450620     server.obj
 0002:00002628       ??_C@_0BP@LPPIEFJ@?$CI?$CFs?$CJ?5Disconnected?5because?3?5?$CFs?6?$AA@ 00450628     server.obj
 0002:00002648       ??_C@_0BH@NLFHHPMF@could?5not?5open?5socket?6?$AA@ 00450648     server.obj
 0002:00002660       ??_C@_0DG@FAGPNFDM@GET?5?$CFs?5HTTP?11?40?6Host?3?5?$CFs?6Referer@ 00450660     server.obj
 0002:00002698       ??_C@_0BK@NNFCCKPL@sending?5request?5to?5?$CFs?4?4?4?6?$AA@ 00450698     server.obj
 0002:000026b4       ??_C@_03EDDBLLFO@?6?$AN?6?$AA@ 004506b4     server.obj
 0002:000026b8       ??_C@_02PHMGELLB@?6?6?$AA@ 004506b8     server.obj
 0002:000026bc       ??_C@_0BI@JNENKJCG@?$CFsretrieve?4do?$DPitem?$DNlist?$AA@ 004506bc     server.obj
 0002:000026d4       ??_C@_0DI@OCJOGBJA@status?3?5?$CFd?5remote?5clients?0?5?$CF?41f?5@ 004506d4     server.obj
 0002:0000270c       ??_C@_07CIFAGBMG@unknown?$AA@ 0045070c     server.obj
 0002:00002714       ??_C@_0BF@LGDCBHCJ@?$CI?$CFs?$CJ?5Has?5connected?4?6?$AA@ 00450714     server.obj
 0002:0000272c       ??_C@_0BI@NFJICGEF@?$CI?$CFs?$CJ?5Has?5disconnected?4?6?$AA@ 0045072c     server.obj
 0002:00002744       ??_C@_05IDKHKMLA@local?$AA@ 00450744     server.obj
 0002:0000274c       ??_C@_0BL@HGLBPDJ@cannot?5start?5game?5module?3?5?$AA@ 0045074c     server.obj
 0002:00002768       ??_C@_01KMDKNFGN@?1?$AA@   00450768     server.obj
 0002:0000276c       ??_C@_0CA@JDMEILNB@WARNING?3?5server?5ip?5not?5resolved?$AA@ 0045076c     server.obj
 0002:0000278c       ??_C@_0BO@EAKOHJIH@could?5not?5create?5server?5host?6?$AA@ 0045078c     server.obj
 0002:000027ac       ??_C@_0CF@PONAMABO@could?5not?5create?5server?5info?5soc@ 004507ac     server.obj
 0002:000027d8       ??_C@_0CAL@KIDBNMCF@?4?$CD?$CD?$CD?$CD?$CD?$CD?$CD?$CD?4?4?$CD?$CD?$CD?$CD?$CD?$CD?$CD?4?4?$CD?$CD?$CD?$CD?$CD?$CD?$CD?$CD?4?4?$CD?$CD@ 004507d8     server.obj
 0002:000029e4       ??_C@_0BD@HEJFCFKJ@Server?5is?5online?4?6?$AA@ 004509e4     server.obj
 0002:000029f8       ??_C@_0BP@GPILIJPG@resolving?5?$CFs?4?4?4?5?$CIesc?5to?5abort?$CJ?$AA@ 004509f8     serverbrowser.obj
 0002:00002a18       ??_C@_0BK@IHNGCOAA@?$FLwaiting?5for?5response?$FN?5?$CFs?$AA@ 00450a18     serverbrowser.obj
 0002:00002a34       ??_C@_0BD@ECKFMEBM@?$FLunknown?5host?$FN?5?$CFs?7?$AA@ 00450a34     serverbrowser.obj
 0002:00002a48       ??_C@_06HJHJCKIO@server?$AA@ 00450a48     serverbrowser.obj
 0002:00002a50       ??_C@_06CMOBCCHI@?$DMhtml?$DO?$AA@ 00450a50     serverbrowser.obj
 0002:00002a58       ??_C@_06HCPDOBJE@?$DMHTML?$DO?$AA@ 00450a58     serverbrowser.obj
 0002:00002a60       ??_C@_0BL@EGCJNHEC@master?5server?5not?5replying?$AA@ 00450a60     serverbrowser.obj
 0002:00002a7c       ??_C@_09GMJEIMCB@addserver?$AA@ 00450a7c     serverbrowser.obj
 0002:00002a88       ??_C@_0BB@MIFKGAAB@updatefrommaster?$AA@ 00450a88     serverbrowser.obj
 0002:00002a9c       ??_C@_0M@NILGCMNM@servers?4cfg?$AA@ 00450a9c     serverbrowser.obj
 0002:00002aa8       ??_C@_0DH@LBOGOOCC@?1?1?5servers?5connected?5to?5are?5adde@ 00450aa8     serverbrowser.obj
 0002:00002ae0       ??_C@_0O@FLPNAGFJ@addserver?5?$CFs?6?$AA@ 00450ae0     serverbrowser.obj
 0002:00002af0       ??_C@_0CD@FLEKKJFF@Error?5dispatching?5incoming?5packe@ 00450af0     protocol.obj
 0002:00002b14       ??_C@_0BP@CMCNMCMC@Error?5sending?5outgoing?5packets?$AA@ 00450b14     protocol.obj
 0002:00002b34       ??_C@_0CB@HOPEGIPO@Error?5receiving?5incoming?5packets@ 00450b34     protocol.obj
 0002:00002b58       ??_C@_0L@NOHENLJA@guiautotab?$AA@ 00450b58     3dgui.obj
 0002:00002b64       ??_C@_02DPKJAMEF@?$CFd?$AA@ 00450b64     3dgui.obj
 0002:00002b68       ??_C@_0BE@OCDHCKMA@data?1guioverlay?4png?$AA@ 00450b68     3dgui.obj
 0002:00002b7c       ??_C@_0BD@OCEHMHDI@data?1guislider?4png?$AA@ 00450b7c     3dgui.obj
 0002:00002b90       ??_C@_0BG@OCDGFGEL@packages?1icons?1?$CFs?4jpg?$AA@ 00450b90     3dgui.obj
 0002:00002ba8       ??_C@_0BB@EDCBHHBL@data?1guiskin?4png?$AA@ 00450ba8     3dgui.obj
 0002:00002bc0       ??_7g3d_gui@@6B@           00450bc0     3dgui.obj
 0002:00002bfc       ??_7gui@@6B@               00450bfc     3dgui.obj
 0002:00002c34       ??_C@_0N@KPELAFIK@?$AA?$AA?$AC?$AA?$AA?$AA?$AA?5?$AA?$AA?$AA?$AA?$AA@ 00450c34     renderextras.obj
 0002:00002c44       ??_C@_02FCBLNKNB@ss?$AA@   00450c44     renderextras.obj
 0002:00002c48       ??_C@_0P@OONKJPLA@flipnormalmapy?$AA@ 00450c48     renderextras.obj
 0002:00002c58       ??_C@_03PFJENDKN@sss?$AA@  00450c58     renderextras.obj
 0002:00002c5c       ??_C@_0BA@MNFPGFJP@mergenormalmaps?$AA@ 00450c5c     renderextras.obj
 0002:00002c6c       ??_C@_0BD@HPMJPICM@damagespherefactor?$AA@ 00450c6c     renderextras.obj
 0002:00002c80       ??_C@_09DJINNLFM@explosion?$AA@ 00450c80     renderextras.obj
 0002:00002c8c       ??_C@_0BD@FIBOEGJJ@data?1explosion?4jpg?$AA@ 00450c8c     renderextras.obj
 0002:00002ca0       ??_C@_01EOFPKCAF@?$EA?$AA@ 00450ca0     renderextras.obj
 0002:00002ca4       ??_C@_02LMMGGCAJ@?3?5?$AA@ 00450ca4     renderextras.obj
 0002:00002ca8       ??_C@_0BF@DPBHOKLP@?$CFd?5entities?5selected?$AA@ 00450ca8     renderextras.obj
 0002:00002cc0       ??_C@_02NGOCOJHK@?$AM0?$AA@ 00450cc0     renderextras.obj
 0002:00002cc4       ??_C@_0BG@BNHIPADH@?$CFs?$CFs?5?$CI?$CFd?0?5?$CFd?0?5?$CFd?0?5?$CFd?$CJ?$AA@ 00450cc4     renderextras.obj
 0002:00002cdc       ??_C@_0O@DOKGGKIC@crosshairsize?$AA@ 00450cdc     renderextras.obj
 0002:00002cec       ??_C@_0L@DDAAENOC@cursorsize?$AA@ 00450cec     renderextras.obj
 0002:00002cf8       ??_C@_0BC@JHCMGLOM@damageblendfactor?$AA@ 00450cf8     renderextras.obj
 0002:00002d0c       ??_C@_09PGDOGKEO@hidestats?$AA@ 00450d0c     renderextras.obj
 0002:00002d18       ??_C@_07OIHDPMCL@hidehud?$AA@ 00450d18     renderextras.obj
 0002:00002d20       ??_C@_0M@DDOMLNPO@crosshairfx?$AA@ 00450d20     renderextras.obj
 0002:00002d2c       ??_C@_0BD@GLJBBCAB@data?1guicursor?4png?$AA@ 00450d2c     renderextras.obj
 0002:00002d40       ??_C@_02DHALJBCH@1?1?$AA@  00450d40     renderextras.obj
 0002:00002d44       ??_C@_09JPMBOKHM@cube?5?$CFs?$CFd?$AA@ 00450d44     renderextras.obj
 0002:00002d50       ??_C@_0CM@JJLHGBCH@wtr?3?$CFdk?$CI?$CFd?$CF?$CF?$CJ?5wvt?3?$CFdk?$CI?$CFd?$CF?$CF?$CJ?5evt?3@ 00450d50     renderextras.obj
 0002:00002d7c       ??_C@_0CG@JEBADLIP@ond?3?$CFd?5va?3?$CFd?5gl?3?$CFd?5oq?3?$CFd?5lm?3?$CFd?0?5@ 00450d7c     renderextras.obj
 0002:00002da4       ??_C@_02HNLLPFKA@up?$AA@   00450da4     rendergl.obj
 0002:00002da8       ??_C@_02LEBOADDI@dn?$AA@   00450da8     rendergl.obj
 0002:00002dac       ??_C@_02BMJICGCB@rt?$AA@   00450dac     rendergl.obj
 0002:00002db0       ??_C@_02HCNENIII@lf?$AA@   00450db0     rendergl.obj
 0002:00002db4       ??_C@_02MNOEILMP@bk?$AA@   00450db4     rendergl.obj
 0002:00002db8       ??_C@_02HLHCNIN@ft?$AA@    00450db8     rendergl.obj
 0002:00002dbc       ??_C@_04HHCDBDLF@?5?7?$AN?6?$AA@ 00450dbc     rendergl.obj
 0002:00002dc4       ??_C@_0BL@KNDCNHHG@COMPILE?5ERROR?5?$CI?$CFs?3?$CFs?$CJ?5?9?5?$CFs?$AA@ 00450dc4     rendergl.obj
 0002:00002de0       ??_C@_0L@DOLFAOFN@?5?$DM?$DMHERE?$DO?$DO?5?$AA@ 00450de0     rendergl.obj
 0002:00002dec       ??_C@_0N@EOHKPIEH@shaderdetail?$AA@ 00450dec     rendergl.obj
 0002:00002dfc       ??_C@_02PJBJHKHI@VS?$AA@   00450dfc     rendergl.obj
 0002:00002e00       ??_C@_02PNJEAGMK@PS?$AA@   00450e00     rendergl.obj
 0002:00002e04       ??_C@_0BD@MOADNKHC@no?5such?5shader?3?5?$CFs?$AA@ 00450e04     rendergl.obj
 0002:00002e18       ??_C@_04IGNAOOJA@isss?$AA@ 00450e18     rendergl.obj
 0002:00002e20       ??_C@_06BILHELBG@shader?$AA@ 00450e20     rendergl.obj
 0002:00002e28       ??_C@_09EFMBJJAE@setshader?$AA@ 00450e28     rendergl.obj
 0002:00002e34       ??_C@_03EFLJCJHG@ssi?$AA@  00450e34     rendergl.obj
 0002:00002e38       ??_C@_0L@IJCMHGML@fastshader?$AA@ 00450e38     rendergl.obj
 0002:00002e44       ??_C@_0CC@INJMKMAM@shader?5param?5index?5must?5be?50?4?4?$CFd@ 00450e44     rendergl.obj
 0002:00002e68       ??_C@_05BGAEFBEP@iffff?$AA@ 00450e68     rendergl.obj
 0002:00002e70       ??_C@_0P@EILFNNMM@setvertexparam?$AA@ 00450e70     rendergl.obj
 0002:00002e80       ??_C@_0O@DHGMNIHM@setpixelparam?$AA@ 00450e80     rendergl.obj
 0002:00002e90       ??_C@_0BA@MEGBDEME@shaderprecision?$AA@ 00450e90     rendergl.obj
 0002:00002ea0       ??_C@_0P@KOMPNBFC@ati_skybox_bug?$AA@ 00450ea0     rendergl.obj
 0002:00002eb0       ??_C@_0P@LHFJFAIN@ati_texgen_bug?$AA@ 00450eb0     rendergl.obj
 0002:00002ec0       ??_C@_0L@GICMCGLN@ati_oq_bug?$AA@ 00450ec0     rendergl.obj
 0002:00002ecc       ??_C@_0BC@GGABJNAN@nvidia_texgen_bug?$AA@ 00450ecc     rendergl.obj
 0002:00002ee0       ??_C@_0L@NFDDLINJ@maxtexsize?$AA@ 00450ee0     rendergl.obj
 0002:00002eec       ??_C@_0BC@HJILAOAN@Renderer?3?5?$CFs?5?$CI?$CFs?$CJ?$AA@ 00450eec     rendergl.obj
 0002:00002f00       ??_C@_0L@HEPJLAJM@Driver?3?5?$CFs?$AA@ 00450f00     rendergl.obj
 0002:00002f0c       ??_C@_0BL@JFMOHFPL@GL_EXT_texture_env_combine?$AA@ 00450f0c     rendergl.obj
 0002:00002f28       ??_C@_0BL@MKOBGLKK@GL_ARB_texture_env_combine?$AA@ 00450f28     rendergl.obj
 0002:00002f48       ??_C@_0ED@FPANFJOP@No?5texture_env_combine?5extension@ 00450f48     rendergl.obj
 0002:00002f8c       ??_C@_0BE@MEMOPMEA@GL_ARB_multitexture?$AA@ 00450f8c     rendergl.obj
 0002:00002fa0       ??_C@_0BL@MKFLGOPE@No?5multitexture?5extension?$CB?$AA@ 00450fa0     rendergl.obj
 0002:00002fbc       ??_C@_0BD@IKCKKKNH@glActiveTextureARB?$AA@ 00450fbc     rendergl.obj
 0002:00002fd0       ??_C@_0BJ@PBJNGLJH@glClientActiveTextureARB?$AA@ 00450fd0     rendergl.obj
 0002:00002fec       ??_C@_0BF@GFGCIEPA@glMultiTexCoord2fARB?$AA@ 00450fec     rendergl.obj
 0002:00003004       ??_C@_0BM@OOMEFFAE@GL_ARB_vertex_buffer_object?$AA@ 00451004     rendergl.obj
 0002:00003020       ??_C@_0EP@JMJMBGDP@WARNING?3?5No?5vertex_buffer_object@ 00451020     rendergl.obj
 0002:00003070       ??_C@_0BA@COIMKEED@glGenBuffersARB?$AA@ 00451070     rendergl.obj
 0002:00003080       ??_C@_0BA@FDIFNALK@glBindBufferARB?$AA@ 00451080     rendergl.obj
 0002:00003090       ??_C@_0P@GLCCGPAH@glMapBufferARB?$AA@ 00451090     rendergl.obj
 0002:000030a0       ??_C@_0BB@IODLHHEP@glUnmapBufferARB?$AA@ 004510a0     rendergl.obj
 0002:000030b4       ??_C@_0BA@HLIGBCAN@glBufferDataARB?$AA@ 004510b4     rendergl.obj
 0002:000030c4       ??_C@_0BD@KFMFAAJP@glBufferSubDataARB?$AA@ 004510c4     rendergl.obj
 0002:000030d8       ??_C@_0BD@FPFIIGCI@glDeleteBuffersARB?$AA@ 004510d8     rendergl.obj
 0002:000030ec       ??_C@_03LHBNGNJL@ATI?$AA@  004510ec     rendergl.obj
 0002:000030f0       ??_C@_0FA@DAAEEAMK@WARNING?3?5ATI?5cards?5may?5show?5garb@ 004510f0     rendergl.obj
 0002:00003140       ??_C@_08PDMNIOLD@Tungsten?$AA@ 00451140     rendergl.obj
 0002:00003150       ??_C@_0EH@IMKPAPAC@WARNING?3?5Using?5floating?5point?5ve@ 00451150     rendergl.obj
 0002:00003198       ??_C@_0BG@LDHOGOBF@GL_ARB_vertex_program?$AA@ 00451198     rendergl.obj
 0002:000031b0       ??_C@_0BI@LELAEDDA@GL_ARB_fragment_program?$AA@ 004511b0     rendergl.obj
 0002:000031c8       ??_C@_0FG@EGFMPELN@WARNING?3?5No?5shader?5support?$CB?5Usin@ 004511c8     rendergl.obj
 0002:00003220       ??_C@_06HLMMPIBG@NVIDIA?$AA@ 00451220     rendergl.obj
 0002:00003228       ??_C@_0FO@LAHIJHNB@WARNING?3?5Using?5ATI?5texgen?5bug?5wo@ 00451228     rendergl.obj
 0002:00003288       ??_C@_0GE@GJAPPIEO@WARNING?3?5Using?5NVIDIA?5texgen?5bug@ 00451288     rendergl.obj
 0002:000032ec       ??_C@_0BB@JDDNIFAN@glGenProgramsARB?$AA@ 004512ec     rendergl.obj
 0002:00003300       ??_C@_0BB@OAGHGJAC@glBindProgramARB?$AA@ 00451300     rendergl.obj
 0002:00003314       ??_C@_0BD@HIBLHAHB@glProgramStringARB?$AA@ 00451314     rendergl.obj
 0002:00003328       ??_C@_0BL@PPAMELBE@glProgramEnvParameter4fARB?$AA@ 00451328     rendergl.obj
 0002:00003344       ??_C@_0BM@JFOBMKCG@glProgramEnvParameter4fvARB?$AA@ 00451344     rendergl.obj
 0002:00003360       ??_C@_0DF@KGHDEKGI@Rendering?5using?5the?5OpenGL?51?45?5a@ 00451360     rendergl.obj
 0002:00003398       ??_C@_0BH@NKOBMOPI@GL_ARB_occlusion_query?$AA@ 00451398     rendergl.obj
 0002:000033b0       ??_C@_0BA@DPEEILJC@glGetQueryivARB?$AA@ 004513b0     rendergl.obj
 0002:000033c0       ??_C@_0BA@BJHFNMK@glGenQueriesARB?$AA@ 004513c0     rendergl.obj
 0002:000033d0       ??_C@_0BD@HAEDHPKB@glDeleteQueriesARB?$AA@ 004513d0     rendergl.obj
 0002:000033e4       ??_C@_0BA@LPKBABEB@glBeginQueryARB?$AA@ 004513e4     rendergl.obj
 0002:000033f4       ??_C@_0O@EFJDHGFG@glEndQueryARB?$AA@ 004513f4     rendergl.obj
 0002:00003404       ??_C@_0BG@EDFKPCGN@glGetQueryObjectivARB?$AA@ 00451404     rendergl.obj
 0002:0000341c       ??_C@_0BH@OOHKBDPD@glGetQueryObjectuivARB?$AA@ 0045141c     rendergl.obj
 0002:00003438       ??_C@_0GD@KEHNEELF@WARNING?3?5Using?5ATI?5occlusion?5que@ 00451438     rendergl.obj
 0002:0000349c       ??_C@_0DO@KNDHONLH@WARNING?3?5No?5occlusion?5query?5supp@ 0045149c     rendergl.obj
 0002:000034dc       ??_C@_0BK@GDONINOA@GL_EXT_framebuffer_object?$AA@ 004514dc     rendergl.obj
 0002:000034f8       ??_C@_0BG@GLKALDNN@glBindRenderbufferEXT?$AA@ 004514f8     rendergl.obj
 0002:00003510       ??_C@_0BJ@FCLEPNJL@glDeleteRenderbuffersEXT?$AA@ 00451510     rendergl.obj
 0002:0000352c       ??_C@_0BG@HHIDFCMP@glGenRenderbuffersEXT?$AA@ 0045152c     rendergl.obj
 0002:00003544       ??_C@_0BJ@NPDAOAPK@glRenderbufferStorageEXT?$AA@ 00451544     rendergl.obj
 0002:00003560       ??_C@_0BM@GOHPHGGE@glCheckFramebufferStatusEXT?$AA@ 00451560     rendergl.obj
 0002:0000357c       ??_C@_0BF@EMIECBAK@glBindFramebufferEXT?$AA@ 0045157c     rendergl.obj
 0002:00003594       ??_C@_0BI@NPEJNLO@glDeleteFramebuffersEXT?$AA@ 00451594     rendergl.obj
 0002:000035ac       ??_C@_0BF@FFIJGJAM@glGenFramebuffersEXT?$AA@ 004515ac     rendergl.obj
 0002:000035c4       ??_C@_0BK@LFOBEPCF@glFramebufferTexture2DEXT?$AA@ 004515c4     rendergl.obj
 0002:000035e0       ??_C@_0BN@BAGKOCJP@glFramebufferRenderbufferEXT?$AA@ 004515e0     rendergl.obj
 0002:00003600       ??_C@_0DO@CINPMHAF@WARNING?3?5No?5framebuffer?5object?5s@ 00451600     rendergl.obj
 0002:00003640       ??_C@_0BJ@NKHMPMDJ@GL_ARB_texture_rectangle?$AA@ 00451640     rendergl.obj
 0002:00003660       ??_C@_0EA@LPHIGJLP@WARNING?3?5No?5texture?5rectangle?5su@ 00451660     rendergl.obj
 0002:000036a0       ??_C@_0BI@GGDPEJMJ@GL_ARB_texture_cube_map?$AA@ 004516a0     rendergl.obj
 0002:000036b8       ??_C@_0DM@CLGPGOGL@WARNING?3?5No?5cube?5map?5texture?5sup@ 004516b8     rendergl.obj
 0002:000036f4       ??_C@_0CA@IICOLDCN@GL_ARB_texture_non_power_of_two?$AA@ 004516f4     rendergl.obj
 0002:00003714       ??_C@_0DC@CBFJMFED@WARNING?3?5Non?9power?9of?9two?5textur@ 00451714     rendergl.obj
 0002:00003748       ??_C@_0CA@DJMDGOCK@GL_EXT_texture_compression_s3tc?$AA@ 00451748     rendergl.obj
 0002:00003768       ??_C@_0L@FJOJBCIM@glu?5sphere?$AA@ 00451768     rendergl.obj
 0002:00003774       ??_C@_0BD@CAOMAHIP@data?1stdshader?4cfg?$AA@ 00451774     rendergl.obj
 0002:00003788       ??_C@_07DLHCIBDH@default?$AA@ 00451788     rendergl.obj
 0002:00003790       ??_C@_09FJCIKLMG@notexture?$AA@ 00451790     rendergl.obj
 0002:0000379c       ??_C@_07JIDCOMKJ@nocolor?$AA@ 0045179c     rendergl.obj
 0002:000037a4       ??_C@_0P@DGBHLMID@create?5surface?$AA@ 004517a4     rendergl.obj
 0002:000037b4       ??_C@_0BD@NMKPFBNK@mintexcompresssize?$AA@ 004517b4     rendergl.obj
 0002:000037c8       ??_C@_0BI@EFGPANJF@could?5not?5build?5mipmaps?$AA@ 004517c8     rendergl.obj
 0002:000037e0       ??_C@_0M@KDACJGHI@packages?1?$CFs?$AA@ 004517e0     rendergl.obj
 0002:000037ec       ??_C@_0BK@FFEJBACN@could?5not?5load?5texture?5?$CFs?$AA@ 004517ec     rendergl.obj
 0002:00003808       ??_C@_0CB@FPOGBJMB@texture?5must?5be?524?5or?532?5bpp?3?5?$CFs@ 00451808     rendergl.obj
 0002:0000382c       ??_C@_0N@GHEGLPKK@texturereset?$AA@ 0045182c     rendergl.obj
 0002:0000383c       ??_C@_0O@PJBPPADC@materialreset?$AA@ 0045183c     rendergl.obj
 0002:0000384c       ??_C@_01PAPGNFGE@c?$AA@    0045184c     rendergl.obj
 0002:00003850       ??_C@_01OMGOGALD@u?$AA@    00451850     rendergl.obj
 0002:00003854       ??_C@_01LPLHEDKD@d?$AA@    00451854     rendergl.obj
 0002:00003858       ??_C@_01EFFIKLCJ@n?$AA@    00451858     rendergl.obj
 0002:0000385c       ??_C@_01JEJKBAGA@g?$AA@    0045185c     rendergl.obj
 0002:00003860       ??_C@_01GLPGHMHM@z?$AA@    00451860     rendergl.obj
 0002:00003864       ??_C@_0CG@LGEOBJGI@warning?3?5too?5many?5textures?5in?5sl@ 00451864     rendergl.obj
 0002:0000388c       ??_C@_05MIOOCDOE@ssiii?$AA@ 0045188c     rendergl.obj
 0002:00003894       ??_C@_07JDHEGGGP@texture?$AA@ 00451894     rendergl.obj
 0002:0000389c       ??_C@_03FDCLAKJL@?$CD?$CFd?$AA@ 0045189c     rendergl.obj
 0002:000038a0       ??_C@_06EBAJDCMB@?$CL?$CFd?0?$CFd?$AA@ 004518a0     rendergl.obj
 0002:000038a8       ??_C@_0BA@BMOEELDD@?$DP?$CF?42f?0?$CF?42f?0?$CF?42f?$AA@ 004518a8     rendergl.obj
 0002:000038b8       ??_C@_09EJHLMDCH@wireframe?$AA@ 004518b8     rendergl.obj
 0002:000038c4       ??_C@_03PKBINKFB@fov?$AA@  004518c4     rendergl.obj
 0002:000038c8       ??_C@_09KKDACDEI@fogcolour?$AA@ 004518c8     rendergl.obj
 0002:000038d4       ??_C@_0L@BMHEACHN@sparklyfix?$AA@ 004518d4     rendergl.obj
 0002:000038e0       ??_C@_07HBPONMDL@showsky?$AA@ 004518e0     rendergl.obj
 0002:000038e8       ??_C@_0BO@OMOHHGFG@no?5such?5fullscreen?5shader?3?5?$CFs?$AA@ 004518e8     rendergl.obj
 0002:00003908       ??_C@_06DOPHPGON@_scale?$AA@ 00451908     rendergl.obj
 0002:00003910       ??_C@_0BH@KALKDEJK@now?5rendering?5with?3?5?$CFs?$AA@ 00451910     rendergl.obj
 0002:00003928       ??_C@_0BE@LHEJMNAD@setfullscreenshader?$AA@ 00451928     rendergl.obj
 0002:0000393c       ??_C@_0M@BIELKGOF@thirdperson?$AA@ 0045193c     rendergl.obj
 0002:00003948       ??_C@_0BE@HEOMDBLC@thirdpersondistance?$AA@ 00451948     rendergl.obj
 0002:0000395c       ??_C@_0M@HOMLGBAJ@reflectclip?$AA@ 0045195c     rendergl.obj
 0002:00003968       ??_C@_0L@HLCICCOO@reflectmms?$AA@ 00451968     rendergl.obj
 0002:00003974       ??_C@_09CHIPCGFB@hudgunfov?$AA@ 00451974     rendergl.obj
 0002:00003980       ??_C@_0L@NBLFHPDM@stdppmodel?$AA@ 00451980     rendermodel.obj
 0002:0000398c       ??_C@_0O@KHOFPF@nospecpvmodel?$AA@ 0045198c     rendermodel.obj
 0002:0000399c       ??_C@_0N@FBGKOHMI@masksppmodel?$AA@ 0045199c     rendermodel.obj
 0002:000039ac       ??_C@_0BL@GNIBKKNJ@animationinterpolationtime?$AA@ 004519ac     rendermodel.obj
 0002:000039c8       ??_C@_05MPLBBCDO@dbgts?$AA@ 004519c8     rendermodel.obj
 0002:000039d0       ??_C@_06NJLCHBAN@tsswap?$AA@ 004519d0     rendermodel.obj
 0002:000039d8       ??_C@_0BA@MHHNAACG@excessive?5links?$AA@ 004519d8     rendermodel.obj
 0002:000039e8       ??_C@_0CD@PEANFHKP@addtriangles?3?5tris?5?$DN?5?$CFd?0?5inds?5?$DN?5@ 004519e8     rendermodel.obj
 0002:00003a0c       ??_C@_0BE@PLOPBMJN@degenerate?5triangle?$AA@ 00451a0c     rendermodel.obj
 0002:00003a20       ??_C@_0BL@PILEFFLP@failed?5linkage?51?3?5?$CFd?5?9?$DO?5?$CFd?$AA@ 00451a20     rendermodel.obj
 0002:00003a3c       ??_C@_0BL@IPCKIHEP@failed?5linkage?52?3?5?$CFd?5?9?$DO?5?$CFd?$AA@ 00451a3c     rendermodel.obj
 0002:00003a58       ??_C@_0BD@NJIHBPJ@no?5connections?3?5?$CFd?$AA@ 00451a58     rendermodel.obj
 0002:00003a6c       ??_C@_0CP@KAJHEILE@strips?5?$DN?5?$CFd?0?5tris?5?$DN?5?$CFd?0?5inds?5?$DN?5?$CF@ 00451a6c     rendermodel.obj
 0002:00003a9c       ??_C@_0CH@PGLCFIDP@invalid?5frame?5?$CFd?0?5range?5?$CFd?5in?5mo@ 00451a9c     rendermodel.obj
 0002:00003ac4       ??_C@_02JDPG@rb?$AA@       00451ac4     rendermodel.obj
 0002:00003ac8       ??_C@_0BM@GHKCHKHL@packages?1models?1?$CFs?1tris?4md2?$AA@ 00451ac8     rendermodel.obj
 0002:00003ae4       ??_C@_0CB@MDONGMDC@could?5not?5load?5model?5skin?5for?5?$CFs@ 00451ae4     rendermodel.obj
 0002:00003b08       ??_C@_0BL@DINBKKGD@packages?1models?1?$CFs?1md2?4cfg?$AA@ 00451b08     rendermodel.obj
 0002:00003b24       ??_C@_0BD@HOFNMLNO@not?5loading?5an?5md2?$AA@ 00451b24     rendermodel.obj
 0002:00003b38       ??_C@_0BM@KIFNKFIM@could?5not?5find?5animation?5?$CFs?$AA@ 00451b38     rendermodel.obj
 0002:00003b54       ??_C@_04ICJFPAOO@siis?$AA@ 00451b54     rendermodel.obj
 0002:00003b5c       ??_C@_07PIGGACE@md2anim?$AA@ 00451b5c     rendermodel.obj
 0002:00003b64       ??_C@_04OAJPLGDA@IDP3?$AA@ 00451b64     rendermodel.obj
 0002:00003b6c       ??_C@_0BG@EFCKECLA@md3?3?5corrupted?5header?$AA@ 00451b6c     rendermodel.obj
 0002:00003b84       ??_C@_0L@FGMMEJDC@tag_weapon?$AA@ 00451b84     rendermodel.obj
 0002:00003b90       ??_C@_0BD@HIJBPBMD@packages?1models?1?$CFs?$AA@ 00451b90     rendermodel.obj
 0002:00003ba4       ??_C@_0BL@PDINHJMG@packages?1models?1?$CFs?1md3?4cfg?$AA@ 00451ba4     rendermodel.obj
 0002:00003bc0       ??_C@_0BM@HOLJELDK@packages?1models?1?$CFs?1tris?4md3?$AA@ 00451bc0     rendermodel.obj
 0002:00003bdc       ??_C@_0BD@GHEGPKJP@not?5loading?5an?5md3?$AA@ 00451bdc     rendermodel.obj
 0002:00003bf0       ??_C@_05GFOLEBJA@?$CFs?1?$CFs?$AA@ 00451bf0     rendermodel.obj
 0002:00003bf8       ??_C@_0BC@BECPHHLH@could?5not?5load?5?$CFs?$AA@ 00451bf8     rendermodel.obj
 0002:00003c0c       ??_C@_0BJ@MBNLEDHP@no?5models?5loaded?5to?5link?$AA@ 00451c0c     rendermodel.obj
 0002:00003c28       ??_C@_0BI@EBDAPHJE@could?5not?5link?5model?5?$CFs?$AA@ 00451c28     rendermodel.obj
 0002:00003c40       ??_C@_07FLCHPKKE@md3load?$AA@ 00451c40     rendermodel.obj
 0002:00003c48       ??_C@_07MCAJNEJC@md3skin?$AA@ 00451c48     rendermodel.obj
 0002:00003c50       ??_C@_07MENKLDIB@md3anim?$AA@ 00451c50     rendermodel.obj
 0002:00003c58       ??_C@_03NLIBECPA@iis?$AA@  00451c58     rendermodel.obj
 0002:00003c5c       ??_C@_07PCIIPOIK@md3link?$AA@ 00451c5c     rendermodel.obj
 0002:00003c64       ??_C@_0BE@BMJMPKHA@not?5loading?5a?5model?$AA@ 00451c64     rendermodel.obj
 0002:00003c78       ??_C@_0M@GMIMGGAH@mdlcullface?$AA@ 00451c78     rendermodel.obj
 0002:00003c84       ??_C@_0L@HMHHMJDI@mdlcollide?$AA@ 00451c84     rendermodel.obj
 0002:00003c90       ??_C@_07EHNDJAH@mdlspec?$AA@ 00451c90     rendermodel.obj
 0002:00003c98       ??_C@_0L@EPLPCIBC@mdlambient?$AA@ 00451c98     rendermodel.obj
 0002:00003ca4       ??_C@_09MEIDBGIC@mdlshader?$AA@ 00451ca4     rendermodel.obj
 0002:00003cb0       ??_C@_08CFJEEKEA@mdlscale?$AA@ 00451cb0     rendermodel.obj
 0002:00003cbc       ??_C@_03LPALPDIP@fff?$AA@  00451cbc     rendermodel.obj
 0002:00003cc0       ??_C@_08HKANKFHD@mdltrans?$AA@ 00451cc0     rendermodel.obj
 0002:00003ccc       ??_C@_09LEGDGHBB@mdlshadow?$AA@ 00451ccc     rendermodel.obj
 0002:00003cd8       ??_C@_05PLINMNIF@mdlbb?$AA@ 00451cd8     rendermodel.obj
 0002:00003ce0       ??_C@_07CMOBKMPA@mdlname?$AA@ 00451ce0     rendermodel.obj
 0002:00003ce8       ??_C@_02OCDGCAAK@si?$AA@   00451ce8     rendermodel.obj
 0002:00003cec       ??_C@_06BEOKLMII@mmodel?$AA@ 00451cec     rendermodel.obj
 0002:00003cf4       ??_C@_05OBGPFBEH@iiiss?$AA@ 00451cf4     rendermodel.obj
 0002:00003cfc       ??_C@_08NIOLEMIA@mapmodel?$AA@ 00451cfc     rendermodel.obj
 0002:00003d08       ??_C@_0O@OHIPMJPN@mapmodelreset?$AA@ 00451d08     rendermodel.obj
 0002:00003d18       ??_C@_0BH@PFDHJJMK@maxmodelradiusdistance?$AA@ 00451d18     rendermodel.obj
 0002:00003d30       ??_C@_0BA@JADGNNMO@showboundingbox?$AA@ 00451d30     rendermodel.obj
 0002:00003d40       ??_C@_05HEBDCGN@dying?$AA@ 00451d40     rendermodel.obj
 0002:00003d48       ??_C@_04BBBDNBOK@dead?$AA@ 00451d48     rendermodel.obj
 0002:00003d50       ??_C@_04PPONMOMN@pain?$AA@ 00451d50     rendermodel.obj
 0002:00003d58       ??_C@_04EAPMNACM@idle?$AA@ 00451d58     rendermodel.obj
 0002:00003d60       ??_C@_0M@LKHNBAK@idle?5attack?$AA@ 00451d60     rendermodel.obj
 0002:00003d6c       ??_C@_03LGMJKEGG@run?$AA@  00451d6c     rendermodel.obj
 0002:00003d70       ??_C@_0L@LBKDMKGH@run?5attack?$AA@ 00451d70     rendermodel.obj
 0002:00003d7c       ??_C@_04NABONMNG@edit?$AA@ 00451d7c     rendermodel.obj
 0002:00003d84       ??_C@_03MMOCDECP@lag?$AA@  00451d84     rendermodel.obj
 0002:00003d88       ??_C@_0M@BKNEHEPB@jump?5attack?$AA@ 00451d88     rendermodel.obj
 0002:00003d94       ??_C@_09NAMPBBFG@gun?5shoot?$AA@ 00451d94     rendermodel.obj
 0002:00003da0       ??_C@_08GAEAHCII@gun?5idle?$AA@ 00451da0     rendermodel.obj
 0002:00003dac       ??_C@_05GHBPBNKD@masks?$AA@ 00451dac     rendermodel.obj
 0002:00003db4       ??_C@_0BK@FJEMDOF@packages?1models?1?$CFs?1?$CFs?4jpg?$AA@ 00451db4     rendermodel.obj
 0002:00003dd0       ??_C@_03NNHBJLDF@png?$AA@  00451dd0     rendermodel.obj
 0002:00003dd4       ??_C@_04NHPAFEHJ@skin?$AA@ 00451dd4     rendermodel.obj
 0002:00003de0       ??_7model@@6B@             00451de0     rendermodel.obj
 0002:00003e04       ??_7vertmodel@@6B@         00451e04     rendermodel.obj
 0002:00003e28       ??_7part@vertmodel@@6B@    00451e28     rendermodel.obj
 0002:00003e34       ??_7md2@@6B@               00451e34     rendermodel.obj
 0002:00003e58       ??_7md2part@md2@@6B@       00451e58     rendermodel.obj
 0002:00003e64       ??_7md3@@6B@               00451e64     rendermodel.obj
 0002:00003e88       ??_7md3part@md3@@6B@       00451e88     rendermodel.obj
 0002:00003e90       ??_C@_0N@KDFPFDGD@particlesize?$AA@ 00451e90     renderparticles.obj
 0002:00003ea0       ??_C@_0BF@NBINLKMJ@data?1martin?1base?4png?$AA@ 00451ea0     renderparticles.obj
 0002:00003eb8       ??_C@_0BG@DCGCLGFN@data?1martin?1ball1?4png?$AA@ 00451eb8     renderparticles.obj
 0002:00003ed0       ??_C@_0BG@MAANNMBD@data?1martin?1smoke?4png?$AA@ 00451ed0     renderparticles.obj
 0002:00003ee8       ??_C@_0BG@LEPGMEPD@data?1martin?1ball2?4png?$AA@ 00451ee8     renderparticles.obj
 0002:00003f00       ??_C@_0BG@HPKKBHFG@data?1martin?1ball3?4png?$AA@ 00451f00     renderparticles.obj
 0002:00003f18       ??_C@_0P@CAGEBFNI@data?1flare?4jpg?$AA@ 00451f18     renderparticles.obj
 0002:00003f28       ??_C@_0BE@LAKOEIGO@maxparticledistance?$AA@ 00451f28     renderparticles.obj
 0002:00003f3c       ??_C@_0N@LPEMHLF@particletext?$AA@ 00451f3c     renderparticles.obj
 0002:00003f4c       ??_C@_0BE@LOKADIAG@data?1newerchars?4png?$AA@ 00451f4c     rendertext.obj
 0002:00003f60       ??_C@_0BD@PJLEBFJF@packages?1?$CFs_?$CFs?4jpg?$AA@ 00451f60     rendertext.obj
 0002:00003f74       ??_C@_0BM@OCBMCDLI@could?5not?5load?5sky?5textures?$AA@ 00451f74     rendertext.obj
 0002:00003f90       ??_C@_07MIIENBA@loadsky?$AA@ 00451f90     rendertext.obj
 0002:00003f98       ??_C@_09NHMEHIJD@no?5skybox?$AA@ 00451f98     rendertext.obj
 0002:00003fa8       ??_7SphereTree@@6B@        00451fa8     spheretree.obj
 0002:00003fb8       ??_7SphereBranch@@6B@      00451fb8     spheretree.obj
 0002:00003fc8       ??_7SphereLeaf@@6B@        00451fc8     spheretree.obj
 0002:00003fd4       ??_C@_06IHODGGMJ@noclip?$AA@ 00451fd4     water.obj
 0002:00003fdc       ??_C@_04POIGMEJN@clip?$AA@ 00451fdc     water.obj
 0002:00003fe4       ??_C@_03HCOFLFO@air?$AA@   00451fe4     water.obj
 0002:00003fe8       ??_C@_0M@KNDLFDJF@watersubdiv?$AA@ 00451fe8     water.obj
 0002:00003ff4       ??_C@_08GBJDFGBD@waterlod?$AA@ 00451ff4     water.obj
 0002:00004000       ??_C@_0N@JLDFKLMO@waterreflect?$AA@ 00452000     water.obj
 0002:00004010       ??_C@_0N@MLIHBFHK@waterrefract?$AA@ 00452010     water.obj
 0002:00004020       ??_C@_0M@IOOIKOIJ@reflectdist?$AA@ 00452020     water.obj
 0002:0000402c       ??_C@_08CFADOFLE@waterfog?$AA@ 0045202c     water.obj
 0002:00004038       ??_C@_0M@HBMJEING@watercolour?$AA@ 00452038     water.obj
 0002:00004044       ??_C@_09CBAHMHEB@waterspec?$AA@ 00452044     water.obj
 0002:00004050       ??_C@_07NMDEAPOO@oqwater?$AA@ 00452050     water.obj
 0002:00004058       ??_C@_05ELAABIKM@water?$AA@ 00452058     water.obj
 0002:00004060       ??_C@_0M@CAPNIE@reflectsize?$AA@ 00452060     water.obj
 0002:0000406c       ??_C@_0L@LINHJFMM@reflectfps?$AA@ 0045206c     water.obj
 0002:00004078       ??_C@_0L@MCMINGLB@maxreflect?$AA@ 00452078     water.obj
 0002:00004084       ??_C@_0M@NIGLHBHC@maskreflect?$AA@ 00452084     water.obj
 0002:00004090       ??_C@_07HJABAHAM@showmat?$AA@ 00452090     water.obj
 0002:00004098       ??_C@_08IPGBCPIC@glassenv?$AA@ 00452098     water.obj
 0002:000040a4       ??_C@_05NGDBJHKI@glass?$AA@ 004520a4     water.obj
 0002:000040ac       ??_C@_07FKBPMEFO@optmats?$AA@ 004520ac     water.obj
 0002:000040b4       ??_C@_0L@CNNBFFPN@envmapsize?$AA@ 004520b4     water.obj
 0002:000040c0       ??_C@_0N@DDBJIIFG@envmapradius?$AA@ 004520c0     water.obj
 0002:000040d0       ??_C@_08HMCLDBKL@aaenvmap?$AA@ 004520d0     water.obj
 0002:000040dc       ??_C@_0BP@CNFFFAB@generating?5environment?5maps?4?4?4?$AA@ 004520dc     water.obj
 0002:000040fc       ??_C@_04GHHNIPCF@push?$AA@ 004520fc     command.obj
 0002:00004104       ??_C@_03NJDAHFJE@pop?$AA@  00452104     command.obj
 0002:00004108       ??_C@_0CJ@BELNJKOL@cannot?5redefine?5builtin?5?$CFs?5with?5@ 00452108     command.obj
 0002:00004134       ??_C@_05NKHOCLEE@alias?$AA@ 00452134     command.obj
 0002:0000413c       ??_C@_04HNCBCJIN@?$CC?$AN?6?$AA?$AA@ 0045213c     command.obj
 0002:00004144       ??_C@_02NCJKDDL@?6?$AA?$AA@ 00452144     command.obj
 0002:00004148       ??_C@_0N@MLMDLNLH@missing?5?$CC?$CFc?$CC?$AA@ 00452148     command.obj
 0002:00004158       ??_C@_0BJ@BKLIPAHN@unknown?5alias?5lookup?3?5?$CFs?$AA@ 00452158     command.obj
 0002:00004174       ??_C@_03MEPGMKBP@?5?7?$AN?$AA@ 00452174     command.obj
 0002:00004178       ??_C@_07OFKOJLII@?1?$DL?5?7?$AN?6?$AA?$AA@ 00452178     command.obj
 0002:00004180       ??_C@_01CLKCMJKC@?5?$AA@   00452180     command.obj
 0002:00004184       ??_C@_07HJGILAGN@numargs?$AA@ 00452184     command.obj
 0002:0000418c       ??_C@_03PEAGNKJF@?$DL?6?$AA?$AA@ 0045218c     command.obj
 0002:00004190       ??_C@_0BE@CNMPJHMN@unknown?5command?3?5?$CFs?$AA@ 00452190     command.obj
 0002:000041a4       ??_C@_0CD@OFJGEDGN@builtin?5declared?5with?5illegal?5ty@ 004521a4     command.obj
 0002:000041c8       ??_C@_0CN@OIIIAOJL@builtin?5declared?5with?5too?5many?5a@ 004521c8     command.obj
 0002:000041f8       ??_C@_07DHPDHKIF@?$CFs?5?$DN?5?$CFd?$AA@ 004521f8     command.obj
 0002:00004200       ??_C@_0CC@ENECAPKH@cannot?5override?5persistent?5var?5?$CF@ 00452200     command.obj
 0002:00004224       ??_C@_0BN@PCLEJOAB@valid?5range?5for?5?$CFs?5is?5?$CFd?4?4?$CFd?$AA@ 00452224     command.obj
 0002:00004244       ??_C@_05JHGBNEBO@arg?$CFd?$AA@ 00452244     command.obj
 0002:0000424c       ??_C@_0BM@BJDNEBAC@cannot?5override?5complete?5?$CFs?$AA@ 0045224c     command.obj
 0002:00004268       ??_C@_08IPNIAGNA@complete?$AA@ 00452268     command.obj
 0002:00004274       ??_C@_01NBENCBCI@?$CK?$AA@ 00452274     command.obj
 0002:00004278       ??_C@_07HMIPAPAI@?$CFs?2?$CK?4?$CFs?$AA@ 00452278     command.obj
 0002:00004280       ??_C@_0DA@FCBEEEIF@unable?5to?5read?5base?5folder?5for?5m@ 00452280     command.obj
 0002:000042b0       ??_C@_0BE@GEOPOPEN@could?5not?5read?5?$CC?$CFs?$CC?$AA@ 004522b0     command.obj
 0002:000042c4       ??_C@_0L@MFNMKHHD@config?4cfg?$AA@ 004522c4     command.obj
 0002:000042d0       ??_C@_0MF@EAEHEJMO@?1?1?5automatically?5written?5on?5exit@ 004522d0     command.obj
 0002:00004398       ??_C@_06JBLMLCKL@?$CFs?5?$CFd?6?$AA@ 00452398     command.obj
 0002:000043a0       ??_C@_08NBICMEHC@nextmap_?$AA@ 004523a0     command.obj
 0002:000043ac       ??_C@_0N@FELOPDPM@?$CC?$CFs?$CC?5?$DN?5?$FL?$CFs?$FN?6?$AA@ 004523ac     command.obj
 0002:000043bc       ??_C@_0BJ@MPKLEIDK@complete?5?$CC?$CFs?$CC?5?$CC?$CFs?$CC?5?$CC?$CFs?$CC?6?$AA@ 004523bc     command.obj
 0002:000043d8       ??_C@_08PDHLHPGD@writecfg?$AA@ 004523d8     command.obj
 0002:000043e4       ??_C@_02HEBPBKGD@if?$AA@   004523e4     command.obj
 0002:000043e8       ??_C@_04GKOOIABA@loop?$AA@ 004523e8     command.obj
 0002:000043f0       ??_C@_05OODBEKIG@while?$AA@ 004523f0     command.obj
 0002:000043f8       ??_C@_03CLFDNPKK@?6?7?5?$AA@ 004523f8     command.obj
 0002:000043fc       ??_C@_03NJBHMCIA@?$CC?6?$AA?$AA@ 004523fc     command.obj
 0002:00004400       ??_C@_04DGCIBJCJ@?6?7?5?$AA?$AA@ 00452400     command.obj
 0002:00004408       ??_C@_04MGEIEJAD@exec?$AA@ 00452408     command.obj
 0002:00004410       ??_C@_01GFHCPBMG@C?$AA@    00452410     command.obj
 0002:00004414       ??_C@_06CMLIEHFC@concat?$AA@ 00452414     command.obj
 0002:0000441c       ??_C@_06KJFADLGN@result?$AA@ 0045241c     command.obj
 0002:00004424       ??_C@_01FCMHBHNC@V?$AA@    00452424     command.obj
 0002:00004428       ??_C@_0L@HEEGNNCI@concatword?$AA@ 00452428     command.obj
 0002:00004434       ??_C@_06DLEPGFEF@format?$AA@ 00452434     command.obj
 0002:0000443c       ??_C@_02CPIDLAI@at?$AA@    0045243c     command.obj
 0002:00004440       ??_C@_07EGMBKCGN@listlen?$AA@ 00452440     command.obj
 0002:00004448       ??_C@_08DFJLCIMD@getalias?$AA@ 00452448     command.obj
 0002:00004454       ??_C@_01MIFGBAGJ@?$CL?$AA@ 00452454     command.obj
 0002:00004458       ??_C@_01JOAMLHOP@?9?$AA@   00452458     command.obj
 0002:0000445c       ??_C@_03FEJMGOGI@div?$AA@  0045245c     command.obj
 0002:00004460       ??_C@_03FFONCNID@mod?$AA@  00452460     command.obj
 0002:00004464       ??_C@_01NEMOKFLO@?$DN?$AA@ 00452464     command.obj
 0002:00004468       ??_C@_02FDNJECIE@?$CB?$DN?$AA@ 00452468     command.obj
 0002:0000446c       ??_C@_01MNNFJEPP@?$DM?$AA@ 0045246c     command.obj
 0002:00004470       ??_C@_01PPODPGHN@?$DO?$AA@ 00452470     command.obj
 0002:00004474       ??_C@_02EHCHHCKH@?$DM?$DN?$AA@ 00452474     command.obj
 0002:00004478       ??_C@_02EEKDKGMJ@?$DO?$DN?$AA@ 00452478     command.obj
 0002:0000447c       ??_C@_01JKBOJNNK@?$FO?$AA@ 0045247c     command.obj
 0002:00004480       ??_C@_01DCLJPIOD@?$CB?$AA@ 00452480     command.obj
 0002:00004484       ??_C@_02PPKAJPJL@?$CG?$CG?$AA@ 00452484     command.obj
 0002:00004488       ??_C@_02NONPIBCD@?$HM?$HM?$AA@ 00452488     command.obj
 0002:0000448c       ??_C@_03FMFFAAHN@rnd?$AA@  0045248c     command.obj
 0002:00004490       ??_C@_06OKBBGPCH@strcmp?$AA@ 00452490     command.obj
 0002:00004498       ??_C@_04OFDNEFMC@echo?$AA@ 00452498     command.obj
 0002:000044a0       ??_C@_04IOCONEBJ@?$AM1?$CFs?$AA@ 004524a0     command.obj
 0002:000044a8       ??_C@_06JLMJMCMF@strstr?$AA@ 004524a8     command.obj
 0002:000044b4       ??_7cmd_if@@6B@            004524b4     command.obj
 0002:000044c0       ??_7cmd_loop@@6B@          004524c0     command.obj
 0002:000044cc       ??_7cmd_while@@6B@         004524cc     command.obj
 0002:000044d8       ??_7cmd_echo@@6B@          004524d8     command.obj
 0002:000044e0       ??_C@_07LBNFLGKM@conskip?$AA@ 004524e0     console.obj
 0002:000044e8       ??_C@_0O@JJBKLGLG@toggleconsole?$AA@ 004524e8     console.obj
 0002:000044f8       ??_C@_04LNGKAPAF@?$DO?5?$CFs?$AA@ 004524f8     console.obj
 0002:00004500       ??_C@_0BK@CLILGADO@cannot?5override?5keymap?5?$CFs?$AA@ 00452500     console.obj
 0002:0000451c       ??_C@_06OILPNDPG@keymap?$AA@ 0045251c     console.obj
 0002:00004524       ??_C@_08DDDKBDDH@editbind?$AA@ 00452524     console.obj
 0002:00004530       ??_C@_04NPNJNMMP@bind?$AA@ 00452530     console.obj
 0002:00004538       ??_C@_0BI@CJJDEPKP@cannot?5override?5?$CFs?5?$CC?$CFs?$CC?$AA@ 00452538     console.obj
 0002:00004550       ??_C@_0BB@LFGCCFPC@unknown?5key?5?$CC?$CFs?$CC?$AA@ 00452550     console.obj
 0002:00004564       ??_C@_0L@KHINIMOC@saycommand?$AA@ 00452564     console.obj
 0002:00004570       ??_C@_06HMPDFCD@mapmsg?$AA@ 00452570     console.obj
 0002:00004578       ??_C@_07MMNEDCBK@history?$AA@ 00452578     console.obj
 0002:00004580       ??_C@_09HMIAIJHM@onrelease?$AA@ 00452580     console.obj
 0002:0000458c       ??_C@_0BA@EKPJKACF@bind?5?$CC?$CFs?$CC?5?$FL?$CFs?$FN?6?$AA@ 0045258c     console.obj
 0002:0000459c       ??_C@_0BE@CHIJPOCA@editbind?5?$CC?$CFs?$CC?5?$FL?$CFs?$FN?6?$AA@ 0045259c     console.obj
 0002:000045b0       ??_C@_05JMJKDBEJ@?$CFs?$CFs?6?$AA@ 004525b0     main.obj
 0002:000045b8       ??_C@_0BI@DDEMNCOA@sauerbraten?5fatal?5error?$AA@ 004525b8     main.obj
 0002:000045d0       ??_C@_0BC@HIAJPDIC@screenshot_?$CFd?4bmp?$AA@ 004525d0     main.obj
 0002:000045e4       ??_C@_0L@CMHOPIGK@screenshot?$AA@ 004525e4     main.obj
 0002:000045f0       ??_C@_04KNNLNNGO@quit?$AA@ 004525f0     main.obj
 0002:000045f8       ??_C@_0O@PFOHHPPK@data?1doom?4jpg?$AA@ 004525f8     main.obj
 0002:00004608       ??_C@_0FG@PFMDBHMC@?$CCfullscreen?$CC?5variable?5not?5suppor@ 00452608     main.obj
 0002:00004660       ??_C@_0FM@JOIKGAFC@?$CCscreenres?$CC?5command?5not?5supporte@ 00452660     main.obj
 0002:000046bc       ??_C@_0L@GIACNHMO@fullscreen?$AA@ 004526bc     main.obj
 0002:000046c8       ??_C@_09KGBNPNPA@screenres?$AA@ 004526c8     main.obj
 0002:000046d4       ??_C@_05KDLBCAI@gamma?$AA@ 004526d4     main.obj
 0002:000046dc       ??_C@_0DG@EEDDPODG@Could?5not?5set?5gamma?5?$CIcard?1driver@ 004526dc     main.obj
 0002:00004714       ??_C@_07MJPKLABF@sdl?3?5?$CFs?$AA@ 00452714     main.obj
 0002:0000471c       ??_C@_09MBCHPELG@gamespeed?$AA@ 0045271c     main.obj
 0002:00004728       ??_C@_02EDKKPMHH@is?$AA@   00452728     main.obj
 0002:0000472c       ??_C@_05PCJCMMHD@sleep?$AA@ 0045272c     main.obj
 0002:00004734       ??_C@_06EKGGOLPA@paused?$AA@ 00452734     main.obj
 0002:0000473c       ??_C@_06MMFGJAOP@maxfps?$AA@ 0045273c     main.obj
 0002:00004744       ??_C@_0N@IFJMFGJK@unknown?5type?$AA@ 00452744     main.obj
 0002:00004754       ??_C@_0CL@GFFFHOPO@Sauerbraten?5Win32?5Exception?3?50x?$CF@ 00452754     main.obj
 0002:00004780       ??_C@_0O@BKHKJPEB@?$CFs?5?9?5?$CFs?5?$FL?$CFd?$FN?6?$AA@ 00452780     main.obj
 0002:00004790       ??_C@_09OJJJOOEH@init?3?5sdl?$AA@ 00452790     main.obj
 0002:0000479c       ??_C@_09NGBIKGEG@packages?1?$AA@ 0045279c     main.obj
 0002:000047a8       ??_C@_0BL@COFEKIFK@unknown?5commandline?5option?$AA@ 004527a8     main.obj
 0002:000047c4       ??_C@_0BN@JEEHKGLF@unknown?5commandline?5argument?$AA@ 004527c4     main.obj
 0002:000047e4       ??_C@_0BL@MKEADNO@Unable?5to?5initialize?5SDL?3?5?$AA@ 004527e4     main.obj
 0002:00004800       ??_C@_0L@CMMOEIOG@init?3?5enet?$AA@ 00452800     main.obj
 0002:0000480c       ??_C@_0CE@BHIAAJAA@Unable?5to?5initialise?5network?5mod@ 0045280c     main.obj
 0002:00004830       ??_C@_0BC@GOLJKPBJ@init?3?5video?3?5mode?$AA@ 00452830     main.obj
 0002:00004844       ??_C@_0CB@MEBHCKKK@Unable?5to?5create?5OpenGL?5screen?3?5@ 00452844     main.obj
 0002:00004868       ??_C@_0BC@EOBOCLG@init?3?5video?3?5misc?$AA@ 00452868     main.obj
 0002:0000487c       ??_C@_0BD@EHKPGFJA@sauerbraten?5engine?$AA@ 0045287c     main.obj
 0002:00004890       ??_C@_0O@GLOOOCJH@init?3?5console?$AA@ 00452890     main.obj
 0002:000048a0       ??_C@_0BA@DLMNMAPM@data?1stdlib?4cfg?$AA@ 004528a0     main.obj
 0002:000048b0       ??_C@_0GB@FNEKHNMP@cannot?5find?5data?5files?5?$CIyou?5are?5@ 004528b0     main.obj
 0002:00004914       ??_C@_08GNLJNONB@init?3?5gl?$AA@ 00452914     main.obj
 0002:00004920       ??_C@_0BD@CHDLEBKN@data?1crosshair?4png?$AA@ 00452920     main.obj
 0002:00004934       ??_C@_0BN@IDGEFPAK@could?5not?5find?5core?5textures?$AA@ 00452934     main.obj
 0002:00004954       ??_C@_0BA@FMCEDLKM@initializing?4?4?4?$AA@ 00452954     main.obj
 0002:00004964       ??_C@_0M@OEFBDAGI@init?3?5world?$AA@ 00452964     main.obj
 0002:00004970       ??_C@_0M@OBJDJOKJ@init?3?5sound?$AA@ 00452970     main.obj
 0002:0000497c       ??_C@_09FJPALEHN@init?3?5cfg?$AA@ 0045297c     main.obj
 0002:00004988       ??_C@_0BA@LEAEHOL@data?1keymap?4cfg?$AA@ 00452988     main.obj
 0002:00004998       ??_C@_0BB@JAEHFEIL@data?1stdedit?4cfg?$AA@ 00452998     main.obj
 0002:000049ac       ??_C@_0P@NIIMAFJI@data?1menus?4cfg?$AA@ 004529ac     main.obj
 0002:000049bc       ??_C@_0BA@LEEAFLFC@data?1sounds?4cfg?$AA@ 004529bc     main.obj
 0002:000049cc       ??_C@_0P@MKDGJLLC@data?1brush?4cfg?$AA@ 004529cc     main.obj
 0002:000049dc       ??_C@_0BC@IKDMLNLE@data?1defaults?4cfg?$AA@ 004529dc     main.obj
 0002:000049f0       ??_C@_0N@PODLOBMM@autoexec?4cfg?$AA@ 004529f0     main.obj
 0002:00004a00       ??_C@_0L@MJHLLJPP@data?1game_?$AA@ 00452a00     main.obj
 0002:00004a0c       ??_C@_04IFJILJI@?4cfg?$AA@ 00452a0c     main.obj
 0002:00004a14       ??_C@_0BD@KIIBOMAJ@init?3?5localconnect?$AA@ 00452a14     main.obj
 0002:00004a28       ??_C@_0N@LPJJBGCK@forward_base?$AA@ 00452a28     main.obj
 0002:00004a38       ??_C@_0P@LOBKCHHA@init?3?5mainloop?$AA@ 00452a38     main.obj
 0002:00004a48       ??_C@_0N@LFMPDBKI@menudistance?$AA@ 00452a48     menus.obj
 0002:00004a58       ??_C@_07PCPPIANI@showgui?$AA@ 00452a58     menus.obj
 0002:00004a60       ??_C@_04EEIGNHLG@menu?$AA@ 00452a60     menus.obj
 0002:00004a68       ??_C@_06DDLLCOJG@action?$AA@ 00452a68     menus.obj
 0002:00004a70       ??_C@_0BA@FKELIIJA@guirollovername?$AA@ 00452a70     menus.obj
 0002:00004a80       ??_C@_0BC@LGHBIKNO@guirolloveraction?$AA@ 00452a80     menus.obj
 0002:00004a94       ??_C@_04NIDJFNBE@info?$AA@ 00452a94     menus.obj
 0002:00004a9c       ??_C@_05DIALNFFA@?$CFs?5?$CFd?$AA@ 00452a9c     menus.obj
 0002:00004aa4       ??_C@_0M@OJOCKACA@checkbox_on?$AA@ 00452aa4     menus.obj
 0002:00004ab0       ??_C@_0N@GDDFPPB@checkbox_off?$AA@ 00452ab0     menus.obj
 0002:00004ac0       ??_C@_08LLBJKDBP@radio_on?$AA@ 00452ac0     menus.obj
 0002:00004acc       ??_C@_09LAAHIJMP@radio_off?$AA@ 00452acc     menus.obj
 0002:00004ad8       ??_C@_0L@ONHIFANB@connect?5?$CFs?$AA@ 00452ad8     menus.obj
 0002:00004ae4       ??_C@_06OKCFAAOA@newgui?$AA@ 00452ae4     menus.obj
 0002:00004aec       ??_C@_09ENOCMPME@guibutton?$AA@ 00452aec     menus.obj
 0002:00004af8       ??_C@_07MAEDOMAO@guitext?$AA@ 00452af8     menus.obj
 0002:00004b00       ??_C@_0L@JJIBGJCF@guiservers?$AA@ 00452b00     menus.obj
 0002:00004b0c       ??_C@_08CCJMFKDJ@cleargui?$AA@ 00452b0c     menus.obj
 0002:00004b18       ??_C@_07NGFAGABE@guilist?$AA@ 00452b18     menus.obj
 0002:00004b20       ??_C@_08GCOBFBHI@guititle?$AA@ 00452b20     menus.obj
 0002:00004b2c       ??_C@_06CGHMFOEP@guibar?$AA@ 00452b2c     menus.obj
 0002:00004b34       ??_C@_04GEAPKPD@ssfi?$AA@  00452b34     menus.obj
 0002:00004b3c       ??_C@_08EDLLKOLB@guiimage?$AA@ 00452b3c     menus.obj
 0002:00004b48       ??_C@_09ILBLNHMK@guislider?$AA@ 00452b48     menus.obj
 0002:00004b54       ??_C@_04LNDBEHBF@ssis?$AA@ 00452b54     menus.obj
 0002:00004b5c       ??_C@_08CIPFIEFK@guiradio?$AA@ 00452b5c     menus.obj
 0002:00004b68       ??_C@_05HIMDNJDP@ssiis?$AA@ 00452b68     menus.obj
 0002:00004b70       ??_C@_0M@JAMJHDPC@guicheckbox?$AA@ 00452b70     menus.obj
 0002:00004b7c       ??_C@_06BJMMEEFN@guitab?$AA@ 00452b7c     menus.obj
 0002:00004b88       ??_7g3d_callback@@6B@      00452b88     menus.obj
 0002:00004b94       ??_7mainmenucallback@@6B@  00452b94     menus.obj
 0002:00004b9c       ??_C@_08PNJILBIL@soundvol?$AA@ 00452b9c     sound.obj
 0002:00004ba8       ??_C@_08LIBENMBJ@musicvol?$AA@ 00452ba8     sound.obj
 0002:00004bb4       ??_C@_0P@ONIMEKAC@soundbufferlen?$AA@ 00452bb4     sound.obj
 0002:00004bc4       ??_C@_0CC@DLAGIPBA@sound?5init?5failed?5?$CISDL_mixer?$CJ?3?5?$CF@ 00452bc4     sound.obj
 0002:00004be8       ??_C@_0BJ@LNIPLGGA@could?5not?5play?5music?3?5?$CFs?$AA@ 00452be8     sound.obj
 0002:00004c04       ??_C@_05LLDJOKNO@music?$AA@ 00452c04     sound.obj
 0002:00004c0c       ??_C@_0O@JLOKPBOM@registersound?$AA@ 00452c0c     sound.obj
 0002:00004c1c       ??_C@_06BDDNELGJ@stereo?$AA@ 00452c1c     sound.obj
 0002:00004c24       ??_C@_0BH@NBCKLDLH@unregistered?5sound?3?5?$CFd?$AA@ 00452c24     sound.obj
 0002:00004c3c       ??_C@_0BH@FEHBGDLC@packages?1sounds?1?$CFs?4wav?$AA@ 00452c3c     sound.obj
 0002:00004c54       ??_C@_0BK@LIJKEEBL@failed?5to?5load?5sample?3?5?$CFs?$AA@ 00452c54     sound.obj
 0002:00004c70       ??_C@_05MHNANJII@sound?$AA@ 00452c70     sound.obj
 0002:00004c78       ??_C@_0P@ODILFDFI@hudguns?1pistol?$AA@ 00452c78     fps.obj
 0002:00004c88       ??_C@_0L@PLPDEDGH@hudguns?1gl?$AA@ 00452c88     fps.obj
 0002:00004c94       ??_C@_0O@GOIJHLBP@hudguns?1rifle?$AA@ 00452c94     fps.obj
 0002:00004ca4       ??_C@_0P@EFFLGMKI@hudguns?1rocket?$AA@ 00452ca4     fps.obj
 0002:00004cb4       ??_C@_0P@CEIEPOPC@hudguns?1chaing?$AA@ 00452cb4     fps.obj
 0002:00004cc4       ??_C@_0O@MFLOFOMK@hudguns?1shotg?$AA@ 00452cc4     fps.obj
 0002:00004cd4       ??_C@_0N@NCDDKFMA@hudguns?1fist?$AA@ 00452cd4     fps.obj
 0002:00004ce4       ??_C@_0N@GCCLOPBK@respawnpoint?$AA@ 00452ce4     fps.obj
 0002:00004cf4       ??_C@_07LKFDAAK@jumppad?$AA@ 00452cf4     fps.obj
 0002:00004cfc       ??_C@_07JHAJHILB@monster?$AA@ 00452cfc     fps.obj
 0002:00004d04       ??_C@_08EFDDNDGI@teledest?$AA@ 00452d04     fps.obj
 0002:00004d10       ??_C@_08LOCMGIHJ@teleport?$AA@ 00452d10     fps.obj
 0002:00004d1c       ??_C@_0L@KPHGGDIO@quaddamage?$AA@ 00452d1c     fps.obj
 0002:00004d28       ??_C@_0N@OPLOOMAJ@yellowarmour?$AA@ 00452d28     fps.obj
 0002:00004d38       ??_C@_0M@LMAKOAIO@greenarmour?$AA@ 00452d38     fps.obj
 0002:00004d44       ??_C@_02EJEGFFMJ@pr?$AA@   00452d44     fps.obj
 0002:00004d48       ??_C@_0M@LKDFPMNF@riflerounds?$AA@ 00452d48     fps.obj
 0002:00004d54       ??_C@_06FABHMPLJ@envmap?$AA@ 00452d54     fps.obj
 0002:00004d5c       ??_C@_0M@GFCPGAEM@playerstart?$AA@ 00452d5c     fps.obj
 0002:00004d68       ??_C@_05OEPGNJB@light?$AA@ 00452d68     fps.obj
 0002:00004d70       ??_C@_05KKJKHDCN@none?$DP?$AA@ 00452d70     fps.obj
 0002:00004d78       ??_C@_0L@OOIBIHEG@teleporter?$AA@ 00452d78     fps.obj
 0002:00004d84       ??_C@_04OJAKJOIH@quad?$AA@ 00452d84     fps.obj
 0002:00004d8c       ??_C@_08MBJKKNOE@b_armour?$AA@ 00452d8c     fps.obj
 0002:00004d98       ??_C@_08OPAPHBEI@y_armour?$AA@ 00452d98     fps.obj
 0002:00004da4       ??_C@_08ILANOIKL@g_armour?$AA@ 00452da4     fps.obj
 0002:00004db0       ??_C@_04KEPDHFDE@11pr?$AA@ 00452db0     fps.obj
 0002:00004db8       ??_C@_06KJINILIP@health?$AA@ 00452db8     fps.obj
 0002:00004dc0       ??_C@_0L@EBGFAHAE@cartridges?$AA@ 00452dc0     fps.obj
 0002:00004dcc       ??_C@_08HOOJIBOO@grenades?$AA@ 00452dcc     fps.obj
 0002:00004dd8       ??_C@_07FHPKGMLA@rrounds?$AA@ 00452dd8     fps.obj
 0002:00004de0       ??_C@_07DCMGFMFH@rockets?$AA@ 00452de0     fps.obj
 0002:00004de8       ??_C@_07MOKFMADJ@bullets?$AA@ 00452de8     fps.obj
 0002:00004df0       ??_C@_06DOEJMPPH@shells?$AA@ 00452df0     fps.obj
 0002:00004df8       ??_C@_01BNIGIBBF@Q?$AA@    00452df8     fps.obj
 0002:00004dfc       ??_C@_02IKLBENJG@YA?$AA@   00452dfc     fps.obj
 0002:00004e00       ??_C@_02JMAJMDOM@GA?$AA@   00452e00     fps.obj
 0002:00004e04       ??_C@_02EAFMPNHD@MH?$AA@   00452e04     fps.obj
 0002:00004e08       ??_C@_01IGIGCIAN@H?$AA@    00452e08     fps.obj
 0002:00004e0c       ??_C@_02ENLJPMBB@PI?$AA@   00452e0c     fps.obj
 0002:00004e10       ??_C@_02OEIPDHIL@PR?$AA@   00452e10     fps.obj
 0002:00004e14       ??_C@_02EODNCIHP@RI?$AA@   00452e14     fps.obj
 0002:00004e18       ??_C@_02DDEKNMDK@RL?$AA@   00452e18     fps.obj
 0002:00004e1c       ??_C@_02MHMEOBLM@MG?$AA@   00452e1c     fps.obj
 0002:00004e20       ??_C@_02NBHMGPMG@SG?$AA@   00452e20     fps.obj
 0002:00004e24       ??_C@_0BE@JOGILLPI@monster?1goblin?1vwep?$AA@ 00452e24     fps.obj
 0002:00004e38       ??_C@_0P@PFGLBFNK@monster?1goblin?$AA@ 00452e38     fps.obj
 0002:00004e48       ??_C@_08DCFBAJBE@a?5goblin?$AA@ 00452e48     fps.obj
 0002:00004e54       ??_C@_0BE@CPFNIPIN@monster?1knight?1vwep?$AA@ 00452e54     fps.obj
 0002:00004e68       ??_C@_0P@OIKJIKPH@monster?1knight?$AA@ 00452e68     fps.obj
 0002:00004e78       ??_C@_08CPJDJGDJ@a?5knight?$AA@ 00452e78     fps.obj
 0002:00004e84       ??_C@_0BA@CDELIPLN@monster?1hellpig?$AA@ 00452e84     fps.obj
 0002:00004e94       ??_C@_09FPFAFKBG@a?5hellpig?$AA@ 00452e94     fps.obj
 0002:00004ea0       ??_C@_0BD@KLHEBOMJ@monster?1bauul?1vwep?$AA@ 00452ea0     fps.obj
 0002:00004eb4       ??_C@_0O@ICGIONEG@monster?1bauul?$AA@ 00452eb4     fps.obj
 0002:00004ec4       ??_C@_05GIMAHAEO@bauul?$AA@ 00452ec4     fps.obj
 0002:00004ecc       ??_C@_0BD@EDODBLJK@monster?1slith?1vwep?$AA@ 00452ecc     fps.obj
 0002:00004ee0       ??_C@_0O@MNBDLPNN@monster?1slith?$AA@ 00452ee0     fps.obj
 0002:00004ef0       ??_C@_07CAKHMFKG@a?5slith?$AA@ 00452ef0     fps.obj
 0002:00004ef8       ??_C@_0BB@MGJHJAFE@monster?1rat?1vwep?$AA@ 00452ef8     fps.obj
 0002:00004f0c       ??_C@_0M@MAGEGAJO@monster?1rat?$AA@ 00452f0c     fps.obj
 0002:00004f18       ??_C@_0M@IECCFDFG@ratamahatta?$AA@ 00452f18     fps.obj
 0002:00004f24       ??_C@_0O@KNDPHKNJ@monster?1rhino?$AA@ 00452f24     fps.obj
 0002:00004f34       ??_C@_07EAILAAKC@a?5rhino?$AA@ 00452f34     fps.obj
 0002:00004f3c       ??_C@_0BC@JGMNPKKH@monster?1ogro?1vwep?$AA@ 00452f3c     fps.obj
 0002:00004f50       ??_C@_0N@EMIENNBG@monster?1ogro?$AA@ 00452f50     fps.obj
 0002:00004f60       ??_C@_07KINFLOMH@an?5ogre?$AA@ 00452f60     fps.obj
 0002:00004f68       ??_C@_04NHHDMLCI@bite?$AA@ 00452f68     fps.obj
 0002:00004f70       ??_C@_09COENHBFK@slimeball?$AA@ 00452f70     fps.obj
 0002:00004f7c       ??_C@_0M@POEIGCHB@plasmarifle?$AA@ 00452f7c     fps.obj
 0002:00004f88       ??_C@_08DCAIFFKA@fireball?$AA@ 00452f88     fps.obj
 0002:00004f94       ??_C@_06HBOMKLFK@pistol?$AA@ 00452f94     fps.obj
 0002:00004f9c       ??_C@_0BA@LINEBENL@grenadelauncher?$AA@ 00452f9c     fps.obj
 0002:00004fac       ??_C@_05NLPPOCND@rifle?$AA@ 00452fac     fps.obj
 0002:00004fb4       ??_C@_0P@DBMKEOAJ@rocketlauncher?$AA@ 00452fb4     fps.obj
 0002:00004fc4       ??_C@_08FEJLBOPJ@chaingun?$AA@ 00452fc4     fps.obj
 0002:00004fd0       ??_C@_08LABLFIBI@sshotgun?$AA@ 00452fd0     fps.obj
 0002:00004fdc       ??_C@_04HEGFFIHN@fist?$AA@ 00452fdc     fps.obj
 0002:00004fe4       ??_C@_07PNBGPICD@capture?$AA@ 00452fe4     fps.obj
 0002:00004fec       ??_C@_0BC@DDGHOOBE@Team?5Rocket?5Arena?$AA@ 00452fec     fps.obj
 0002:00005000       ??_C@_0N@KHLIHEAG@Rocket?5Arena?$AA@ 00453000     fps.obj
 0002:00005010       ??_C@_0BB@CDPCCMIN@insta?5clan?5arena?$AA@ 00453010     fps.obj
 0002:00005024       ??_C@_0M@CCFDDDGB@insta?5arena?$AA@ 00453024     fps.obj
 0002:00005030       ??_C@_0BA@KDAPCABB@efficiency?5team?$AA@ 00453030     fps.obj
 0002:00005040       ??_C@_0L@CCDNIEMB@efficiency?$AA@ 00453040     fps.obj
 0002:0000504c       ??_C@_0O@KOBPMHEA@instagib?5team?$AA@ 0045304c     fps.obj
 0002:0000505c       ??_C@_08HDAKIDIL@instagib?$AA@ 0045305c     fps.obj
 0002:00005068       ??_C@_08IKNDEHFO@teamplay?$AA@ 00453068     fps.obj
 0002:00005074       ??_C@_08EMDHOGLC@ffa?1duel?$AA@ 00453074     fps.obj
 0002:00005080       ??_C@_08OKMMABNO@coopedit?$AA@ 00453080     fps.obj
 0002:0000508c       ??_C@_0M@DJOGCPJO@ffa?1default?$AA@ 0045308c     fps.obj
 0002:00005098       ??_C@_04CJJBLLDG@DMSP?$AA@ 00453098     fps.obj
 0002:000050a0       ??_C@_02NEPPOLFA@SP?$AA@   004530a0     fps.obj
 0002:000050a4       ??_C@_04BOGJAFCD@risi?$AA@ 004530a4     fps.obj
 0002:000050ac       ??_C@_06DJLPKDLI@riissi?$AA@ 004530ac     fps.obj
 0002:000050b4       ??_C@_0BL@LHADIMPB@team?5?$CFs?5captured?5all?5bases?$AA@ 004530b4     fps.obj
 0002:000050d0       ??_C@_03FMJJJCGO@ris?$AA@  004530d0     fps.obj
 0002:000050d4       ??_C@_03LFPLOMCK@ri2?$AA@  004530d4     fps.obj
 0002:000050d8       ??_C@_0BL@KJOEKGDA@master?5forced?5?$CFs?5on?5map?5?$CFs?$AA@ 004530d8     fps.obj
 0002:000050f4       ??_C@_0CO@JLACOPBF@?$CFs?5suggests?5?$CFs?5on?5map?5?$CFs?5?$CIselect@ 004530f4     fps.obj
 0002:00005124       ??_C@_03FAAAOPJM@red?$AA@  00453124     fps.obj
 0002:00005128       ??_C@_04OBGPFBCN@blue?$AA@ 00453128     fps.obj
 0002:00005130       ??_C@_04LPPFNJFO@riis?$AA@ 00453130     fps.obj
 0002:00005138       ??_C@_0BH@MDKGCMOP@vote?5passed?5by?5default?$AA@ 00453138     fps.obj
 0002:00005150       ??_C@_0BI@JODGAEPN@vote?5passed?5by?5majority?$AA@ 00453150     fps.obj
 0002:00005168       ??_C@_02ODPEEKDN@ri?$AA@   00453168     fps.obj
 0002:0000516c       ??_C@_07LFIJDALL@unnamed?$AA@ 0045316c     fps.obj
 0002:00005174       ??_C@_03ODKBELKM@ri4?$AA@  00453174     fps.obj
 0002:00005178       ??_C@_02KKMIICDD@i2?$AA@   00453178     fps.obj
 0002:0000517c       ??_C@_0BF@IOLNPHMJ@mastermode?5is?5now?5?$CFd?$AA@ 0045317c     fps.obj
 0002:00005194       ??_C@_03KMOANNGL@ri3?$AA@  00453194     fps.obj
 0002:00005198       ??_C@_0BG@GDOFJFGK@server?5sending?5map?4?4?4?$AA@ 00453198     fps.obj
 0002:000051b0       ??_C@_0P@BOFDIBHG@no?5map?5to?5send?$AA@ 004531b0     fps.obj
 0002:000051c0       ??_C@_0BF@CAAFFAJM@Torment?5Server?5Alpha?$AA@ 004531c0     fps.obj
 0002:000051d8       ??_C@_0BJ@JGKLDNHJ@http?3?1?1is?4kicks?9ass?4org?1?$AA@ 004531d8     fps.obj
 0002:000051f4       ??_C@_05MAMALHE@older?$AA@ 004531f4     fps.obj
 0002:000051fc       ??_C@_05IIOMECNB@newer?$AA@ 004531fc     fps.obj
 0002:00005204       ??_C@_0BB@LFPGLMDO@?$FL?$CFs?5protocol?$FN?5?$CFs?$AA@ 00453204     fps.obj
 0002:00005218       ??_C@_05LCKIIOJE@?$CFd?1?$CFd?$AA@ 00453218     fps.obj
 0002:00005220       ??_C@_02GEDPGAAE@?5L?$AA@  00453220     fps.obj
 0002:00005224       ??_C@_02ICEIDNFJ@?5P?$AA@  00453224     fps.obj
 0002:00005228       ??_C@_09DJENBFJK@?$FLunknown?$FN?$AA@ 00453228     fps.obj
 0002:00005234       ??_C@_0BE@PMGLPEMB@?$CFd?7?$CFs?7?$CFs?0?5?$CFs?3?5?$CFs?5?$CFs?$AA@ 00453234     fps.obj
 0002:00005248       ??_C@_0DC@HENALMIK@?$FLmap?5uploaded?5to?5server?0?5?$CC?1getma@ 00453248     fps.obj
 0002:0000527c       ??_C@_09EKNBGHDE@maxdebris?$AA@ 0045327c     fps.obj
 0002:00005288       ??_C@_03NBJHCJCO@ri6?$AA@  00453288     fps.obj
 0002:0000528c       ??_C@_03MIIMBIGP@ri7?$AA@  0045328c     fps.obj
 0002:00005290       ??_C@_0BE@EONANEAG@projectiles?1grenade?$AA@ 00453290     fps.obj
 0002:000052a4       ??_C@_04FBGCDMBM@gibc?$AA@ 004532a4     fps.obj
 0002:000052ac       ??_C@_04LCJGOFNH@gibh?$AA@ 004532ac     fps.obj
 0002:000052b4       ??_C@_0BB@CCPOEFIK@debris?1debris0?$CFd?$AA@ 004532b4     fps.obj
 0002:000052c8       ??_C@_0BD@JGHENKAG@projectiles?1rocket?$AA@ 004532c8     fps.obj
 0002:000052dc       ??_C@_0CG@FODOFOEK@warning?3?5unknown?5monster?5in?5spaw@ 004532dc     fps.obj
 0002:00005304       ??_C@_05ODMCMJAJ@skill?$AA@ 00453304     fps.obj
 0002:0000530c       ??_C@_0BM@KJGPJJDD@?$AM2you?5have?5cleared?5the?5map?$CB?$AA@ 0045330c     fps.obj
 0002:00005328       ??_C@_0BI@GIPJPDJJ@?$AM2you?5reached?5the?5exit?$CB?$AA@ 00453328     fps.obj
 0002:00005340       ??_C@_01KDCPPGHE@r?$AA@    00453340     fps.obj
 0002:00005344       ??_C@_0BP@LKAMMMAD@?$AM2only?5?$CFd?5monster?$CIs?$CJ?5remaining?$AA@ 00453344     fps.obj
 0002:00005364       ??_C@_0BK@IIIJDAC@?$AM2The?5invasion?5has?5begun?$CB?$AA@ 00453364     fps.obj
 0002:00005380       ??_C@_0BI@FJCGOFCF@frags?7pj?7ping?7team?7name?$AA@ 00453380     fps.obj
 0002:00005398       ??_C@_09CLEGGIFM@?$CFs?5?$AM0?$CI?$CFd?$CJ?$AA@ 00453398     fps.obj
 0002:000053a4       ??_C@_0BB@FNAAEFPM@SPECTATOR?7?7?7?$CFs?$CFs?$AA@ 004533a4     fps.obj
 0002:000053b8       ??_C@_03MBBJPJFD@LAG?$AA@  004533b8     fps.obj
 0002:000053bc       ??_C@_0BB@CGANPNIF@?$CFd?7?$CFs?7?$CFd?7?$CFs?7?$CFs?$CFs?$AA@ 004533bc     fps.obj
 0002:000053d0       ??_C@_04DBFOOMJC@ogro?$AA@ 004533d0     fps.obj
 0002:000053d8       ??_C@_0L@OLIBBMMP@?$FL?5?$CFs?3?5?$CFd?5?$FN?$AA@ 004533d8     fps.obj
 0002:000053e4       ??_C@_0BC@KPCGFOBP@monster?1ogro?1blue?$AA@ 004533e4     fps.obj
 0002:000053f8       ??_C@_0BB@BNIMIJHO@monster?1ogro?1red?$AA@ 004533f8     fps.obj
 0002:0000540c       ??_C@_04LADICFHB@?5?$CL?$CFd?$AA@ 0045340c     fps.obj
 0002:00005414       ??_C@_06FBJJEBFB@carrot?$AA@ 00453414     fps.obj
 0002:0000541c       ??_C@_0L@BCLIOAO@checkpoint?$AA@ 0045341c     fps.obj
 0002:00005428       ??_C@_0BE@FEODHDPI@?$AM2you?5got?5the?5quad?$CB?$AA@ 00453428     fps.obj
 0002:0000543c       ??_C@_03OMLEGILF@rii?$AA@  0045343c     fps.obj
 0002:00005440       ??_C@_0CD@NCENENAK@no?5teleport?5destination?5for?5tag?5@ 00453440     fps.obj
 0002:00005464       ??_C@_0BF@FPENCJCK@?$AM2respawn?5point?5set?$CB?$AA@ 00453464     fps.obj
 0002:0000547c       ??_C@_0BG@IFLFJHGO@?$AM2quad?5damage?5is?5over?$AA@ 0045347c     fps.obj
 0002:00005494       ??_C@_03FGAPDFOB@ri9?$AA@  00453494     fps.obj
 0002:00005498       ??_C@_0BB@HABAPOIG@your?5name?5is?3?5?$CFs?$AA@ 00453498     fps.obj
 0002:000054ac       ??_C@_0BB@IHACMKAP@your?5team?5is?3?5?$CFs?$AA@ 004534ac     fps.obj
 0002:000054c0       ??_C@_0BF@PMBKNMNJ@name?5?$CC?$CFs?$CC?6team?5?$CC?$CFs?$CC?6?$AA@ 004534c0     fps.obj
 0002:000054d8       ??_C@_0DC@KLLBGCCJ@editing?5in?5multiplayer?5requires?5@ 004534d8     fps.obj
 0002:0000550c       ??_C@_0CI@ENKCILI@inconsistant?5msg?5size?5for?5?$CFd?5?$CI?$CFd@ 0045350c     fps.obj
 0002:00005534       ??_C@_08BLALIDEL@?$AM0?$CFs?3?5?$CFs?$AA@ 00453534     fps.obj
 0002:00005540       ??_C@_02FDNJLAOG@rs?$AA@   00453540     fps.obj
 0002:00005544       ??_C@_04GPMDFGEJ@type?$AA@ 00453544     fps.obj
 0002:00005550       ??_C@_0EA@ODLNMIDP@This?5server?5appears?5to?5have?5a?5ne@ 00453550     fps.obj
 0002:00005590       ??_C@_0L@LDLMOHKM@?$AM1?$CFs?3?$AM0?5?$CFs?$AA@ 00453590     fps.obj
 0002:0000559c       ??_C@_08JPLJCGBB@capture_?$AA@ 0045359c     fps.obj
 0002:000055a8       ??_C@_0N@OFMOEPDI@nextmap_?$CFs?$CFs?$AA@ 004535a8     fps.obj
 0002:000055b8       ??_C@_03PNAFEOBD@rsi?$AA@  004535b8     fps.obj
 0002:000055bc       ??_C@_0BG@FECIBIAO@?$CFs?5is?5now?5known?5as?5?$CFs?$AA@ 004535bc     fps.obj
 0002:000055d4       ??_C@_0CA@JOIBCBGL@?$AM0?$CFs?5?$AM2enters?5from?5the?5shadows?4?$AA@ 004535d4     fps.obj
 0002:000055f4       ??_C@_0BP@MCIKNLAF@?$AM1?$CFs?5?$AM3Has?5left?5into?5darkness?4?$AA@ 004535f4     fps.obj
 0002:00005614       ??_C@_0BG@PBFECBCL@?$AM1?$CFs?5?$AM2saw?5the?5light?4?$AA@ 00453614     fps.obj
 0002:0000562c       ??_C@_0CC@IPFFHJGJ@?$AM2you?5fragged?5a?5teammate?5?$CI?$AM4?$CFs?$AM2@ 0045362c     fps.obj
 0002:00005650       ??_C@_0BD@PILJGCKL@?$AM2you?5fragged?5?$AM3?$CFs?$AA@ 00453650     fps.obj
 0002:00005664       ??_C@_0CD@KCALEAKF@?$AM2?$CFs?5fragged?5his?5teammate?5?$CI?$AM4?$CFs?$AM@ 00453664     fps.obj
 0002:00005688       ??_C@_0BC@NPFAGLIF@?$AM2?$CFs?5fragged?5?$AM3?$CFs?$AA@ 00453688     fps.obj
 0002:0000569c       ??_C@_03HKLIFCHG@?$EA?$CFd?$AA@ 0045369c     fps.obj
 0002:000056a0       ??_C@_0CC@DOFFJMJF@?$AM3DAMAGE?5MULTIPLIER?5?$AM2Spawning?4?4@ 004536a0     fps.obj
 0002:000056c4       ??_C@_09GNMCPHEI@getmap_?$CFd?$AA@ 004536c4     fps.obj
 0002:000056d0       ??_C@_0BF@MKAJFMIF@packages?1base?1?$CFs?4tmf?$AA@ 004536d0     fps.obj
 0002:000056e8       ??_C@_0N@NKJJANHK@received?5map?$AA@ 004536e8     fps.obj
 0002:000056f8       ??_C@_0CF@BMLADHAP@?$CCgetmap?$CC?5only?5works?5in?5coopedit?5@ 004536f8     fps.obj
 0002:00005720       ??_C@_0BD@KLCJHBAF@Downloading?5Map?4?4?4?$AA@ 00453720     fps.obj
 0002:00005734       ??_C@_0CG@PEBANIAF@?$CCsendmap?$CC?5only?5works?5in?5coopedit@ 00453734     fps.obj
 0002:0000575c       ??_C@_0BB@DBCAKOCN@Uploading?5Map?4?4?4?$AA@ 0045375c     fps.obj
 0002:00005770       ??_C@_0L@HIBEGFOL@sendmap_?$CFd?$AA@ 00453770     fps.obj
 0002:0000577c       ??_C@_0BB@KCDKBDMJ@map?5is?5too?5large?$AA@ 0045377c     fps.obj
 0002:00005790       ??_C@_0BD@MOOOPCEJ@could?5not?5read?5map?$AA@ 00453790     fps.obj
 0002:000057a4       ??_C@_0BH@BMHGJKKK@?$AM2no?5teammate?5in?5range?$AA@ 004537a4     fps.obj
 0002:000057bc       ??_C@_0BI@CDAFBKIL@?$AM2replenished?5?$CFs?8s?5ammo?$AA@ 004537bc     fps.obj
 0002:000057d4       ??_C@_0BL@BHJAAGGK@?$AM2?$CFs?5replenished?5your?5ammo?$AA@ 004537d4     fps.obj
 0002:000057f0       ??_C@_08JLDHMMGG@core?1red?$AA@ 004537f0     fps.obj
 0002:000057fc       ??_C@_09LMMMHNAM@core?1blue?$AA@ 004537fc     fps.obj
 0002:00005808       ??_C@_0N@NPIFHDPN@core?1neutral?$AA@ 00453808     fps.obj
 0002:00005818       ??_C@_0BC@OBDJOAHP@?$AM?$CFd?$CFs?5?$AM0vs?4?5?$AM?$CFd?$CFs?$AA@ 00453818     fps.obj
 0002:0000582c       ??_C@_0BC@BMPGBFM@data?1blip_red?4png?$AA@ 0045382c     fps.obj
 0002:00005840       ??_C@_0BD@FHIBEJKA@data?1blip_grey?4png?$AA@ 00453840     fps.obj
 0002:00005854       ??_C@_0BD@GHONHBNI@data?1blip_blue?4png?$AA@ 00453854     fps.obj
 0002:00005868       ??_C@_0P@NGHHFAII@data?1radar?4png?$AA@ 00453868     fps.obj
 0002:00005878       ??_C@_0BG@JHCHAKPP@?$AM2?$CFs?5captured?5base?5?$CFd?$AA@ 00453878     fps.obj
 0002:00005890       ??_C@_0BC@PGKCPNKC@?$AM2?$CFs?5lost?5base?5?$CFd?$AA@ 00453890     fps.obj
 0002:000058a4       ??_C@_0CF@MKLPMIPM@mode?5?$CFd?5not?5supported?5in?5multipl@ 004538a4     fps.obj
 0002:000058cc       ??_C@_0BP@CCGLGEKH@?$AM2new?5round?5starting?4?4?4?5fight?$CB?$AA@ 004538cc     fps.obj
 0002:000058ec       ??_C@_0DC@KKCLMONO@?$AM2arena?5round?5is?5over?$CB?5next?5roun@ 004538ec     fps.obj
 0002:00005920       ??_C@_0BP@MPKDDLCD@?$AM2team?5?$CFs?5is?5last?5man?5standing?$AA@ 00453920     fps.obj
 0002:00005940       ??_C@_0BB@MDGDKEIO@?$AM2everyone?5died?$CB?$AA@ 00453940     fps.obj
 0002:00005954       ??_C@_0CL@NEIHDOL@?$AM2you?5must?5wait?5?$CFd?5seconds?5befor@ 00453954     fps.obj
 0002:00005980       ??_C@_0CE@EPLBJMOI@?$AM2waiting?5for?5new?5round?5to?5start@ 00453980     fps.obj
 0002:000059a8       ??_C@_0EL@PAMFDBKH@?$AM2You?5wasted?5another?5life?$CB?5The?5m@ 004539a8     fps.obj
 0002:000059f4       ??_C@_0BI@NPLKIELE@?$AM2you?5got?5killed?5by?5?$CFs?$CB?$AA@ 004539f4     fps.obj
 0002:00005a0c       ??_C@_0P@KLGLLBJD@?$AM2Ouch?5Really?$DP?$AA@ 00453a0c     fps.obj
 0002:00005a1c       ??_C@_0CF@BAPPEKBO@?$AM2you?5got?5fragged?5by?5a?5teammate?5@ 00453a1c     fps.obj
 0002:00005a44       ??_C@_0BI@GALNMFAB@?$AM2you?5got?5fragged?5by?5?$CFs?$AA@ 00453a44     fps.obj
 0002:00005a5c       ??_C@_0BA@FAJDKGHB@?$AM2intermission?3?$AA@ 00453a5c     fps.obj
 0002:00005a6c       ??_C@_0BC@MKHFPMHI@?$AM2game?5has?5ended?$CB?$AA@ 00453a6c     fps.obj
 0002:00005a80       ??_C@_0BP@NAMOLON@?$AM2player?5frags?3?5?$CFd?0?5deaths?3?5?$CFd?$AA@ 00453a80     fps.obj
 0002:00005aa0       ??_C@_0EF@DNLHPHBP@?$AM2player?5total?5damage?5dealt?3?5?$CFd?0@ 00453aa0     fps.obj
 0002:00005ae8       ??_C@_0CE@EBCAOPNI@?$AM2?9?9?9?5single?5player?5time?5score?3?5@ 00453ae8     fps.obj
 0002:00005b0c       ??_C@_0BJ@IPOILIDO@?$AM2time?5taken?3?5?$CFd?5seconds?$AA@ 00453b0c     fps.obj
 0002:00005b28       ??_C@_0DJ@IJNINBA@?$AM2time?5penalty?5for?5?$CFd?5deaths?5?$CI1?5@ 00453b28     fps.obj
 0002:00005b68       ??_C@_0EH@EAKAJDBF@?$AM2time?5penalty?5for?5?$CFd?5monsters?5r@ 00453b68     fps.obj
 0002:00005bb0       ??_C@_0ED@FOOBFMKE@?$AM2time?5penalty?5for?5lower?5skill?5l@ 00453bb0     fps.obj
 0002:00005bf4       ??_C@_0DP@KKMPAEKD@?$AM2time?5penalty?5for?5missed?5shots?5@ 00453bf4     fps.obj
 0002:00005c34       ??_C@_0N@OCMBFNBJ@bestscore_?$CFs?$AA@ 00453c34     fps.obj
 0002:00005c48       ??_C@_0EM@CLPOIIDJ@?$AM2TOTAL?5SCORE?5?$CItime?5?$CL?5time?5penal@ 00453c48     fps.obj
 0002:00005c94       ??_C@_0BN@EBHDFCJB@?$AM2time?5remaining?3?5?$CFd?5minutes?$AA@ 00453c94     fps.obj
 0002:00005cb4       ??_C@_09ONOEJFNM@clientnum?$AA@ 00453cb4     fps.obj
 0002:00005cc0       ??_C@_0BK@GCAEJPFL@coop?5sp?5not?5supported?5yet?$AA@ 00453cc0     fps.obj
 0002:00005cdc       ??_C@_0BC@IANONCGC@?$AM2game?5mode?5is?5?$CFs?$AA@ 00453cdc     fps.obj
 0002:00005cf0       ??_C@_0CJ@BADBDCCN@?$AM2try?5to?5beat?5your?5best?5score?5so@ 00453cf0     fps.obj
 0002:00005d1c       ??_C@_06OCCCEMNE@hudgun?$AA@ 00453d1c     fps.obj
 0002:00005d24       ??_C@_0P@CPDIJEOG@data?1items?4png?$AA@ 00453d24     fps.obj
 0002:00005d34       ??_C@_0P@CIJLMAKL@data?1ranks?4png?$AA@ 00453d34     fps.obj
 0002:00005d44       ??_C@_0BJ@IBCEHFPM@?$AM2TORMENT?5v?$AM30?48?5?$AM2Alpha?$AA@ 00453d44     fps.obj
 0002:00005d60       ??_C@_09GNDCBOBP@SPECTATOR?$AA@ 00453d60     fps.obj
 0002:00005d6c       ??_C@_04CBKEJIAE@?$AM3?$CFd?$AA@ 00453d6c     fps.obj
 0002:00005d74       ??_C@_05ONPKFDNJ@ri9i4?$AA@ 00453d74     fps.obj
 0002:00005d7c       ??_C@_05PEOBGCJI@ri9i5?$AA@ 00453d7c     fps.obj
 0002:00005d84       ??_C@_05NPMMDBFL@ri9i6?$AA@ 00453d84     fps.obj
 0002:00005d8c       ??_C@_06GEPNGEJI@weapon?$AA@ 00453d8c     fps.obj
 0002:00005d94       ??_C@_0L@NHHNPEKO@showscores?$AA@ 00453d94     fps.obj
 0002:00005da0       ??_C@_03BANJEMDJ@say?$AA@  00453da0     fps.obj
 0002:00005da4       ??_C@_04MEMAJGDJ@name?$AA@ 00453da4     fps.obj
 0002:00005dac       ??_C@_04KADBPNCB@team?$AA@ 00453dac     fps.obj
 0002:00005db4       ??_C@_03HBNNNHNM@map?$AA@  00453db4     fps.obj
 0002:00005db8       ??_C@_04FNIJDBCC@kick?$AA@ 00453db8     fps.obj
 0002:00005dc0       ??_C@_09FNMDCDOI@spectator?$AA@ 00453dc0     fps.obj
 0002:00005dcc       ??_C@_0L@BKPOPNCH@mastermode?$AA@ 00453dcc     fps.obj
 0002:00005dd8       ??_C@_09BPBGLMCC@setmaster?$AA@ 00453dd8     fps.obj
 0002:00005de4       ??_C@_07GINDGPLD@setteam?$AA@ 00453de4     fps.obj
 0002:00005dec       ??_C@_06NHIPHNDD@getmap?$AA@ 00453dec     fps.obj
 0002:00005df4       ??_C@_07JAKGJNDP@sendmap?$AA@ 00453df4     fps.obj
 0002:00005dfc       ??_C@_07GJHAIGMA@repammo?$AA@ 00453dfc     fps.obj
 0002:00005e04       ??_C@_04GMGOKAFF@mode?$AA@ 00453e04     fps.obj
 0002:00005e0c       ??_C@_04BJJEOANI@kill?$AA@ 00453e0c     fps.obj
 0002:00005e18       ??_7igame@@6B@             00453e18     fps.obj
 0002:00005e28       ??_7icliententities@@6B@   00453e28     fps.obj
 0002:00005e60       ??_7iclientcom@@6B@        00453e60     fps.obj
 0002:00005e8c       ??_7igameclient@@6B@       00453e8c     fps.obj
 0002:00005eec       ??_7igameserver@@6B@       00453eec     fps.obj
 0002:00005f44       ??_7fpsserver@@6B@         00453f44     fps.obj
 0002:00005f9c       ??_7fpsclient@@6B@         00453f9c     fps.obj
 0002:00005ffc       ??_7var_maxdebris@weaponstate@fpsclient@@6B@ 00453ffc     fps.obj
 0002:00006008       ??_7var_skill@monsterset@fpsclient@@6B@ 00454008     fps.obj
 0002:00006014       ??_7scoreboard@fpsclient@@6B@ 00454014     fps.obj
 0002:00006020       ??_7entities@fpsclient@@6B@ 00454020     fps.obj
 0002:00006058       ??_7clientcom@fpsclient@@6B@ 00454058     fps.obj
 0002:00006084       ??_7var_hudgun@fpsclient@@6B@ 00454084     fps.obj
 0002:00006090       ??_7cmd_weapon@?1???0weaponstate@fpsclient@@QAE@AAU2@@Z@6B@ 00454090     fps.obj
 0002:0000609c       ??_7?$tident@Uweaponstate@fpsclient@@@@6B@ 0045409c     fps.obj
 0002:000060a8       ??_7cmd_showscores@?1???0scoreboard@fpsclient@@QAE@AAU2@@Z@6B@ 004540a8     fps.obj
 0002:000060b4       ??_7?$tident@Uscoreboard@fpsclient@@@@6B@ 004540b4     fps.obj
 0002:000060c0       ??_7cmd_say@?1???0clientcom@fpsclient@@QAE@AAU2@@Z@6B@ 004540c0     fps.obj
 0002:000060cc       ??_7?$tident@Uclientcom@fpsclient@@@@6B@ 004540cc     fps.obj
 0002:000060d8       ??_7cmd_name@?2???0clientcom@fpsclient@@QAE@AAU2@@Z@6B@ 004540d8     fps.obj
 0002:000060e4       ??_7cmd_team@?3???0clientcom@fpsclient@@QAE@AAU2@@Z@6B@ 004540e4     fps.obj
 0002:000060f0       ??_7cmd_map@?4???0clientcom@fpsclient@@QAE@AAU2@@Z@6B@ 004540f0     fps.obj
 0002:000060fc       ??_7cmd_kick@?5???0clientcom@fpsclient@@QAE@AAU2@@Z@6B@ 004540fc     fps.obj
 0002:00006108       ??_7cmd_spectator@?6???0clientcom@fpsclient@@QAE@AAU2@@Z@6B@ 00454108     fps.obj
 0002:00006114       ??_7cmd_mastermode@?7???0clientcom@fpsclient@@QAE@AAU2@@Z@6B@ 00454114     fps.obj
 0002:00006120       ??_7cmd_setmaster@?8???0clientcom@fpsclient@@QAE@AAU2@@Z@6B@ 00454120     fps.obj
 0002:0000612c       ??_7cmd_setteam@?9???0clientcom@fpsclient@@QAE@AAU2@@Z@6B@ 0045412c     fps.obj
 0002:00006138       ??_7cmd_getmap@?L@???0clientcom@fpsclient@@QAE@AAU2@@Z@6B@ 00454138     fps.obj
 0002:00006144       ??_7cmd_sendmap@?M@???0clientcom@fpsclient@@QAE@AAU2@@Z@6B@ 00454144     fps.obj
 0002:00006150       ??_7cmd_repammo@?1???0captureclient@fpsclient@@QAE@AAU2@@Z@6B@ 00454150     fps.obj
 0002:0000615c       ??_7?$tident@Ucaptureclient@fpsclient@@@@6B@ 0045415c     fps.obj
 0002:00006168       ??_7cmd_mode@?1???0fpsclient@@QAE@XZ@6B@ 00454168     fps.obj
 0002:00006174       ??_7?$tident@Ufpsclient@@@@6B@ 00454174     fps.obj
 0002:00006180       ??_7cmd_kill@?2???0fpsclient@@QAE@XZ@6B@ 00454180     fps.obj
 0002:0000618c       ??_7fpsgame@@6B@           0045418c     fps.obj
 0002:00006198       ??_C@_07NDGCOLFB@stealth?$AA@ 00454198     rpg.obj
 0002:000061a0       ??_C@_06PICFFGDF@feared?$AA@ 004541a0     rpg.obj
 0002:000061a8       ??_C@_09PPHFIBFH@hostility?$AA@ 004541a8     rpg.obj
 0002:000061b4       ??_C@_0L@EDPHPFHG@tradeskill?$AA@ 004541b4     rpg.obj
 0002:000061c0       ??_C@_08KFCDPDHF@strength?$AA@ 004541c0     rpg.obj
 0002:000061cc       ??_C@_05JJHFHHDI@maxhp?$AA@ 004541cc     rpg.obj
 0002:000061d4       ??_C@_09DPBGJCJA@movespeed?$AA@ 004541d4     rpg.obj
 0002:000061e0       ??_C@_0M@CNFIAIDN@attackspeed?$AA@ 004541e0     rpg.obj
 0002:000061ec       ??_C@_0O@JPINHBMG@defensefactor?$AA@ 004541ec     rpg.obj
 0002:000061fc       ??_C@_0M@HBJBJKDP@magicfactor?$AA@ 004541fc     rpg.obj
 0002:00006208       ??_C@_0N@KFJLJAFH@rangedfactor?$AA@ 00454208     rpg.obj
 0002:00006218       ??_C@_0M@BJPDOINJ@meleefactor?$AA@ 00454218     rpg.obj
 0002:00006224       ??_C@_0N@NLNCEJCC@defensepower?$AA@ 00454224     rpg.obj
 0002:00006234       ??_C@_0L@NGOFFCLE@magiccrush?$AA@ 00454234     rpg.obj
 0002:00006240       ??_C@_0M@GHNPNINH@rangedcrush?$AA@ 00454240     rpg.obj
 0002:0000624c       ??_C@_0L@GJCEEMGG@meleecrush?$AA@ 0045424c     rpg.obj
 0002:00006258       ??_C@_0L@MJFIJMCA@magicpower?$AA@ 00454258     rpg.obj
 0002:00006264       ??_C@_0M@HIGCBGED@rangedpower?$AA@ 00454264     rpg.obj
 0002:00006270       ??_C@_0L@HGJJICPC@meleepower?$AA@ 00454270     rpg.obj
 0002:0000627c       ??_C@_05BDADGJGG@spawn?$AA@ 0045427c     rpg.obj
 0002:00006284       ??_C@_06EIAMLKMJ@rpg_01?$AA@ 00454284     rpg.obj
 0002:0000628c       ??_C@_03GBBIHDEJ@foo?$AA@  0045428c     rpg.obj
 0002:00006290       ??_C@_09IPAEKDAI@localhost?$AA@ 00454290     rpg.obj
 0002:0000629c       ??_C@_0M@GNLFBMMN@free?1rumble?$AA@ 0045429c     rpg.obj
 0002:000062a8       ??_C@_0BO@FLPOKBP@stat?5?$CFs?5doesn?8t?5exist?$CB?5?$CI?$CF?41f?$CJ?$AA@ 004542a8     rpg.obj
 0002:000062c8       ??_C@_06GBEGMGE@?$CFs?3?5?$CFd?$AA@ 004542c8     rpg.obj
 0002:000062d0       ??_C@_08MIJGIHBP@spawn_?$CFs?$AA@ 004542d0     rpg.obj
 0002:000062dc       ??_C@_0BA@BAMNHKFI@tentus?1moneybag?$AA@ 004542dc     rpg.obj
 0002:000062ec       ??_C@_0P@GFGJGIMA@you?5killed?3?5?$CFs?$AA@ 004542ec     rpg.obj
 0002:000062fc       ??_C@_04BLJLMHHG@chat?$AA@ 004542fc     rpg.obj
 0002:00006304       ??_C@_04FANNOMIB@hand?$AA@ 00454304     rpg.obj
 0002:0000630c       ??_C@_04OKBNGFKI@take?$AA@ 0045430c     rpg.obj
 0002:00006314       ??_C@_0CA@IGNGAADA@?$AM2you?5take?5a?5?$CFs?5?$CIworth?5?$CFd?5gold?$CJ?$AA@ 00454314     rpg.obj
 0002:00006334       ??_C@_03ODFDHHGP@buy?$AA@  00454334     rpg.obj
 0002:00006338       ??_C@_05NLEKLHKC@coins?$AA@ 00454338     rpg.obj
 0002:00006340       ??_C@_0BM@OBEOGPCD@?$AM2you?5bought?5?$CFs?5for?5?$CFd?5gold?$AA@ 00454340     rpg.obj
 0002:0000635c       ??_C@_0BP@MJDEGLLJ@?$AM2you?5cannot?5afford?5this?5item?$CB?$AA@ 0045435c     rpg.obj
 0002:0000637c       ??_C@_0BO@EOIBGOJI@buy?5for?5?$CFd?5gold?5?$CIyou?5have?5?$CFd?$CJ?$AA@ 0045437c     rpg.obj
 0002:0000639c       ??_C@_04DNCIDCD@sell?$AA@  0045439c     rpg.obj
 0002:000063a4       ??_C@_05BLKJBNOD@stats?$AA@ 004543a4     rpg.obj
 0002:000063ac       ??_C@_0CH@EKKAHNHG@?$AM2?$CFs?5cannot?5afford?5to?5buy?5?$CFs?5fro@ 004543ac     rpg.obj
 0002:000063d4       ??_C@_0BK@GKJMCAMD@?$AM2you?5sold?5?$CFs?5for?5?$CFd?5gold?$AA@ 004543d4     rpg.obj
 0002:000063f0       ??_C@_0M@FIIDCFON@?$AM2using?3?5?$CFs?$AA@ 004543f0     rpg.obj
 0002:000063fc       ??_C@_0BP@DAECIMFP@sell?5for?5?$CFd?5gold?5?$CIyou?5have?5?$CFd?$CJ?$AA@ 004543fc     rpg.obj
 0002:0000641c       ??_C@_0CE@MINPEEON@item?5is?5worth?5?$CFd?5gold?5?$CIyou?5have?5@ 0045441c     rpg.obj
 0002:00006440       ??_C@_06BALNJMNP@player?$AA@ 00454440     rpg.obj
 0002:00006448       ??_C@_0BF@DFFBIKIL@?$AM2you?5hand?5over?5a?5?$CFs?$AA@ 00454448     rpg.obj
 0002:00006460       ??_C@_0BD@BHJBGOAL@?$AM2you?5receive?5a?5?$CFs?$AA@ 00454460     rpg.obj
 0002:00006474       ??_C@_09OCPGKIKB@inventory?$AA@ 00454474     rpg.obj
 0002:00006480       ??_C@_0N@DBCJFOHF@free?1splash1?$AA@ 00454480     rpg.obj
 0002:00006490       ??_C@_0N@BKAEANLG@free?1splash2?$AA@ 00454490     rpg.obj
 0002:000064a0       ??_C@_09OOGNDKBP@aard?1jump?$AA@ 004544a0     rpg.obj
 0002:000064ac       ??_C@_09JCLOGGHL@aard?1land?$AA@ 004544ac     rpg.obj
 0002:000064b8       ??_C@_03GBMANNME@rpg?$AA@  004544b8     rpg.obj
 0002:000064bc       ??_C@_09LMFNELG@spawnname?$AA@ 004544bc     rpg.obj
 0002:000064c8       ??_C@_07DNCNJOAJ@r_model?$AA@ 004544c8     rpg.obj
 0002:000064d0       ??_C@_07PMALBIBP@r_spawn?$AA@ 004544d0     rpg.obj
 0002:000064d8       ??_C@_09GBPGNJBK@r_contain?$AA@ 004544d8     rpg.obj
 0002:000064e4       ??_C@_05LFBPPPPL@r_pop?$AA@ 004544e4     rpg.obj
 0002:000064ec       ??_C@_04NEILNFEA@r_ai?$AA@ 004544ec     rpg.obj
 0002:000064f4       ??_C@_05HMPGMGFG@r_say?$AA@ 004544f4     rpg.obj
 0002:000064fc       ??_C@_08BKINOPHP@r_action?$AA@ 004544fc     rpg.obj
 0002:00006508       ??_C@_06DHHMDGOL@r_take?$AA@ 00454508     rpg.obj
 0002:00006510       ??_C@_06MBHGMDHF@r_give?$AA@ 00454510     rpg.obj
 0002:00006518       ??_C@_07JDJKLLPE@r_worth?$AA@ 00454518     rpg.obj
 0002:00006520       ??_C@_06OMLHILEO@r_gold?$AA@ 00454520     rpg.obj
 0002:00006528       ??_C@_06LMNFOLJA@r_stat?$AA@ 00454528     rpg.obj
 0002:00006530       ??_C@_0O@JPOGJCLE@showinventory?$AA@ 00454530     rpg.obj
 0002:00006544       ??_7rpgdummycom@@6B@       00454544     rpg.obj
 0002:00006574       ??_7rpgdummyserver@@6B@    00454574     rpg.obj
 0002:000065cc       ??_7rpgclient@@6Bigameclient@@@ 004545cc     rpg.obj
 0002:0000662c       ??_7rpgclient@@6Bg3d_callback@@@ 0045462c     rpg.obj
 0002:00006638       ??_7rpgentities@rpgclient@@6B@ 00454638     rpg.obj
 0002:00006670       ??_7rpgobj@rpgclient@@6B@  00454670     rpg.obj
 0002:0000667c       ??_7cmd_spawnname@?1???0rpgentities@rpgclient@@QAE@AAU2@@Z@6B@ 0045467c     rpg.obj
 0002:00006688       ??_7?$tident@Urpgentities@rpgclient@@@@6B@ 00454688     rpg.obj
 0002:00006694       ??_7cmd_r_model@?1???0rpgobjset@rpgclient@@QAE@AAU2@@Z@6B@ 00454694     rpg.obj
 0002:000066a0       ??_7?$tident@Urpgobjset@rpgclient@@@@6B@ 004546a0     rpg.obj
 0002:000066ac       ??_7cmd_r_spawn@?2???0rpgobjset@rpgclient@@QAE@AAU2@@Z@6B@ 004546ac     rpg.obj
 0002:000066b8       ??_7cmd_r_contain@?3???0rpgobjset@rpgclient@@QAE@AAU2@@Z@6B@ 004546b8     rpg.obj
 0002:000066c4       ??_7cmd_r_pop@?4???0rpgobjset@rpgclient@@QAE@AAU2@@Z@6B@ 004546c4     rpg.obj
 0002:000066d0       ??_7cmd_r_ai@?5???0rpgobjset@rpgclient@@QAE@AAU2@@Z@6B@ 004546d0     rpg.obj
 0002:000066dc       ??_7cmd_r_say@?6???0rpgobjset@rpgclient@@QAE@AAU2@@Z@6B@ 004546dc     rpg.obj
 0002:000066e8       ??_7cmd_r_action@?7???0rpgobjset@rpgclient@@QAE@AAU2@@Z@6B@ 004546e8     rpg.obj
 0002:000066f4       ??_7cmd_r_take@?8???0rpgobjset@rpgclient@@QAE@AAU2@@Z@6B@ 004546f4     rpg.obj
 0002:00006700       ??_7cmd_r_give@?9???0rpgobjset@rpgclient@@QAE@AAU2@@Z@6B@ 00454700     rpg.obj
 0002:0000670c       ??_7cmd_r_worth@?L@???0rpgobjset@rpgclient@@QAE@AAU2@@Z@6B@ 0045470c     rpg.obj
 0002:00006718       ??_7cmd_r_gold@?M@???0rpgobjset@rpgclient@@QAE@AAU2@@Z@6B@ 00454718     rpg.obj
 0002:00006724       ??_7cmd_r_stat@?N@???0rpgobjset@rpgclient@@QAE@AAU2@@Z@6B@ 00454724     rpg.obj
 0002:00006730       ??_7cmd_map@?1???0rpgclient@@QAE@XZ@6B@ 00454730     rpg.obj
 0002:0000673c       ??_7?$tident@Urpgclient@@@@6B@ 0045473c     rpg.obj
 0002:00006748       ??_7cmd_showinventory@?2???0rpgclient@@QAE@XZ@6B@ 00454748     rpg.obj
 0002:00006754       ??_7rpggame@@6B@           00454754     rpg.obj
 0002:00006760       __real@00000000            00454760      CIL library: CIL module
 0002:00006764       __real@40800000            00454764      CIL library: CIL module
 0002:00006768       __real@4076800000000000    00454768      CIL library: CIL module
 0002:00006770       __real@4066800000000000    00454770      CIL library: CIL module
 0002:00006778       __real@bf800000            00454778      CIL library: CIL module
 0002:00006780       __real@0000000000000000    00454780      CIL library: CIL module
 0002:00006788       __real@42c80000            00454788      CIL library: CIL module
 0002:00006790       __real@4000000000000000    00454790      CIL library: CIL module
 0002:00006798       __real@3ff0000000000000    00454798      CIL library: CIL module
 0002:000067a0       __real@3fe147ae20000000    004547a0      CIL library: CIL module
 0002:000067a8       __real@4022000000000000    004547a8      CIL library: CIL module
 0002:000067b0       __real@4018000000000000    004547b0      CIL library: CIL module
 0002:000067b8       __real@c2b40000            004547b8      CIL library: CIL module
 0002:000067bc       __real@43b40000            004547bc      CIL library: CIL module
 0002:000067c0       __real@42b40000            004547c0      CIL library: CIL module
 0002:000067c8       __real@3fe0000000000000    004547c8      CIL library: CIL module
 0002:000067d0       __real@406fe00000000000    004547d0      CIL library: CIL module
 0002:000067d8       __real@4030000000000000    004547d8      CIL library: CIL module
 0002:000067e0       __real@d01502f9            004547e0      CIL library: CIL module
 0002:000067e4       __real@41c00000            004547e4      CIL library: CIL module
 0002:000067e8       __real@40b0000000000000    004547e8      CIL library: CIL module
 0002:000067f0       __real@402c000000000000    004547f0      CIL library: CIL module
 0002:000067f8       __real@4010000000000000    004547f8      CIL library: CIL module
 0002:00006800       __real@3eb0c6f7a0b5ed8d    00454800      CIL library: CIL module
 0002:00006808       __real@3fc0000000000000    00454808      CIL library: CIL module
 0002:00006810       __real@3fa99999a0000000    00454810      CIL library: CIL module
 0002:00006818       __real@3fe41b2f80000000    00454818      CIL library: CIL module
 0002:00006820       __real@408c200000000000    00454820      CIL library: CIL module
 0002:00006828       __real@3fa47ae140000000    00454828      CIL library: CIL module
 0002:00006830       __real@408f400000000000    00454830      CIL library: CIL module
 0002:00006838       __real@3fe99999a0000000    00454838      CIL library: CIL module
 0002:00006840       __real@3ff19999a0000000    00454840      CIL library: CIL module
 0002:00006848       __real@4037000000000000    00454848      CIL library: CIL module
 0002:00006850       __real@404d800000000000    00454850      CIL library: CIL module
 0002:00006858       __real@4059000000000000    00454858      CIL library: CIL module
 0002:00006860       __real@3f666666            00454860      CIL library: CIL module
 0002:00006864       __real@3e99999a            00454864      CIL library: CIL module
 0002:00006868       __real@3f70000000000000    00454868      CIL library: CIL module
 0002:00006870       __real@4040800000000000    00454870      CIL library: CIL module
 0002:00006878       __real@3fd77ced80000000    00454878      CIL library: CIL module
 0002:00006880       __real@3febbe76c0000000    00454880      CIL library: CIL module
 0002:00006888       __real@4069000000000000    00454888      CIL library: CIL module
 0002:00006890       __real@3f91df46a0000000    00454890      CIL library: CIL module
 0002:00006898       __real@430c6bf520000000    00454898      CIL library: CIL module
 0002:000068a0       __real@5a0e1bca            004548a0      CIL library: CIL module
 0002:000068a8       __real@bfe0000000000000    004548a8      CIL library: CIL module
 0002:000068b0       __real@bfd0000000000000    004548b0      CIL library: CIL module
 0002:000068b8       __real@41600000            004548b8      CIL library: CIL module
 0002:000068bc       __real@43870000            004548bc      CIL library: CIL module
 0002:000068c0       __real@38000100            004548c0      CIL library: CIL module
 0002:000068c4       __real@40000000            004548c4      CIL library: CIL module
 0002:000068c8       __real@be4ccccd            004548c8      CIL library: CIL module
 0002:000068d0       __real@bff0000000000000    004548d0      CIL library: CIL module
 0002:000068d8       __real@40a0000000000000    004548d8      CIL library: CIL module
 0002:000068e0       __real@437f0000            004548e0      CIL library: CIL module
 0002:000068e4       __real@3d23d70a            004548e4      CIL library: CIL module
 0002:000068e8       __real@bdcccccd            004548e8      CIL library: CIL module
 0002:000068f0       __real@4020000000000000    004548f0      CIL library: CIL module
 0002:000068f8       __real@40af400000000000    004548f8      CIL library: CIL module
 0002:00006900       __real@4072c00000000000    00454900      CIL library: CIL module
 0002:00006908       __real@4f800000            00454908      CIL library: CIL module
 0002:00006910       __real@3fc999999999999a    00454910      CIL library: CIL module
 0002:00006918       __real@3fe6666666666666    00454918      CIL library: CIL module
 0002:00006920       __real@3fd3333333333333    00454920      CIL library: CIL module
 0002:00006928       __real@3fd999999999999a    00454928      CIL library: CIL module
 0002:00006930       __real@3a83126f            00454930      CIL library: CIL module
 0002:00006938       __real@4056800000000000    00454938      CIL library: CIL module
 0002:00006940       __real@4050000000000000    00454940      CIL library: CIL module
 0002:00006948       __real@501502f9            00454948      CIL library: CIL module
 0002:00006950       __real@3fc99999a0000000    00454950      CIL library: CIL module
 0002:00006958       __real@3dcccccd            00454958      CIL library: CIL module
 0002:00006960       __real@406ffcccc0000000    00454960      CIL library: CIL module
 0002:00006968       __real@3fd0000000000000    00454968      CIL library: CIL module
 0002:00006970       __real@c008000000000000    00454970      CIL library: CIL module
 0002:00006978       __real@3ff6b851e0000000    00454978      CIL library: CIL module
 0002:00006980       __real@4008000000000000    00454980      CIL library: CIL module
 0002:00006988       __real@c000000000000000    00454988      CIL library: CIL module
 0002:00006990       __real@3c23d70a            00454990      CIL library: CIL module
 0002:00006994       __real@47c34f80            00454994      CIL library: CIL module
 0002:00006998       __real@4034000000000000    00454998      CIL library: CIL module
 0002:000069a0       __real@40c00000            004549a0      CIL library: CIL module
 0002:000069a4       __real@41f00000            004549a4      CIL library: CIL module
 0002:000069a8       __real@41a00000            004549a8      CIL library: CIL module
 0002:000069b0       __real@3fd3333340000000    004549b0      CIL library: CIL module
 0002:000069b8       __real@3f1a36e2e0000000    004549b8      CIL library: CIL module
 0002:000069c0       __real@3fb99999a0000000    004549c0      CIL library: CIL module
 0002:000069c8       __real@3ffbb67ae0000000    004549c8      CIL library: CIL module
 0002:000069d0       __real@3f60000000000000    004549d0      CIL library: CIL module
 0002:000069d8       __real@40dfffc000000000    004549d8      CIL library: CIL module
 0002:000069e0       __real@3f8ccccd            004549e0      CIL library: CIL module
 0002:000069e4       __real@da0e1bca            004549e4      CIL library: CIL module
 0002:000069e8       __real@401921fb60000000    004549e8      CIL library: CIL module
 0002:000069f0       __real@3f90000000000000    004549f0      CIL library: CIL module
 0002:000069f8       __real@43000000            004549f8      CIL library: CIL module
 0002:000069fc       __real@41000000            004549fc      CIL library: CIL module
 0002:00006a00       __real@42000000            00454a00      CIL library: CIL module
 0002:00006a08       __real@4039000000000000    00454a08      CIL library: CIL module
 0002:00006a10       __real@3f4ccccd            00454a10      CIL library: CIL module
 0002:00006a18       __real@4014000000000000    00454a18      CIL library: CIL module
 0002:00006a20       __real@3f50000000000000    00454a20      CIL library: CIL module
 0002:00006a28       __real@3eb33333            00454a28      CIL library: CIL module
 0002:00006a30       __real@3fefae1480000000    00454a30      CIL library: CIL module
 0002:00006a38       __real@3fdf5c2900000000    00454a38      CIL library: CIL module
 0002:00006a40       __real@3cf5c28f            00454a40      CIL library: CIL module
 0002:00006a48       __real@c066800000000000    00454a48      CIL library: CIL module
 0002:00006a50       __real@40b3880000000000    00454a50      CIL library: CIL module
 0002:00006a58       __real@44000000            00454a58      CIL library: CIL module
 0002:00006a5c       __real@42800000            00454a5c      CIL library: CIL module
 0002:00006a60       __real@c3800000            00454a60      CIL library: CIL module
 0002:00006a68       __real@4080000000000000    00454a68      CIL library: CIL module
 0002:00006a70       __real@42480000            00454a70      CIL library: CIL module
 0002:00006a78       __real@4054000000000000    00454a78      CIL library: CIL module
 0002:00006a80       __real@c1000000            00454a80      CIL library: CIL module
 0002:00006a88       __real@409c200000000000    00454a88      CIL library: CIL module
 0002:00006a90       __real@3fc5555560000000    00454a90      CIL library: CIL module
 0002:00006a98       __real@3f80000000000000    00454a98      CIL library: CIL module
 0002:00006aa0       __real@4078000000000000    00454aa0      CIL library: CIL module
 0002:00006aa8       __real@4046800000000000    00454aa8      CIL library: CIL module
 0002:00006ab0       __real@3fee666660000000    00454ab0      CIL library: CIL module
 0002:00006ab8       __real@4090000000000000    00454ab8      CIL library: CIL module
 0002:00006ac0       __real@44800000            00454ac0      CIL library: CIL module
 0002:00006ac8       __real@4044000000000000    00454ac8      CIL library: CIL module
 0002:00006ad0       __real@3ff8000000000000    00454ad0      CIL library: CIL module
 0002:00006ad8       __real@42200000            00454ad8      CIL library: CIL module
 0002:00006adc       __real@3e19999a            00454adc      CIL library: CIL module
 0002:00006ae0       __real@3fe8000000000000    00454ae0      CIL library: CIL module
 0002:00006ae8       __real@42340000            00454ae8      CIL library: CIL module
 0002:00006aec       __real@3ca3d70a            00454aec      CIL library: CIL module
 0002:00006af0       __real@43400000            00454af0      CIL library: CIL module
 0002:00006af4       __real@43800000            00454af4      CIL library: CIL module
 0002:00006af8       __real@3fb0000000000000    00454af8      CIL library: CIL module
 0002:00006b00       __real@c0400000            00454b00      CIL library: CIL module
 0002:00006b04       __real@3e800000            00454b04      CIL library: CIL module
 0002:00006b08       __real@3f19999a            00454b08      CIL library: CIL module
 0002:00006b0c       __real@3f333333            00454b0c      CIL library: CIL module
 0002:00006b10       __real@404e000000000000    00454b10      CIL library: CIL module
 0002:00006b18       __real@3f400000            00454b18      CIL library: CIL module
 0002:00006b20       __real@40a7700000000000    00454b20      CIL library: CIL module
 0002:00006b28       __real@60ad78ec            00454b28      CIL library: CIL module
 0002:00006b2c       __real@3fc00000            00454b2c      CIL library: CIL module
 0002:00006b30       __real@3ecccccd            00454b30      CIL library: CIL module
 0002:00006b34       __real@41200000            00454b34      CIL library: CIL module
 0002:00006b38       __real@4049000000000000    00454b38      CIL library: CIL module
 0002:00006b40       __real@4024000000000000    00454b40      CIL library: CIL module
 0002:00006b48       __real@3ff921fb60000000    00454b48      CIL library: CIL module
 0002:00006b50       __real@40a00000            00454b50      CIL library: CIL module
 0002:00006b58       __real@407f400000000000    00454b58      CIL library: CIL module
 0002:00006b60       __real@40b57c0000000000    00454b60      CIL library: CIL module
 0002:00006b68       __real@c08f400000000000    00454b68      CIL library: CIL module
 0002:00006b70       __real@4202a05f20000000    00454b70      CIL library: CIL module
 0002:00006b78       __real@4040000000000000    00454b78      CIL library: CIL module
 0002:00006b80       __real@401c000000000000    00454b80      CIL library: CIL module
 0002:00006b88       __real@c06fe00000000000    00454b88      CIL library: CIL module
 0002:00006b90       __real@416b4b4b            00454b90      CIL library: CIL module
 0002:00006b98       __real@4031000000000000    00454b98      CIL library: CIL module
 0002:00006ba0       __real@41400000            00454ba0      CIL library: CIL module
 0002:00006ba4       __real@42a00000            00454ba4      CIL library: CIL module
 0002:00006ba8       __real@c004000000000000    00454ba8      CIL library: CIL module
 0002:00006bb0       __real@4010ccccc6800000    00454bb0      CIL library: CIL module
 0002:00006bb8       __real@c089000000000000    00454bb8      CIL library: CIL module
 0002:00006bc0       __real@3fb1df46a0000000    00454bc0      CIL library: CIL module
 0002:00006bc8       __real@40400000            00454bc8      CIL library: CIL module
 0002:00006bcc       __real@43340000            00454bcc      CIL library: CIL module
 0002:00006bd0       __real@bf8ccccd            00454bd0      CIL library: CIL module
 0002:00006bd8       __real@4010666660000000    00454bd8      CIL library: CIL module
 0002:00006be0       __real@4029000000000000    00454be0      CIL library: CIL module
 0002:00006be8       __real@40e00000            00454be8      CIL library: CIL module
 0002:00006bf0       __real@403e000000000000    00454bf0      CIL library: CIL module
 0002:00006bf8       __real@38d1b717            00454bf8      CIL library: CIL module
 0002:00006bfc       __real@42c00000            00454bfc      CIL library: CIL module
 0002:00006c00       __real@461c4000            00454c00      CIL library: CIL module
 0002:00006c04       __real@43070000            00454c04      CIL library: CIL module
 0002:00006c08       __real@400921fb60000000    00454c08      CIL library: CIL module
 0002:00006c10       __real@41800000            00454c10      CIL library: CIL module
 0002:00006c18       __real@4026000000000000    00454c18      CIL library: CIL module
 0002:00006c64       ??_R4type_info@@6B@        00454c64     msvcrt:ti_inst.obj
 0002:00006c78       ??_R3type_info@@8          00454c78     msvcrt:ti_inst.obj
 0002:00006c88       ??_R2type_info@@8          00454c88     msvcrt:ti_inst.obj
 0002:00006c90       ??_R1A@?0A@EA@type_info@@8 00454c90     msvcrt:ti_inst.obj
 0002:00006cac       ??_R4cmd_havesel@@6B@      00454cac     octaedit.obj
 0002:00006cc0       ??_R3cmd_havesel@@8        00454cc0     octaedit.obj
 0002:00006cd0       ??_R2cmd_havesel@@8        00454cd0     octaedit.obj
 0002:00006cdc       ??_R1A@?0A@EA@cmd_havesel@@8 00454cdc     octaedit.obj
 0002:00006cf8       ??_R4?$tident@X@@6B@       00454cf8     octaedit.obj
 0002:00006d0c       ??_R3?$tident@X@@8         00454d0c     octaedit.obj
 0002:00006d1c       ??_R2?$tident@X@@8         00454d1c     octaedit.obj
 0002:00006d24       ??_R1A@?0A@EA@?$tident@X@@8 00454d24     octaedit.obj
 0002:00006d40       ??_R4cmd_attack@@6B@       00454d40     physics.obj
 0002:00006d54       ??_R3cmd_attack@@8         00454d54     physics.obj
 0002:00006d64       ??_R2cmd_attack@@8         00454d64     physics.obj
 0002:00006d70       ??_R1A@?0A@EA@cmd_attack@@8 00454d70     physics.obj
 0002:00006d8c       ??_R4cmd_jump@@6B@         00454d8c     physics.obj
 0002:00006da0       ??_R3cmd_jump@@8           00454da0     physics.obj
 0002:00006db0       ??_R2cmd_jump@@8           00454db0     physics.obj
 0002:00006dbc       ??_R1A@?0A@EA@cmd_jump@@8  00454dbc     physics.obj
 0002:00006dd8       ??_R4cmd_right@@6B@        00454dd8     physics.obj
 0002:00006dec       ??_R3cmd_right@@8          00454dec     physics.obj
 0002:00006dfc       ??_R2cmd_right@@8          00454dfc     physics.obj
 0002:00006e08       ??_R1A@?0A@EA@cmd_right@@8 00454e08     physics.obj
 0002:00006e24       ??_R4cmd_left@@6B@         00454e24     physics.obj
 0002:00006e38       ??_R3cmd_left@@8           00454e38     physics.obj
 0002:00006e48       ??_R2cmd_left@@8           00454e48     physics.obj
 0002:00006e54       ??_R1A@?0A@EA@cmd_left@@8  00454e54     physics.obj
 0002:00006e70       ??_R4cmd_forward@@6B@      00454e70     physics.obj
 0002:00006e84       ??_R3cmd_forward@@8        00454e84     physics.obj
 0002:00006e94       ??_R2cmd_forward@@8        00454e94     physics.obj
 0002:00006ea0       ??_R1A@?0A@EA@cmd_forward@@8 00454ea0     physics.obj
 0002:00006ebc       ??_R4cmd_backward@@6B@     00454ebc     physics.obj
 0002:00006ed0       ??_R3cmd_backward@@8       00454ed0     physics.obj
 0002:00006ee0       ??_R2cmd_backward@@8       00454ee0     physics.obj
 0002:00006eec       ??_R1A@?0A@EA@cmd_backward@@8 00454eec     physics.obj
 0002:00006f08       ??_R4cmd_entget@@6B@       00454f08     world.obj
 0002:00006f1c       ??_R3cmd_entget@@8         00454f1c     world.obj
 0002:00006f2c       ??_R2cmd_entget@@8         00454f2c     world.obj
 0002:00006f38       ??_R1A@?0A@EA@cmd_entget@@8 00454f38     world.obj
 0002:00006f54       ??_R4cmd_insel@@6B@        00454f54     world.obj
 0002:00006f68       ??_R3cmd_insel@@8          00454f68     world.obj
 0002:00006f78       ??_R2cmd_insel@@8          00454f78     world.obj
 0002:00006f84       ??_R1A@?0A@EA@cmd_insel@@8 00454f84     world.obj
 0002:00006fa0       ??_R4cmd_entloop@@6B@      00454fa0     world.obj
 0002:00006fb4       ??_R3cmd_entloop@@8        00454fb4     world.obj
 0002:00006fc4       ??_R2cmd_entloop@@8        00454fc4     world.obj
 0002:00006fd0       ??_R1A@?0A@EA@cmd_entloop@@8 00454fd0     world.obj
 0002:00006fec       ??_R4cmd_entselect@@6B@    00454fec     world.obj
 0002:00007000       ??_R3cmd_entselect@@8      00455000     world.obj
 0002:00007010       ??_R2cmd_entselect@@8      00455010     world.obj
 0002:0000701c       ??_R1A@?0A@EA@cmd_entselect@@8 0045501c     world.obj
 0002:00007038       ??_R4cmd_enthavesel@@6B@   00455038     world.obj
 0002:0000704c       ??_R3cmd_enthavesel@@8     0045504c     world.obj
 0002:0000705c       ??_R2cmd_enthavesel@@8     0045505c     world.obj
 0002:00007068       ??_R1A@?0A@EA@cmd_enthavesel@@8 00455068     world.obj
 0002:00007084       ??_R4gui@@6B@              00455084     3dgui.obj
 0002:00007098       ??_R3gui@@8                00455098     3dgui.obj
 0002:000070a8       ??_R2gui@@8                004550a8     3dgui.obj
 0002:000070b4       ??_R1A@?0A@EA@gui@@8       004550b4     3dgui.obj
 0002:000070d0       ??_R4g3d_gui@@6B@          004550d0     3dgui.obj
 0002:000070e4       ??_R3g3d_gui@@8            004550e4     3dgui.obj
 0002:000070f4       ??_R2g3d_gui@@8            004550f4     3dgui.obj
 0002:000070fc       ??_R1A@?0A@EA@g3d_gui@@8   004550fc     3dgui.obj
 0002:00007118       ??_R4md3part@md3@@6B@      00455118     rendermodel.obj
 0002:0000712c       ??_R3md3part@md3@@8        0045512c     rendermodel.obj
 0002:0000713c       ??_R2md3part@md3@@8        0045513c     rendermodel.obj
 0002:00007148       ??_R1A@?0A@EA@md3part@md3@@8 00455148     rendermodel.obj
 0002:00007164       ??_R4md3@@6B@              00455164     rendermodel.obj
 0002:00007178       ??_R3md3@@8                00455178     rendermodel.obj
 0002:00007188       ??_R2md3@@8                00455188     rendermodel.obj
 0002:00007198       ??_R1A@?0A@EA@md3@@8       00455198     rendermodel.obj
 0002:000071b4       ??_R4md2part@md2@@6B@      004551b4     rendermodel.obj
 0002:000071c8       ??_R3md2part@md2@@8        004551c8     rendermodel.obj
 0002:000071d8       ??_R2md2part@md2@@8        004551d8     rendermodel.obj
 0002:000071e4       ??_R1A@?0A@EA@md2part@md2@@8 004551e4     rendermodel.obj
 0002:00007200       ??_R4md2@@6B@              00455200     rendermodel.obj
 0002:00007214       ??_R3md2@@8                00455214     rendermodel.obj
 0002:00007224       ??_R2md2@@8                00455224     rendermodel.obj
 0002:00007234       ??_R1A@?0A@EA@md2@@8       00455234     rendermodel.obj
 0002:00007250       ??_R4part@vertmodel@@6B@   00455250     rendermodel.obj
 0002:00007264       ??_R3part@vertmodel@@8     00455264     rendermodel.obj
 0002:00007274       ??_R2part@vertmodel@@8     00455274     rendermodel.obj
 0002:0000727c       ??_R1A@?0A@EA@part@vertmodel@@8 0045527c     rendermodel.obj
 0002:00007298       ??_R4vertmodel@@6B@        00455298     rendermodel.obj
 0002:000072ac       ??_R3vertmodel@@8          004552ac     rendermodel.obj
 0002:000072bc       ??_R2vertmodel@@8          004552bc     rendermodel.obj
 0002:000072c8       ??_R1A@?0A@EA@vertmodel@@8 004552c8     rendermodel.obj
 0002:000072e4       ??_R4model@@6B@            004552e4     rendermodel.obj
 0002:000072f8       ??_R3model@@8              004552f8     rendermodel.obj
 0002:00007308       ??_R2model@@8              00455308     rendermodel.obj
 0002:00007310       ??_R1A@?0A@EA@model@@8     00455310     rendermodel.obj
 0002:0000732c       ??_R4SphereLeaf@@6B@       0045532c     spheretree.obj
 0002:00007340       ??_R3SphereLeaf@@8         00455340     spheretree.obj
 0002:00007350       ??_R2SphereLeaf@@8         00455350     spheretree.obj
 0002:0000735c       ??_R1A@?0A@EA@SphereLeaf@@8 0045535c     spheretree.obj
 0002:00007378       ??_R4SphereBranch@@6B@     00455378     spheretree.obj
 0002:0000738c       ??_R3SphereBranch@@8       0045538c     spheretree.obj
 0002:0000739c       ??_R2SphereBranch@@8       0045539c     spheretree.obj
 0002:000073a8       ??_R1A@?0A@EA@SphereBranch@@8 004553a8     spheretree.obj
 0002:000073c4       ??_R4SphereTree@@6B@       004553c4     spheretree.obj
 0002:000073d8       ??_R3SphereTree@@8         004553d8     spheretree.obj
 0002:000073e8       ??_R2SphereTree@@8         004553e8     spheretree.obj
 0002:000073f0       ??_R1A@?0A@EA@SphereTree@@8 004553f0     spheretree.obj
 0002:0000740c       ??_R4cmd_echo@@6B@         0045540c     command.obj
 0002:00007420       ??_R3cmd_echo@@8           00455420     command.obj
 0002:00007430       ??_R2cmd_echo@@8           00455430     command.obj
 0002:0000743c       ??_R1A@?0A@EA@cmd_echo@@8  0045543c     command.obj
 0002:00007458       ??_R4cmd_while@@6B@        00455458     command.obj
 0002:0000746c       ??_R3cmd_while@@8          0045546c     command.obj
 0002:0000747c       ??_R2cmd_while@@8          0045547c     command.obj
 0002:00007488       ??_R1A@?0A@EA@cmd_while@@8 00455488     command.obj
 0002:000074a4       ??_R4cmd_loop@@6B@         004554a4     command.obj
 0002:000074b8       ??_R3cmd_loop@@8           004554b8     command.obj
 0002:000074c8       ??_R2cmd_loop@@8           004554c8     command.obj
 0002:000074d4       ??_R1A@?0A@EA@cmd_loop@@8  004554d4     command.obj
 0002:000074f0       ??_R4cmd_if@@6B@           004554f0     command.obj
 0002:00007504       ??_R3cmd_if@@8             00455504     command.obj
 0002:00007514       ??_R2cmd_if@@8             00455514     command.obj
 0002:00007520       ??_R1A@?0A@EA@cmd_if@@8    00455520     command.obj
 0002:0000753c       ??_R4mainmenucallback@@6B@ 0045553c     menus.obj
 0002:00007550       ??_R3mainmenucallback@@8   00455550     menus.obj
 0002:00007560       ??_R2mainmenucallback@@8   00455560     menus.obj
 0002:0000756c       ??_R1A@?0A@EA@mainmenucallback@@8 0045556c     menus.obj
 0002:00007588       ??_R4g3d_callback@@6B@     00455588     menus.obj
 0002:0000759c       ??_R3g3d_callback@@8       0045559c     menus.obj
 0002:000075ac       ??_R2g3d_callback@@8       004555ac     menus.obj
 0002:000075b4       ??_R1A@?0A@EA@g3d_callback@@8 004555b4     menus.obj
 0002:000075d0       ??_R4fpsgame@@6B@          004555d0     fps.obj
 0002:000075e4       ??_R3fpsgame@@8            004555e4     fps.obj
 0002:000075f4       ??_R2fpsgame@@8            004555f4     fps.obj
 0002:00007600       ??_R1A@?0A@EA@fpsgame@@8   00455600     fps.obj
 0002:0000761c       ??_R4cmd_kill@?2???0fpsclient@@QAE@XZ@6B@ 0045561c     fps.obj
 0002:00007630       ??_R3cmd_kill@?2???0fpsclient@@QAE@XZ@8 00455630     fps.obj
 0002:00007640       ??_R2cmd_kill@?2???0fpsclient@@QAE@XZ@8 00455640     fps.obj
 0002:0000764c       ??_R1A@?0A@EA@cmd_kill@?2???0fpsclient@@QAE@XZ@8 0045564c     fps.obj
 0002:00007668       ??_R4?$tident@Ufpsclient@@@@6B@ 00455668     fps.obj
 0002:0000767c       ??_R4cmd_mode@?1???0fpsclient@@QAE@XZ@6B@ 0045567c     fps.obj
 0002:00007690       ??_R3cmd_mode@?1???0fpsclient@@QAE@XZ@8 00455690     fps.obj
 0002:000076a0       ??_R2cmd_mode@?1???0fpsclient@@QAE@XZ@8 004556a0     fps.obj
 0002:000076ac       ??_R1A@?0A@EA@?$tident@Ufpsclient@@@@8 004556ac     fps.obj
 0002:000076c8       ??_R3?$tident@Ufpsclient@@@@8 004556c8     fps.obj
 0002:000076d8       ??_R2?$tident@Ufpsclient@@@@8 004556d8     fps.obj
 0002:000076e0       ??_R1A@?0A@EA@cmd_mode@?1???0fpsclient@@QAE@XZ@8 004556e0     fps.obj
 0002:000076fc       ??_R4?$tident@Ucaptureclient@fpsclient@@@@6B@ 004556fc     fps.obj
 0002:00007710       ??_R4cmd_repammo@?1???0captureclient@fpsclient@@QAE@AAU2@@Z@6B@ 00455710     fps.obj
 0002:00007724       ??_R3cmd_repammo@?1???0captureclient@fpsclient@@QAE@AAU2@@Z@8 00455724     fps.obj
 0002:00007734       ??_R2cmd_repammo@?1???0captureclient@fpsclient@@QAE@AAU2@@Z@8 00455734     fps.obj
 0002:00007740       ??_R1A@?0A@EA@?$tident@Ucaptureclient@fpsclient@@@@8 00455740     fps.obj
 0002:0000775c       ??_R3?$tident@Ucaptureclient@fpsclient@@@@8 0045575c     fps.obj
 0002:0000776c       ??_R2?$tident@Ucaptureclient@fpsclient@@@@8 0045576c     fps.obj
 0002:00007774       ??_R1A@?0A@EA@cmd_repammo@?1???0captureclient@fpsclient@@QAE@AAU2@@Z@8 00455774     fps.obj
 0002:00007790       ??_R4cmd_sendmap@?M@???0clientcom@fpsclient@@QAE@AAU2@@Z@6B@ 00455790     fps.obj
 0002:000077a4       ??_R3cmd_sendmap@?M@???0clientcom@fpsclient@@QAE@AAU2@@Z@8 004557a4     fps.obj
 0002:000077b4       ??_R2cmd_sendmap@?M@???0clientcom@fpsclient@@QAE@AAU2@@Z@8 004557b4     fps.obj
 0002:000077c0       ??_R1A@?0A@EA@cmd_sendmap@?M@???0clientcom@fpsclient@@QAE@AAU2@@Z@8 004557c0     fps.obj
 0002:000077dc       ??_R4cmd_getmap@?L@???0clientcom@fpsclient@@QAE@AAU2@@Z@6B@ 004557dc     fps.obj
 0002:000077f0       ??_R3cmd_getmap@?L@???0clientcom@fpsclient@@QAE@AAU2@@Z@8 004557f0     fps.obj
 0002:00007800       ??_R2cmd_getmap@?L@???0clientcom@fpsclient@@QAE@AAU2@@Z@8 00455800     fps.obj
 0002:0000780c       ??_R1A@?0A@EA@cmd_getmap@?L@???0clientcom@fpsclient@@QAE@AAU2@@Z@8 0045580c     fps.obj
 0002:00007828       ??_R4cmd_setteam@?9???0clientcom@fpsclient@@QAE@AAU2@@Z@6B@ 00455828     fps.obj
 0002:0000783c       ??_R3cmd_setteam@?9???0clientcom@fpsclient@@QAE@AAU2@@Z@8 0045583c     fps.obj
 0002:0000784c       ??_R2cmd_setteam@?9???0clientcom@fpsclient@@QAE@AAU2@@Z@8 0045584c     fps.obj
 0002:00007858       ??_R1A@?0A@EA@cmd_setteam@?9???0clientcom@fpsclient@@QAE@AAU2@@Z@8 00455858     fps.obj
 0002:00007874       ??_R4cmd_setmaster@?8???0clientcom@fpsclient@@QAE@AAU2@@Z@6B@ 00455874     fps.obj
 0002:00007888       ??_R3cmd_setmaster@?8???0clientcom@fpsclient@@QAE@AAU2@@Z@8 00455888     fps.obj
 0002:00007898       ??_R2cmd_setmaster@?8???0clientcom@fpsclient@@QAE@AAU2@@Z@8 00455898     fps.obj
 0002:000078a4       ??_R1A@?0A@EA@cmd_setmaster@?8???0clientcom@fpsclient@@QAE@AAU2@@Z@8 004558a4     fps.obj
 0002:000078c0       ??_R4cmd_mastermode@?7???0clientcom@fpsclient@@QAE@AAU2@@Z@6B@ 004558c0     fps.obj
 0002:000078d4       ??_R3cmd_mastermode@?7???0clientcom@fpsclient@@QAE@AAU2@@Z@8 004558d4     fps.obj
 0002:000078e4       ??_R2cmd_mastermode@?7???0clientcom@fpsclient@@QAE@AAU2@@Z@8 004558e4     fps.obj
 0002:000078f0       ??_R1A@?0A@EA@cmd_mastermode@?7???0clientcom@fpsclient@@QAE@AAU2@@Z@8 004558f0     fps.obj
 0002:0000790c       ??_R4cmd_spectator@?6???0clientcom@fpsclient@@QAE@AAU2@@Z@6B@ 0045590c     fps.obj
 0002:00007920       ??_R3cmd_spectator@?6???0clientcom@fpsclient@@QAE@AAU2@@Z@8 00455920     fps.obj
 0002:00007930       ??_R2cmd_spectator@?6???0clientcom@fpsclient@@QAE@AAU2@@Z@8 00455930     fps.obj
 0002:0000793c       ??_R1A@?0A@EA@cmd_spectator@?6???0clientcom@fpsclient@@QAE@AAU2@@Z@8 0045593c     fps.obj
 0002:00007958       ??_R4cmd_kick@?5???0clientcom@fpsclient@@QAE@AAU2@@Z@6B@ 00455958     fps.obj
 0002:0000796c       ??_R3cmd_kick@?5???0clientcom@fpsclient@@QAE@AAU2@@Z@8 0045596c     fps.obj
 0002:0000797c       ??_R2cmd_kick@?5???0clientcom@fpsclient@@QAE@AAU2@@Z@8 0045597c     fps.obj
 0002:00007988       ??_R1A@?0A@EA@cmd_kick@?5???0clientcom@fpsclient@@QAE@AAU2@@Z@8 00455988     fps.obj
 0002:000079a4       ??_R4cmd_map@?4???0clientcom@fpsclient@@QAE@AAU2@@Z@6B@ 004559a4     fps.obj
 0002:000079b8       ??_R3cmd_map@?4???0clientcom@fpsclient@@QAE@AAU2@@Z@8 004559b8     fps.obj
 0002:000079c8       ??_R2cmd_map@?4???0clientcom@fpsclient@@QAE@AAU2@@Z@8 004559c8     fps.obj
 0002:000079d4       ??_R1A@?0A@EA@cmd_map@?4???0clientcom@fpsclient@@QAE@AAU2@@Z@8 004559d4     fps.obj
 0002:000079f0       ??_R4cmd_team@?3???0clientcom@fpsclient@@QAE@AAU2@@Z@6B@ 004559f0     fps.obj
 0002:00007a04       ??_R3cmd_team@?3???0clientcom@fpsclient@@QAE@AAU2@@Z@8 00455a04     fps.obj
 0002:00007a14       ??_R2cmd_team@?3???0clientcom@fpsclient@@QAE@AAU2@@Z@8 00455a14     fps.obj
 0002:00007a20       ??_R1A@?0A@EA@cmd_team@?3???0clientcom@fpsclient@@QAE@AAU2@@Z@8 00455a20     fps.obj
 0002:00007a3c       ??_R4cmd_name@?2???0clientcom@fpsclient@@QAE@AAU2@@Z@6B@ 00455a3c     fps.obj
 0002:00007a50       ??_R3cmd_name@?2???0clientcom@fpsclient@@QAE@AAU2@@Z@8 00455a50     fps.obj
 0002:00007a60       ??_R2cmd_name@?2???0clientcom@fpsclient@@QAE@AAU2@@Z@8 00455a60     fps.obj
 0002:00007a6c       ??_R1A@?0A@EA@cmd_name@?2???0clientcom@fpsclient@@QAE@AAU2@@Z@8 00455a6c     fps.obj
 0002:00007a88       ??_R4?$tident@Uclientcom@fpsclient@@@@6B@ 00455a88     fps.obj
 0002:00007a9c       ??_R4cmd_say@?1???0clientcom@fpsclient@@QAE@AAU2@@Z@6B@ 00455a9c     fps.obj
 0002:00007ab0       ??_R3cmd_say@?1???0clientcom@fpsclient@@QAE@AAU2@@Z@8 00455ab0     fps.obj
 0002:00007ac0       ??_R2cmd_say@?1???0clientcom@fpsclient@@QAE@AAU2@@Z@8 00455ac0     fps.obj
 0002:00007acc       ??_R1A@?0A@EA@?$tident@Uclientcom@fpsclient@@@@8 00455acc     fps.obj
 0002:00007ae8       ??_R3?$tident@Uclientcom@fpsclient@@@@8 00455ae8     fps.obj
 0002:00007af8       ??_R2?$tident@Uclientcom@fpsclient@@@@8 00455af8     fps.obj
 0002:00007b00       ??_R1A@?0A@EA@cmd_say@?1???0clientcom@fpsclient@@QAE@AAU2@@Z@8 00455b00     fps.obj
 0002:00007b1c       ??_R4?$tident@Uscoreboard@fpsclient@@@@6B@ 00455b1c     fps.obj
 0002:00007b30       ??_R4cmd_showscores@?1???0scoreboard@fpsclient@@QAE@AAU2@@Z@6B@ 00455b30     fps.obj
 0002:00007b44       ??_R3cmd_showscores@?1???0scoreboard@fpsclient@@QAE@AAU2@@Z@8 00455b44     fps.obj
 0002:00007b54       ??_R2cmd_showscores@?1???0scoreboard@fpsclient@@QAE@AAU2@@Z@8 00455b54     fps.obj
 0002:00007b60       ??_R1A@?0A@EA@?$tident@Uscoreboard@fpsclient@@@@8 00455b60     fps.obj
 0002:00007b7c       ??_R3?$tident@Uscoreboard@fpsclient@@@@8 00455b7c     fps.obj
 0002:00007b8c       ??_R2?$tident@Uscoreboard@fpsclient@@@@8 00455b8c     fps.obj
 0002:00007b94       ??_R1A@?0A@EA@cmd_showscores@?1???0scoreboard@fpsclient@@QAE@AAU2@@Z@8 00455b94     fps.obj
 0002:00007bb0       ??_R4?$tident@Uweaponstate@fpsclient@@@@6B@ 00455bb0     fps.obj
 0002:00007bc4       ??_R4cmd_weapon@?1???0weaponstate@fpsclient@@QAE@AAU2@@Z@6B@ 00455bc4     fps.obj
 0002:00007bd8       ??_R3cmd_weapon@?1???0weaponstate@fpsclient@@QAE@AAU2@@Z@8 00455bd8     fps.obj
 0002:00007be8       ??_R2cmd_weapon@?1???0weaponstate@fpsclient@@QAE@AAU2@@Z@8 00455be8     fps.obj
 0002:00007bf4       ??_R1A@?0A@EA@?$tident@Uweaponstate@fpsclient@@@@8 00455bf4     fps.obj
 0002:00007c10       ??_R3?$tident@Uweaponstate@fpsclient@@@@8 00455c10     fps.obj
 0002:00007c20       ??_R2?$tident@Uweaponstate@fpsclient@@@@8 00455c20     fps.obj
 0002:00007c28       ??_R1A@?0A@EA@cmd_weapon@?1???0weaponstate@fpsclient@@QAE@AAU2@@Z@8 00455c28     fps.obj
 0002:00007c44       ??_R4var_hudgun@fpsclient@@6B@ 00455c44     fps.obj
 0002:00007c58       ??_R3var_hudgun@fpsclient@@8 00455c58     fps.obj
 0002:00007c68       ??_R2var_hudgun@fpsclient@@8 00455c68     fps.obj
 0002:00007c74       ??_R1A@?0A@EA@var_hudgun@fpsclient@@8 00455c74     fps.obj
 0002:00007c90       ??_R4clientcom@fpsclient@@6B@ 00455c90     fps.obj
 0002:00007ca4       ??_R3clientcom@fpsclient@@8 00455ca4     fps.obj
 0002:00007cb4       ??_R2clientcom@fpsclient@@8 00455cb4     fps.obj
 0002:00007cc0       ??_R1A@?0A@EA@clientcom@fpsclient@@8 00455cc0     fps.obj
 0002:00007cdc       ??_R4entities@fpsclient@@6B@ 00455cdc     fps.obj
 0002:00007cf0       ??_R3entities@fpsclient@@8 00455cf0     fps.obj
 0002:00007d00       ??_R2entities@fpsclient@@8 00455d00     fps.obj
 0002:00007d0c       ??_R1A@?0A@EA@entities@fpsclient@@8 00455d0c     fps.obj
 0002:00007d28       ??_R4scoreboard@fpsclient@@6B@ 00455d28     fps.obj
 0002:00007d3c       ??_R3scoreboard@fpsclient@@8 00455d3c     fps.obj
 0002:00007d4c       ??_R2scoreboard@fpsclient@@8 00455d4c     fps.obj
 0002:00007d58       ??_R1A@?0A@EA@scoreboard@fpsclient@@8 00455d58     fps.obj
 0002:00007d74       ??_R4var_skill@monsterset@fpsclient@@6B@ 00455d74     fps.obj
 0002:00007d88       ??_R3var_skill@monsterset@fpsclient@@8 00455d88     fps.obj
 0002:00007d98       ??_R2var_skill@monsterset@fpsclient@@8 00455d98     fps.obj
 0002:00007da4       ??_R1A@?0A@EA@var_skill@monsterset@fpsclient@@8 00455da4     fps.obj
 0002:00007dc0       ??_R4var_maxdebris@weaponstate@fpsclient@@6B@ 00455dc0     fps.obj
 0002:00007dd4       ??_R3var_maxdebris@weaponstate@fpsclient@@8 00455dd4     fps.obj
 0002:00007de4       ??_R2var_maxdebris@weaponstate@fpsclient@@8 00455de4     fps.obj
 0002:00007df0       ??_R1A@?0A@EA@var_maxdebris@weaponstate@fpsclient@@8 00455df0     fps.obj
 0002:00007e0c       ??_R4fpsclient@@6B@        00455e0c     fps.obj
 0002:00007e20       ??_R3fpsclient@@8          00455e20     fps.obj
 0002:00007e30       ??_R2fpsclient@@8          00455e30     fps.obj
 0002:00007e3c       ??_R1A@?0A@EA@fpsclient@@8 00455e3c     fps.obj
 0002:00007e58       ??_R4fpsserver@@6B@        00455e58     fps.obj
 0002:00007e6c       ??_R3fpsserver@@8          00455e6c     fps.obj
 0002:00007e7c       ??_R2fpsserver@@8          00455e7c     fps.obj
 0002:00007e88       ??_R1A@?0A@EA@fpsserver@@8 00455e88     fps.obj
 0002:00007ea4       ??_R4igameserver@@6B@      00455ea4     fps.obj
 0002:00007eb8       ??_R3igameserver@@8        00455eb8     fps.obj
 0002:00007ec8       ??_R2igameserver@@8        00455ec8     fps.obj
 0002:00007ed0       ??_R1A@?0A@EA@igameserver@@8 00455ed0     fps.obj
 0002:00007eec       ??_R4igameclient@@6B@      00455eec     fps.obj
 0002:00007f00       ??_R3igameclient@@8        00455f00     fps.obj
 0002:00007f10       ??_R2igameclient@@8        00455f10     fps.obj
 0002:00007f18       ??_R1A@?0A@EA@igameclient@@8 00455f18     fps.obj
 0002:00007f34       ??_R4iclientcom@@6B@       00455f34     fps.obj
 0002:00007f48       ??_R3iclientcom@@8         00455f48     fps.obj
 0002:00007f58       ??_R2iclientcom@@8         00455f58     fps.obj
 0002:00007f60       ??_R1A@?0A@EA@iclientcom@@8 00455f60     fps.obj
 0002:00007f7c       ??_R4icliententities@@6B@  00455f7c     fps.obj
 0002:00007f90       ??_R3icliententities@@8    00455f90     fps.obj
 0002:00007fa0       ??_R2icliententities@@8    00455fa0     fps.obj
 0002:00007fa8       ??_R1A@?0A@EA@icliententities@@8 00455fa8     fps.obj
 0002:00007fc4       ??_R4igame@@6B@            00455fc4     fps.obj
 0002:00007fd8       ??_R3igame@@8              00455fd8     fps.obj
 0002:00007fe8       ??_R2igame@@8              00455fe8     fps.obj
 0002:00007ff0       ??_R1A@?0A@EA@igame@@8     00455ff0     fps.obj
 0002:0000800c       ??_R4rpggame@@6B@          0045600c     rpg.obj
 0002:00008020       ??_R3rpggame@@8            00456020     rpg.obj
 0002:00008030       ??_R2rpggame@@8            00456030     rpg.obj
 0002:0000803c       ??_R1A@?0A@EA@rpggame@@8   0045603c     rpg.obj
 0002:00008058       ??_R4cmd_showinventory@?2???0rpgclient@@QAE@XZ@6B@ 00456058     rpg.obj
 0002:0000806c       ??_R3cmd_showinventory@?2???0rpgclient@@QAE@XZ@8 0045606c     rpg.obj
 0002:0000807c       ??_R2cmd_showinventory@?2???0rpgclient@@QAE@XZ@8 0045607c     rpg.obj
 0002:00008088       ??_R1A@?0A@EA@cmd_showinventory@?2???0rpgclient@@QAE@XZ@8 00456088     rpg.obj
 0002:000080a4       ??_R4?$tident@Urpgclient@@@@6B@ 004560a4     rpg.obj
 0002:000080b8       ??_R4cmd_map@?1???0rpgclient@@QAE@XZ@6B@ 004560b8     rpg.obj
 0002:000080cc       ??_R3cmd_map@?1???0rpgclient@@QAE@XZ@8 004560cc     rpg.obj
 0002:000080dc       ??_R2cmd_map@?1???0rpgclient@@QAE@XZ@8 004560dc     rpg.obj
 0002:000080e8       ??_R1A@?0A@EA@?$tident@Urpgclient@@@@8 004560e8     rpg.obj
 0002:00008104       ??_R3?$tident@Urpgclient@@@@8 00456104     rpg.obj
 0002:00008114       ??_R2?$tident@Urpgclient@@@@8 00456114     rpg.obj
 0002:0000811c       ??_R1A@?0A@EA@cmd_map@?1???0rpgclient@@QAE@XZ@8 0045611c     rpg.obj
 0002:00008138       ??_R4cmd_r_stat@?N@???0rpgobjset@rpgclient@@QAE@AAU2@@Z@6B@ 00456138     rpg.obj
 0002:0000814c       ??_R3cmd_r_stat@?N@???0rpgobjset@rpgclient@@QAE@AAU2@@Z@8 0045614c     rpg.obj
 0002:0000815c       ??_R2cmd_r_stat@?N@???0rpgobjset@rpgclient@@QAE@AAU2@@Z@8 0045615c     rpg.obj
 0002:00008168       ??_R1A@?0A@EA@cmd_r_stat@?N@???0rpgobjset@rpgclient@@QAE@AAU2@@Z@8 00456168     rpg.obj
 0002:00008184       ??_R4cmd_r_gold@?M@???0rpgobjset@rpgclient@@QAE@AAU2@@Z@6B@ 00456184     rpg.obj
 0002:00008198       ??_R3cmd_r_gold@?M@???0rpgobjset@rpgclient@@QAE@AAU2@@Z@8 00456198     rpg.obj
 0002:000081a8       ??_R2cmd_r_gold@?M@???0rpgobjset@rpgclient@@QAE@AAU2@@Z@8 004561a8     rpg.obj
 0002:000081b4       ??_R1A@?0A@EA@cmd_r_gold@?M@???0rpgobjset@rpgclient@@QAE@AAU2@@Z@8 004561b4     rpg.obj
 0002:000081d0       ??_R4cmd_r_worth@?L@???0rpgobjset@rpgclient@@QAE@AAU2@@Z@6B@ 004561d0     rpg.obj
 0002:000081e4       ??_R3cmd_r_worth@?L@???0rpgobjset@rpgclient@@QAE@AAU2@@Z@8 004561e4     rpg.obj
 0002:000081f4       ??_R2cmd_r_worth@?L@???0rpgobjset@rpgclient@@QAE@AAU2@@Z@8 004561f4     rpg.obj
 0002:00008200       ??_R1A@?0A@EA@cmd_r_worth@?L@???0rpgobjset@rpgclient@@QAE@AAU2@@Z@8 00456200     rpg.obj
 0002:0000821c       ??_R4cmd_r_give@?9???0rpgobjset@rpgclient@@QAE@AAU2@@Z@6B@ 0045621c     rpg.obj
 0002:00008230       ??_R3cmd_r_give@?9???0rpgobjset@rpgclient@@QAE@AAU2@@Z@8 00456230     rpg.obj
 0002:00008240       ??_R2cmd_r_give@?9???0rpgobjset@rpgclient@@QAE@AAU2@@Z@8 00456240     rpg.obj
 0002:0000824c       ??_R1A@?0A@EA@cmd_r_give@?9???0rpgobjset@rpgclient@@QAE@AAU2@@Z@8 0045624c     rpg.obj
 0002:00008268       ??_R4cmd_r_take@?8???0rpgobjset@rpgclient@@QAE@AAU2@@Z@6B@ 00456268     rpg.obj
 0002:0000827c       ??_R3cmd_r_take@?8???0rpgobjset@rpgclient@@QAE@AAU2@@Z@8 0045627c     rpg.obj
 0002:0000828c       ??_R2cmd_r_take@?8???0rpgobjset@rpgclient@@QAE@AAU2@@Z@8 0045628c     rpg.obj
 0002:00008298       ??_R1A@?0A@EA@cmd_r_take@?8???0rpgobjset@rpgclient@@QAE@AAU2@@Z@8 00456298     rpg.obj
 0002:000082b4       ??_R4cmd_r_action@?7???0rpgobjset@rpgclient@@QAE@AAU2@@Z@6B@ 004562b4     rpg.obj
 0002:000082c8       ??_R3cmd_r_action@?7???0rpgobjset@rpgclient@@QAE@AAU2@@Z@8 004562c8     rpg.obj
 0002:000082d8       ??_R2cmd_r_action@?7???0rpgobjset@rpgclient@@QAE@AAU2@@Z@8 004562d8     rpg.obj
 0002:000082e4       ??_R1A@?0A@EA@cmd_r_action@?7???0rpgobjset@rpgclient@@QAE@AAU2@@Z@8 004562e4     rpg.obj
 0002:00008300       ??_R4cmd_r_say@?6???0rpgobjset@rpgclient@@QAE@AAU2@@Z@6B@ 00456300     rpg.obj
 0002:00008314       ??_R3cmd_r_say@?6???0rpgobjset@rpgclient@@QAE@AAU2@@Z@8 00456314     rpg.obj
 0002:00008324       ??_R2cmd_r_say@?6???0rpgobjset@rpgclient@@QAE@AAU2@@Z@8 00456324     rpg.obj
 0002:00008330       ??_R1A@?0A@EA@cmd_r_say@?6???0rpgobjset@rpgclient@@QAE@AAU2@@Z@8 00456330     rpg.obj
 0002:0000834c       ??_R4cmd_r_ai@?5???0rpgobjset@rpgclient@@QAE@AAU2@@Z@6B@ 0045634c     rpg.obj
 0002:00008360       ??_R3cmd_r_ai@?5???0rpgobjset@rpgclient@@QAE@AAU2@@Z@8 00456360     rpg.obj
 0002:00008370       ??_R2cmd_r_ai@?5???0rpgobjset@rpgclient@@QAE@AAU2@@Z@8 00456370     rpg.obj
 0002:0000837c       ??_R1A@?0A@EA@cmd_r_ai@?5???0rpgobjset@rpgclient@@QAE@AAU2@@Z@8 0045637c     rpg.obj
 0002:00008398       ??_R4cmd_r_pop@?4???0rpgobjset@rpgclient@@QAE@AAU2@@Z@6B@ 00456398     rpg.obj
 0002:000083ac       ??_R3cmd_r_pop@?4???0rpgobjset@rpgclient@@QAE@AAU2@@Z@8 004563ac     rpg.obj
 0002:000083bc       ??_R2cmd_r_pop@?4???0rpgobjset@rpgclient@@QAE@AAU2@@Z@8 004563bc     rpg.obj
 0002:000083c8       ??_R1A@?0A@EA@cmd_r_pop@?4???0rpgobjset@rpgclient@@QAE@AAU2@@Z@8 004563c8     rpg.obj
 0002:000083e4       ??_R4cmd_r_contain@?3???0rpgobjset@rpgclient@@QAE@AAU2@@Z@6B@ 004563e4     rpg.obj
 0002:000083f8       ??_R3cmd_r_contain@?3???0rpgobjset@rpgclient@@QAE@AAU2@@Z@8 004563f8     rpg.obj
 0002:00008408       ??_R2cmd_r_contain@?3???0rpgobjset@rpgclient@@QAE@AAU2@@Z@8 00456408     rpg.obj
 0002:00008414       ??_R1A@?0A@EA@cmd_r_contain@?3???0rpgobjset@rpgclient@@QAE@AAU2@@Z@8 00456414     rpg.obj
 0002:00008430       ??_R4cmd_r_spawn@?2???0rpgobjset@rpgclient@@QAE@AAU2@@Z@6B@ 00456430     rpg.obj
 0002:00008444       ??_R3cmd_r_spawn@?2???0rpgobjset@rpgclient@@QAE@AAU2@@Z@8 00456444     rpg.obj
 0002:00008454       ??_R2cmd_r_spawn@?2???0rpgobjset@rpgclient@@QAE@AAU2@@Z@8 00456454     rpg.obj
 0002:00008460       ??_R1A@?0A@EA@cmd_r_spawn@?2???0rpgobjset@rpgclient@@QAE@AAU2@@Z@8 00456460     rpg.obj
 0002:0000847c       ??_R4?$tident@Urpgobjset@rpgclient@@@@6B@ 0045647c     rpg.obj
 0002:00008490       ??_R4cmd_r_model@?1???0rpgobjset@rpgclient@@QAE@AAU2@@Z@6B@ 00456490     rpg.obj
 0002:000084a4       ??_R3cmd_r_model@?1???0rpgobjset@rpgclient@@QAE@AAU2@@Z@8 004564a4     rpg.obj
 0002:000084b4       ??_R2cmd_r_model@?1???0rpgobjset@rpgclient@@QAE@AAU2@@Z@8 004564b4     rpg.obj
 0002:000084c0       ??_R1A@?0A@EA@?$tident@Urpgobjset@rpgclient@@@@8 004564c0     rpg.obj
 0002:000084dc       ??_R3?$tident@Urpgobjset@rpgclient@@@@8 004564dc     rpg.obj
 0002:000084ec       ??_R2?$tident@Urpgobjset@rpgclient@@@@8 004564ec     rpg.obj
 0002:000084f4       ??_R1A@?0A@EA@cmd_r_model@?1???0rpgobjset@rpgclient@@QAE@AAU2@@Z@8 004564f4     rpg.obj
 0002:00008510       ??_R4?$tident@Urpgentities@rpgclient@@@@6B@ 00456510     rpg.obj
 0002:00008524       ??_R4cmd_spawnname@?1???0rpgentities@rpgclient@@QAE@AAU2@@Z@6B@ 00456524     rpg.obj
 0002:00008538       ??_R3cmd_spawnname@?1???0rpgentities@rpgclient@@QAE@AAU2@@Z@8 00456538     rpg.obj
 0002:00008548       ??_R2cmd_spawnname@?1???0rpgentities@rpgclient@@QAE@AAU2@@Z@8 00456548     rpg.obj
 0002:00008554       ??_R1A@?0A@EA@?$tident@Urpgentities@rpgclient@@@@8 00456554     rpg.obj
 0002:00008570       ??_R3?$tident@Urpgentities@rpgclient@@@@8 00456570     rpg.obj
 0002:00008580       ??_R2?$tident@Urpgentities@rpgclient@@@@8 00456580     rpg.obj
 0002:00008588       ??_R1A@?0A@EA@cmd_spawnname@?1???0rpgentities@rpgclient@@QAE@AAU2@@Z@8 00456588     rpg.obj
 0002:000085a4       ??_R4rpgobj@rpgclient@@6B@ 004565a4     rpg.obj
 0002:000085b8       ??_R3rpgobj@rpgclient@@8   004565b8     rpg.obj
 0002:000085c8       ??_R2rpgobj@rpgclient@@8   004565c8     rpg.obj
 0002:000085d4       ??_R1A@?0A@EA@rpgobj@rpgclient@@8 004565d4     rpg.obj
 0002:000085f0       ??_R4rpgentities@rpgclient@@6B@ 004565f0     rpg.obj
 0002:00008604       ??_R3rpgentities@rpgclient@@8 00456604     rpg.obj
 0002:00008614       ??_R2rpgentities@rpgclient@@8 00456614     rpg.obj
 0002:00008620       ??_R1A@?0A@EA@rpgentities@rpgclient@@8 00456620     rpg.obj
 0002:0000863c       ??_R4rpgclient@@6Bg3d_callback@@@ 0045663c     rpg.obj
 0002:00008650       ??_R4rpgclient@@6Bigameclient@@@ 00456650     rpg.obj
 0002:00008664       ??_R3rpgclient@@8          00456664     rpg.obj
 0002:00008674       ??_R2rpgclient@@8          00456674     rpg.obj
 0002:00008684       ??_R13?0A@EA@g3d_callback@@8 00456684     rpg.obj
 0002:000086a0       ??_R1A@?0A@EA@rpgclient@@8 004566a0     rpg.obj
 0002:000086bc       ??_R4rpgdummyserver@@6B@   004566bc     rpg.obj
 0002:000086d0       ??_R3rpgdummyserver@@8     004566d0     rpg.obj
 0002:000086e0       ??_R2rpgdummyserver@@8     004566e0     rpg.obj
 0002:000086ec       ??_R1A@?0A@EA@rpgdummyserver@@8 004566ec     rpg.obj
 0002:00008708       ??_R4rpgdummycom@@6B@      00456708     rpg.obj
 0002:0000871c       ??_R3rpgdummycom@@8        0045671c     rpg.obj
 0002:0000872c       ??_R2rpgdummycom@@8        0045672c     rpg.obj
 0002:00008738       ??_R1A@?0A@EA@rpgdummycom@@8 00456738     rpg.obj
 0002:00008754       ___rtc_iaa                 00456754     msvcrt:initsect.obj
 0002:00008758       ___rtc_izz                 00456758     msvcrt:initsect.obj
 0002:0000875c       ___rtc_taa                 0045675c     msvcrt:initsect.obj
 0002:00008760       ___rtc_tzz                 00456760     msvcrt:initsect.obj
 0002:0000a974       __IMPORT_DESCRIPTOR_MSVCR80 00458974     msvcrt:MSVCR80.dll
 0002:0000a988       __IMPORT_DESCRIPTOR_zlib1  00458988     zdll:zlib1.dll
 0002:0000a99c       __IMPORT_DESCRIPTOR_OPENGL32 0045899c     opengl32:OPENGL32.dll
 0002:0000a9b0       __IMPORT_DESCRIPTOR_GLU32  004589b0     glu32:GLU32.dll
 0002:0000a9c4       __IMPORT_DESCRIPTOR_SDL    004589c4     SDL:SDL.dll
 0002:0000a9d8       __IMPORT_DESCRIPTOR_SDL_image 004589d8     SDL_image:SDL_image.dll
 0002:0000a9ec       __IMPORT_DESCRIPTOR_WS2_32 004589ec     ws2_32:WS2_32.dll
 0002:0000aa00       __IMPORT_DESCRIPTOR_SDL_mixer 00458a00     SDL_mixer:SDL_mixer.dll
 0002:0000aa14       __IMPORT_DESCRIPTOR_WINMM  00458a14     winmm:WINMM.dll
 0002:0000aa28       __IMPORT_DESCRIPTOR_dbghelp 00458a28     dbghelp:dbghelp.dll
 0002:0000aa3c       __IMPORT_DESCRIPTOR_USER32 00458a3c     user32:USER32.dll
 0002:0000aa50       __IMPORT_DESCRIPTOR_KERNEL32 00458a50     kernel32:KERNEL32.dll
 0002:0000aa64       __NULL_IMPORT_DESCRIPTOR   00458a64     msvcrt:MSVCR80.dll
 0003:00000000       ??_R0?AVtype_info@@@8      0045a000     msvcrt:ti_inst.obj
 0003:00000018       ___native_dllmain_reason   0045a018     msvcrt:natstart.obj
 0003:0000001c       ___native_vcclrit_reason   0045a01c     msvcrt:natstart.obj
 0003:00000020       ___globallocalestatus      0045a020     msvcrt:xthdloc.obj
 0003:00000024       ___defaultmatherr          0045a024     msvcrt:merr.obj
 0003:00000028       ___security_cookie         0045a028     msvcrt:gs_cookie.obj
 0003:0000002c       ___security_cookie_complement 0045a02c     msvcrt:gs_cookie.obj
 0003:00000030       ??_C@_0BA@FFEO@WinMain?$CI?$CJ?5error?$AA@ 0045a030     SDLmain:SDL_win32_main.obj
 0003:00000040       ??_C@_07OEOL@?$CFs?3?5?$CFs?6?$AA@ 0045a040     SDLmain:SDL_win32_main.obj
 0003:00000048       ??_C@_0M@MMAJ@Fatal?5Error?$AA@ 0045a048     SDLmain:SDL_win32_main.obj
 0003:00000054       ??_C@_0BJ@EJNJ@Out?5of?5memory?5?9?5aborting?$AA@ 0045a054     SDLmain:SDL_win32_main.obj
 0003:00000070       ??_C@_02JKAF@rb?$AA@       0045a070     SDLmain:SDL_win32_main.obj
 0003:00000084       ?nosound@@3_NA             0045a084     sound.obj
 0003:00000085       ?persistidents@@3_NA       0045a085     command.obj
 0003:0000008c       ?scr_w@@3HA                0045a08c     main.obj
 0003:00000090       ?scr_h@@3HA                0045a090     main.obj
 0003:00000094       ?commandpos@@3HA           0045a094     console.obj
 0003:00000098       ?materials@@3PAUmaterial@@A 0045a098     water.obj
 0003:000000c0       ?char_coords@@3PAY02FA     0045a0c0     rendertext.obj
 0003:000002f4       ?curmatslot@@3HA           0045a2f4     rendergl.obj
 0003:000002f8       ?md2normaltable@@3PAY02MA  0045a2f8     rendermodel.obj
 0003:00000ef8       ?cubemapsides@@3PAUcubemapside@@A 0045aef8     rendergl.obj
 0003:00000f64       ?pingsock@@3IA             0045af64     serverbrowser.obj
 0003:00000f68       ?pongsock@@3IA             0045af68     server.obj
 0003:00000f6c       ?disc_reasons@@3PAPADA     0045af6c     server.obj
 0003:00000f8c       ?mssock@@3IA               0045af8c     server.obj
 0003:00000f90       ?masterserver@@3U_ENetAddress@@A 0045af90     server.obj
 0003:00000f98       ?maxclients@@3HA           0045af98     server.obj
 0003:00000f9c       ?sdesc@@3PADA              0045af9c     server.obj
 0003:00000fa0       ?ip@@3PADA                 0045afa0     server.obj
 0003:00000fa4       ?game@@3PADA               0045afa4     server.obj
 0003:00000fa8       ?efocus@@3HA               0045afa8     world.obj
 0003:00000fac       ?spawncycle@@3HA           0045afac     world.obj
 0003:00000fb0       ?fixspawn@@3HA             0045afb0     world.obj
 0003:00000fb4       ?gridsize@@3HA             0045afb4     octaedit.obj
 0003:00000fb8       ?triggertypes@@3PAHA       0045afb8     world.obj
 0003:00000ff8       ?orientation_tangent@@3PAY03MA 0045aff8     octarender.obj
 0003:00001028       ?orientation_binormal@@3PAY03MA 0045b028     octarender.obj
 0003:00001058       ?curtexindex@@3HA          0045b058     octaedit.obj
 0003:0000105c       ?reptex@@3HA               0045b05c     octaedit.obj
 0003:00001060       ?shadows@@3HA              0045b060     lightmap.obj
 0003:00001064       ?aalights@@3HA             0045b064     lightmap.obj
 0003:000010c8       ?lightmaps@@3U?$vector@ULightMap@@@@A 0045b0c8     lightmap.obj
 0003:00001104       ?lmtexids@@3U?$vector@I@@A 0045b104     lightmap.obj
 0003:00001110       ?normals@@3U?$hashtable@Unkey@@Unval@@@@A 0045b110     normal.obj
 0003:00001128       ?cubecoords@@3QBUivec@@B   0045b128     octa.obj
 0003:000011a0       ?undos@@3U?$vector@Uundoblock@@@@A 0045b1a0     octaedit.obj
 0003:000011ac       ?redos@@3U?$vector@Uundoblock@@@@A 0045b1ac     octaedit.obj
 0003:000011b8       ?verts@@3U?$vector@Uvertex@@@@A 0045b1b8     octarender.obj
 0003:000011c4       ?vbos@@3U?$hashtable@IUvboinfo@@@@A 0045b1c4     octarender.obj
 0003:000011e0       ?vh@@3Uvechash@@A          0045b1e0     octarender.obj
 0003:000411ec       ?valist@@3U?$vector@PAUvtxarray@@@@A 0049b1ec     octarender.obj
 0003:000411f8       ?varoot@@3U?$vector@PAUvtxarray@@@@A 0049b1f8     octarender.obj
 0003:0004121c       ?texmru@@3U?$vector@G@@A   0049b21c     world.obj
 0003:00041228       ?entgroup@@3U?$vector@H@@A 0049b228     world.obj
 0003:00041234       ?entcopybuf@@3U?$vector@Uentity@@@@A 0049b234     world.obj
 0003:00041240       ?clients@@3U?$vector@PAUclient@@@@A 0049b240     server.obj
 0003:0004124c       ?resolverthreads@@3U?$vector@Uresolverthread@@@@A 0049b24c     serverbrowser.obj
 0003:00041258       ?resolverqueries@@3U?$vector@PBD@@A 0049b258     serverbrowser.obj
 0003:00041264       ?resolverresults@@3U?$vector@Uresolverresult@@@@A 0049b264     serverbrowser.obj
 0003:00041270       ?servers@@3U?$vector@Userverinfo@@@@A 0049b270     serverbrowser.obj
 0003:0004127c       ?lists@gui@@2U?$vector@Ulist@gui@@@@A 0049b27c     3dgui.obj
 0003:00041294       ?spheres@@3U?$vector@Usphere@@@@A 0049b294     renderextras.obj
 0003:000412a0       ?shaders@@3U?$hashtable@PBDUShader@@@@A 0049b2a0     rendergl.obj
 0003:000412c4       ?textures@@3U?$hashtable@PADUTexture@@@@A 0049b2c4     rendergl.obj
 0003:000412dc       ?slots@@3U?$vector@USlot@@@@A 0049b2dc     rendergl.obj
 0003:000412e8       ?mapmodels@@3U?$vector@Umapmodelinfo@@@@A 0049b2e8     rendermodel.obj
 0003:000412f4       ?mdllookup@@3U?$hashtable@PBDPAUmodel@@@@A 0049b2f4     rendermodel.obj
 0003:00041354       ?conlines@@3U?$vector@Ucline@@@@A 0049b354     console.obj
 0003:00041360       ?keyms@@3U?$vector@Ukeym@@@@A 0049b360     console.obj
 0003:0004136c       ?vhistory@@3U?$vector@PAD@@A 0049b36c     console.obj
 0003:00041378       ?releaseactions@@3U?$vector@Ureleaseaction@@@@A 0049b378     console.obj
 0003:00041384       ?sleepcmds@@3U?$vector@Usleepcmd@@@@A 0049b384     main.obj
 0003:000413ac       ?samples@@3U?$hashtable@PADUsample@@@@A 0049b3ac     sound.obj
 0003:000413c4       ?samplevec@@3U?$vector@PAUsample@@@@A 0049b3c4     sound.obj
 0003:000413d0       ?reg_fpsgame@@3Ufpsgame@@A 0049b3d0     fps.obj
 0003:000413d4       ?reg_rpggame@@3Urpggame@@A 0049b3d4     rpg.obj
 0003:00041418       ??_R0?AUcmd_havesel@@@8    0049b418     octaedit.obj
 0003:00041434       ??_R0?AU?$tident@X@@@8     0049b434     octaedit.obj
 0003:00041468       ??_R0?AUcmd_attack@@@8     0049b468     physics.obj
 0003:00041484       ??_R0?AUcmd_jump@@@8       0049b484     physics.obj
 0003:0004149c       ??_R0?AUcmd_right@@@8      0049b49c     physics.obj
 0003:000414b4       ??_R0?AUcmd_left@@@8       0049b4b4     physics.obj
 0003:000414cc       ??_R0?AUcmd_forward@@@8    0049b4cc     physics.obj
 0003:000414e8       ??_R0?AUcmd_backward@@@8   0049b4e8     physics.obj
 0003:00041524       ??_R0?AUcmd_entget@@@8     0049b524     world.obj
 0003:00041540       ??_R0?AUcmd_insel@@@8      0049b540     world.obj
 0003:00041558       ??_R0?AUcmd_entloop@@@8    0049b558     world.obj
 0003:00041574       ??_R0?AUcmd_entselect@@@8  0049b574     world.obj
 0003:00041590       ??_R0?AUcmd_enthavesel@@@8 0049b590     world.obj
 0003:000415b0       ??_R0?AUgui@@@8            0049b5b0     3dgui.obj
 0003:000415c4       ??_R0?AUg3d_gui@@@8        0049b5c4     3dgui.obj
 0003:000415f4       ??_R0?AUmd3part@md3@@@8    0049b5f4     rendermodel.obj
 0003:00041610       ??_R0?AUmd3@@@8            0049b610     rendermodel.obj
 0003:00041624       ??_R0?AUmd2part@md2@@@8    0049b624     rendermodel.obj
 0003:00041640       ??_R0?AUmd2@@@8            0049b640     rendermodel.obj
 0003:00041654       ??_R0?AUpart@vertmodel@@@8 0049b654     rendermodel.obj
 0003:00041674       ??_R0?AUvertmodel@@@8      0049b674     rendermodel.obj
 0003:0004168c       ??_R0?AUmodel@@@8          0049b68c     rendermodel.obj
 0003:000416a0       ?_frame@?1??getdefaultanim@md2part@md2@@UAEXAAUanimstate@@HHM@Z@4PAHA 0049b6a0     rendermodel.obj
 0003:000416dc       ?_range@?1??getdefaultanim@md2part@md2@@UAEXAAUanimstate@@HHM@Z@4PAHA 0049b6dc     rendermodel.obj
 0003:00041718       ?animfr@?1??getdefaultanim@md2part@md2@@UAEXAAUanimstate@@HHM@Z@4PAHA 0049b718     rendermodel.obj
 0003:0004190c       ??_R0?AUSphereLeaf@@@8     0049b90c     spheretree.obj
 0003:00041928       ??_R0?AUSphereBranch@@@8   0049b928     spheretree.obj
 0003:00041944       ??_R0?AUSphereTree@@@8     0049b944     spheretree.obj
 0003:00041988       ??_R0?AUcmd_echo@@@8       0049b988     command.obj
 0003:000419a0       ??_R0?AUcmd_while@@@8      0049b9a0     command.obj
 0003:000419b8       ??_R0?AUcmd_loop@@@8       0049b9b8     command.obj
 0003:000419d0       ??_R0?AUcmd_if@@@8         0049b9d0     command.obj
 0003:000419ec       ??_R0?AUmainmenucallback@@@8 0049b9ec     menus.obj
 0003:00041a0c       ??_R0?AUg3d_callback@@@8   0049ba0c     menus.obj
 0003:00041a28       ??_R0?AUfpsgame@@@8        0049ba28     fps.obj
 0003:00041a40       ??_R0?AUcmd_kill@?2???0fpsclient@@QAE@XZ@@8 0049ba40     fps.obj
 0003:00041a70       ??_R0?AU?$tident@Ufpsclient@@@@@8 0049ba70     fps.obj
 0003:00041a94       ??_R0?AUcmd_mode@?1???0fpsclient@@QAE@XZ@@8 0049ba94     fps.obj
 0003:00041ac4       ??_R0?AU?$tident@Ucaptureclient@fpsclient@@@@@8 0049bac4     fps.obj
 0003:00041af8       ??_R0?AUcmd_repammo@?1???0captureclient@fpsclient@@QAE@AAU2@@Z@@8 0049baf8     fps.obj
 0003:00041b40       ??_R0?AUcmd_sendmap@?M@???0clientcom@fpsclient@@QAE@AAU2@@Z@@8 0049bb40     fps.obj
 0003:00041b88       ??_R0?AUcmd_getmap@?L@???0clientcom@fpsclient@@QAE@AAU2@@Z@@8 0049bb88     fps.obj
 0003:00041bc8       ??_R0?AUcmd_setteam@?9???0clientcom@fpsclient@@QAE@AAU2@@Z@@8 0049bbc8     fps.obj
 0003:00041c08       ??_R0?AUcmd_setmaster@?8???0clientcom@fpsclient@@QAE@AAU2@@Z@@8 0049bc08     fps.obj
 0003:00041c50       ??_R0?AUcmd_mastermode@?7???0clientcom@fpsclient@@QAE@AAU2@@Z@@8 0049bc50     fps.obj
 0003:00041c98       ??_R0?AUcmd_spectator@?6???0clientcom@fpsclient@@QAE@AAU2@@Z@@8 0049bc98     fps.obj
 0003:00041cdc       ??_R0?AUcmd_kick@?5???0clientcom@fpsclient@@QAE@AAU2@@Z@@8 0049bcdc     fps.obj
 0003:00041d1c       ??_R0?AUcmd_map@?4???0clientcom@fpsclient@@QAE@AAU2@@Z@@8 0049bd1c     fps.obj
 0003:00041d58       ??_R0?AUcmd_team@?3???0clientcom@fpsclient@@QAE@AAU2@@Z@@8 0049bd58     fps.obj
 0003:00041d98       ??_R0?AUcmd_name@?2???0clientcom@fpsclient@@QAE@AAU2@@Z@@8 0049bd98     fps.obj
 0003:00041dd8       ??_R0?AU?$tident@Uclientcom@fpsclient@@@@@8 0049bdd8     fps.obj
 0003:00041e08       ??_R0?AUcmd_say@?1???0clientcom@fpsclient@@QAE@AAU2@@Z@@8 0049be08     fps.obj
 0003:00041e44       ??_R0?AU?$tident@Uscoreboard@fpsclient@@@@@8 0049be44     fps.obj
 0003:00041e78       ??_R0?AUcmd_showscores@?1???0scoreboard@fpsclient@@QAE@AAU2@@Z@@8 0049be78     fps.obj
 0003:00041ebc       ??_R0?AU?$tident@Uweaponstate@fpsclient@@@@@8 0049bebc     fps.obj
 0003:00041ef0       ??_R0?AUcmd_weapon@?1???0weaponstate@fpsclient@@QAE@AAU2@@Z@@8 0049bef0     fps.obj
 0003:00041f34       ??_R0?AUvar_hudgun@fpsclient@@@8 0049bf34     fps.obj
 0003:00041f58       ??_R0?AUclientcom@fpsclient@@@8 0049bf58     fps.obj
 0003:00041f7c       ??_R0?AUentities@fpsclient@@@8 0049bf7c     fps.obj
 0003:00041fa0       ??_R0?AUscoreboard@fpsclient@@@8 0049bfa0     fps.obj
 0003:00041fc4       ??_R0?AUvar_skill@monsterset@fpsclient@@@8 0049bfc4     fps.obj
 0003:00041ff4       ??_R0?AUvar_maxdebris@weaponstate@fpsclient@@@8 0049bff4     fps.obj
 0003:00042028       ??_R0?AUfpsclient@@@8      0049c028     fps.obj
 0003:00042040       ??_R0?AUfpsserver@@@8      0049c040     fps.obj
 0003:00042058       ??_R0?AUigameserver@@@8    0049c058     fps.obj
 0003:00042074       ??_R0?AUigameclient@@@8    0049c074     fps.obj
 0003:00042090       ??_R0?AUiclientcom@@@8     0049c090     fps.obj
 0003:000420ac       ??_R0?AUicliententities@@@8 0049c0ac     fps.obj
 0003:000420cc       ??_R0?AUigame@@@8          0049c0cc     fps.obj
 0003:000420e0       ?modenames@?1??modestr@fpsserver@@SAPBDH@Z@4PAPBDA 0049c0e0     fps.obj
 0003:00042120       ?msgsizesl@?1??msgsizelookup@fpsserver@@SADH@Z@4PADA 0049c120     fps.obj
 0003:00042188       ?spectypes@?3??checktype@fpsserver@@QAEHHPAUclientinfo@2@@Z@4PAHA 0049c188     fps.obj
 0003:000421a0       ?servtypes@?M@??checktype@fpsserver@@QAEHHPAUclientinfo@2@@Z@4PAHA 0049c1a0     fps.obj
 0003:000421d8       ?_guns@?1???0weaponstate@fpsclient@@QAE@AAU2@@Z@4PAUguninfo@12@A 0049c1d8     fps.obj
 0003:00042288       ?_monstertypes@?1???0monsterset@fpsclient@@QAE@AAU2@@Z@4PAUmonstertype@12@A 0049c288     fps.obj
 0003:000423a8       ?_itemstats@?1???0entities@fpsclient@@QAE@AAU2@@Z@4PAUitemstat@12@A 0049c3a8     fps.obj
 0003:00042458       ?entmdlnames@?9??renderentities@entities@fpsclient@@QAEXXZ@4PAPADA 0049c458     fps.obj
 0003:00042490       ?entnames@?1??entname@entities@fpsclient@@UAEPBDH@Z@4PAPBDA 0049c490     fps.obj
 0003:000424f8       ?spectypes@?4??addmsg@clientcom@fpsclient@@QAAXHPBDZZ@4PAHA 0049c4f8     fps.obj
 0003:00042500       ?hudgunnames@?1??drawhudmodel@fpsclient@@QAEXHMH@Z@4PAPADA 0049c500     fps.obj
 0003:0004251c       ??_R0?AUrpggame@@@8        0049c51c     rpg.obj
 0003:00042534       ??_R0?AUcmd_showinventory@?2???0rpgclient@@QAE@XZ@@8 0049c534     rpg.obj
 0003:0004256c       ??_R0?AU?$tident@Urpgclient@@@@@8 0049c56c     rpg.obj
 0003:00042590       ??_R0?AUcmd_map@?1???0rpgclient@@QAE@XZ@@8 0049c590     rpg.obj
 0003:000425c0       ??_R0?AUcmd_r_stat@?N@???0rpgobjset@rpgclient@@QAE@AAU2@@Z@@8 0049c5c0     rpg.obj
 0003:00042600       ??_R0?AUcmd_r_gold@?M@???0rpgobjset@rpgclient@@QAE@AAU2@@Z@@8 0049c600     rpg.obj
 0003:00042640       ??_R0?AUcmd_r_worth@?L@???0rpgobjset@rpgclient@@QAE@AAU2@@Z@@8 0049c640     rpg.obj
 0003:00042684       ??_R0?AUcmd_r_give@?9???0rpgobjset@rpgclient@@QAE@AAU2@@Z@@8 0049c684     rpg.obj
 0003:000426c4       ??_R0?AUcmd_r_take@?8???0rpgobjset@rpgclient@@QAE@AAU2@@Z@@8 0049c6c4     rpg.obj
 0003:00042708       ??_R0?AUcmd_r_action@?7???0rpgobjset@rpgclient@@QAE@AAU2@@Z@@8 0049c708     rpg.obj
 0003:0004274c       ??_R0?AUcmd_r_say@?6???0rpgobjset@rpgclient@@QAE@AAU2@@Z@@8 0049c74c     rpg.obj
 0003:0004278c       ??_R0?AUcmd_r_ai@?5???0rpgobjset@rpgclient@@QAE@AAU2@@Z@@8 0049c78c     rpg.obj
 0003:000427cc       ??_R0?AUcmd_r_pop@?4???0rpgobjset@rpgclient@@QAE@AAU2@@Z@@8 0049c7cc     rpg.obj
 0003:00042810       ??_R0?AUcmd_r_contain@?3???0rpgobjset@rpgclient@@QAE@AAU2@@Z@@8 0049c810     rpg.obj
 0003:00042858       ??_R0?AUcmd_r_spawn@?2???0rpgobjset@rpgclient@@QAE@AAU2@@Z@@8 0049c858     rpg.obj
 0003:00042898       ??_R0?AU?$tident@Urpgobjset@rpgclient@@@@@8 0049c898     rpg.obj
 0003:000428c8       ??_R0?AUcmd_r_model@?1???0rpgobjset@rpgclient@@QAE@AAU2@@Z@@8 0049c8c8     rpg.obj
 0003:00042908       ??_R0?AU?$tident@Urpgentities@rpgclient@@@@@8 0049c908     rpg.obj
 0003:00042938       ??_R0?AUcmd_spawnname@?1???0rpgentities@rpgclient@@QAE@AAU2@@Z@@8 0049c938     rpg.obj
 0003:0004297c       ??_R0?AUrpgobj@rpgclient@@@8 0049c97c     rpg.obj
 0003:0004299c       ??_R0?AUrpgentities@rpgclient@@@8 0049c99c     rpg.obj
 0003:000429c0       ??_R0?AUrpgclient@@@8      0049c9c0     rpg.obj
 0003:000429d8       ??_R0?AUrpgdummyserver@@@8 0049c9d8     rpg.obj
 0003:000429f8       ??_R0?AUrpgdummycom@@@8    0049c9f8     rpg.obj
 0003:00042a14       ?entnames@?1??entname@rpgentities@rpgclient@@UAEPBDH@Z@4PAPBDA 0049ca14     rpg.obj
 0003:00042a30       ?snames@?1???0stats@rpgclient@@QAE@XZ@4PAUstatd@12@A 0049ca30     rpg.obj
 0003:00042af0       __dowildcard               0049caf0     msvcrt:wildcard.obj
 0003:00042af4       __newmode                  0049caf4     msvcrt:_newmode.obj
 0003:00042af8       __commode                  0049caf8     msvcrt:xncommod.obj
 0003:00042afc       __fmode                    0049cafc     msvcrt:xtxtmode.obj
 0003:0004f048       ?luperfect@@3_NA           004a9048     octa.obj
 0003:0004f049       ?hitplayer@@3_NA           004a9049     physics.obj
 0003:0004f04a       ?inside@@3_NA              004a904a     physics.obj
 0003:0004f04b       ?passthrough@gui@@2_NA     004a904b     3dgui.obj
 0003:0004f04c       ?lusize@@3HA               004a904c     octa.obj
 0003:0004f050       ?brush@@3PAY0DC@HA         004a9050     octaedit.obj
 0003:00051768       ?reflectedva@@3PAUvtxarray@@A 004ab768     octarender.obj
 0003:00051774       ?visibleva@@3PAUvtxarray@@A 004ab774     octarender.obj
 0003:00051878       ?vfcfov@@3HA               004ab878     octarender.obj
 0003:0005187c       ?vfch@@3HA                 004ab87c     octarender.obj
 0003:00051880       ?vfcw@@3HA                 004ab880     octarender.obj
 0003:00051884       ?vfcDfog@@3MA              004ab884     octarender.obj
 0003:00051930       ?cstats@@3PAUcstat@@A      004ab930     octarender.obj
 0003:00051b30       ?walldistance@@3MA         004abb30     physics.obj
 0003:00051b34       ?hitent@@3HA               004abb34     physics.obj
 0003:00051b38       ?hitentdist@@3MA           004abb38     physics.obj
 0003:00051b3c       ?entcopygrid@@3HA          004abb3c     world.obj
 0003:00051b40       ?hdr@@3Uheader@@A          004abb40     world.obj
 0003:00051c04       ?resultcond@@3PAUSDL_cond@@A 004abc04     serverbrowser.obj
 0003:00051c08       ?mcfname@@3PADA            004abc08     worldio.obj
 0003:00051d0c       ?querycond@@3PAUSDL_cond@@A 004abd0c     serverbrowser.obj
 0003:00051d10       ?pcfname@@3PADA            004abd10     worldio.obj
 0003:00051e14       ?resolvermutex@@3PAUSDL_mutex@@A 004abe14     serverbrowser.obj
 0003:00051e18       ?bakname@@3PADA            004abe18     worldio.obj
 0003:00051f20       ?cgzname@@3PADA            004abf20     worldio.obj
 0003:00052024       ?tcolor@gui@@2HA           004ac024     3dgui.obj
 0003:00052028       ?sboxes@tiger@@2PA_KA      004ac028     crypto.obj
 0003:00054028       ?masterb@@3UENetBuffer@@A  004ae028     server.obj
 0003:00054030       ?masterrep@@3PAEA          004ae030     server.obj
 0003:000553b8       ?masterpath@@3PADA         004af3b8     server.obj
 0003:000554bc       ?ty@gui@@2HA               004af4bc     3dgui.obj
 0003:000554c0       ?masterbase@@3PADA         004af4c0     server.obj
 0003:000555c4       ?hity@gui@@2MA             004af5c4     3dgui.obj
 0003:000559c8       ?tcurrent@gui@@2PAHA       004af9c8     3dgui.obj
 0003:000559cc       ?curdepth@gui@@2HA         004af9cc     3dgui.obj
 0003:000559d4       ?ysize@gui@@2HA            004af9d4     3dgui.obj
 0003:000559d8       ?curlist@gui@@2HA          004af9d8     3dgui.obj
 0003:000559dc       ?hitx@gui@@2MA             004af9dc     3dgui.obj
 0003:000559e0       ?xsize@gui@@2HA            004af9e0     3dgui.obj
 0003:000559e4       ?scale@gui@@2MA            004af9e4     3dgui.obj
 0003:000559e8       ?tpos@gui@@2HA             004af9e8     3dgui.obj
 0003:000559ec       ?cury@gui@@2HA             004af9ec     3dgui.obj
 0003:000559f0       ?curx@gui@@2HA             004af9f0     3dgui.obj
 0003:000559f4       ?tx@gui@@2HA               004af9f4     3dgui.obj
 0003:000559f8       ?mm@@3PAMA                 004af9f8     renderextras.obj
 0003:00055a38       ?fullentname@@3PADA        004afa38     renderextras.obj
 0003:00055b3c       ?rendertarget@@3PAIA       004afb3c     rendergl.obj
 0003:00055b58       ?closeent@@3PADA           004afb58     renderextras.obj
 0003:00055c5c       ?fsparams@@3PAMA           004afc5c     rendergl.obj
 0003:00055c6c       ?fsfb@@3PAIA               004afc6c     rendergl.obj
 0003:00055c84       ?xtravertsva@@3HA          004afc84     rendergl.obj
 0003:00055c88       ?xtraverts@@3HA            004afc88     rendergl.obj
 0003:00055c8c       ?renderpath@@3HA           004afc8c     rendergl.obj
 0003:00055c90       ?md3dir@@3PADA             004afc90     rendermodel.obj
 0003:00055d94       ?parttexs@@3PAPAUTexture@@A 004afd94     renderparticles.obj
 0003:00055db8       ?parlist@@3PAPAUparticle@@A 004afdb8     renderparticles.obj
 0003:00055e20       ?lastcomplete@@3PADA       004afe20     command.obj
 0003:00055f24       ?curtime@@3HA              004aff24     main.obj
 0003:00055f28       ?commandbuf@@3PADA         004aff28     console.obj
 0003:0005602c       ___@@_PchSym_@00@UwllnUhixUexkkUivovzhvUkxsOlyq@ 004b002c     pch.obj
 0003:000569f8       ?mmshadows@@3HA            004b09f8     lightmap.obj
 0003:00056a00       ?calclight_canceled@@3_NA  004b0a00     lightmap.obj
 0003:00056a01       ?check_calclight_progress@@3_NC 004b0a01     lightmap.obj
 0003:00056a02       ?editmode@@3_NA            004b0a02     octaedit.obj
 0003:00056a03       ?havesel@@3_NA             004b0a03     octaedit.obj
 0003:00056a10       ?allocnodes@@3HA           004b0a10     octa.obj
 0003:00056a18       ?orient@@3HA               004b0a18     octaedit.obj
 0003:00056a1c       ?hmap@@3PAHA               004b0a1c     octaedit.obj
 0003:00056a20       ?htex@@3PAGA               004b0a20     octaedit.obj
 0003:00056a24       ?htexture@@3GA             004b0a24     octaedit.obj
 0003:00056a26       ?undogoahead@@3_NA         004b0a26     octaedit.obj
 0003:00056a28       ?selchildcount@@3HA        004b0a28     octaedit.obj
 0003:00056a2c       ?localedit@@3PAUeditinfo@@A 004b0a2c     octaedit.obj
 0003:00056a30       ?brushmaxx@@3HA            004b0a30     octaedit.obj
 0003:00056a34       ?brushmaxy@@3HA            004b0a34     octaedit.obj
 0003:00056a38       ?lasttex@@3HA              004b0a38     octaedit.obj
 0003:00056a3c       ?texpaneltimer@@3HA        004b0a3c     octaedit.obj
 0003:00056a40       ?explicitsky@@3HA          004b0a40     octarender.obj
 0003:00056a44       ?skyarea@@3HA              004b0a44     octarender.obj
 0003:00056a48       ?allocva@@3HA              004b0a48     octarender.obj
 0003:00056a4c       ?wtris@@3HA                004b0a4c     octarender.obj
 0003:00056a50       ?wverts@@3HA               004b0a50     octarender.obj
 0003:00056a54       ?vtris@@3HA                004b0a54     octarender.obj
 0003:00056a58       ?vverts@@3HA               004b0a58     octarender.obj
 0003:00056a5c       ?glde@@3HA                 004b0a5c     octarender.obj
 0003:00056a68       ?recalcprogress@@3HA       004b0a68     octarender.obj
 0003:00062a80       ?nextclip@@3PAUclipplanes@@A 004bca80     physics.obj
 0003:00062a88       ?physicsfraction@@3HA      004bca88     physics.obj
 0003:00062a8c       ?physicsrepeat@@3HA        004bca8c     physics.obj
 0003:00062a90       ?clienthost@@3PAU_ENetHost@@A 004bca90     client.obj
 0003:00062a94       ?connecting@@3HA           004bca94     client.obj
 0003:00062a98       ?connattempts@@3HA         004bca98     client.obj
 0003:00062a9c       ?disconnecting@@3HA        004bca9c     client.obj
 0003:00062aa0       ?lastupdate@@3HA           004bcaa0     client.obj
 0003:00062aa4       ?serverhost@@3PAU_ENetHost@@A 004bcaa4     server.obj
 0003:00062aa8       ?bsend@@3IA                004bcaa8     server.obj
 0003:00062aac       ?brec@@3IA                 004bcaac     server.obj
 0003:00062ab0       ?laststatus@@3HA           004bcab0     server.obj
 0003:00062ab4       ?nonlocalclients@@3HA      004bcab4     server.obj
 0003:00062ab8       ?updmaster@@3HA            004bcab8     server.obj
 0003:00062abc       ?uprate@@3HA               004bcabc     server.obj
 0003:00062ac0       ?master@@3PADA             004bcac0     server.obj
 0003:00062ac4       ?adminpass@@3PADA          004bcac4     server.obj
 0003:00062ac8       ?gamereg@@3PAU?$hashtable@PADPAUigame@@@@A 004bcac8     server.obj
 0003:00062acc       ?cl@@3PAUigameclient@@A    004bcacc     server.obj
 0003:00062ad0       ?sv@@3PAUigameserver@@A    004bcad0     server.obj
 0003:00062ad4       ?cc@@3PAUiclientcom@@A     004bcad4     server.obj
 0003:00062ad8       ?et@@3PAUicliententities@@A 004bcad8     server.obj
 0003:00062adc       ?lastinfo@@3HA             004bcadc     serverbrowser.obj
 0003:00062af0       ?skintex@gui@@2PAUTexture@@A 004bcaf0     3dgui.obj
 0003:00062af4       ?overlaytex@gui@@2PAUTexture@@A 004bcaf4     3dgui.obj
 0003:00062af8       ?slidertex@gui@@2PAUTexture@@A 004bcaf8     3dgui.obj
 0003:00062afc       ?expltex@@3PAUTexture@@A   004bcafc     renderextras.obj
 0003:00062b00       ?explshader@@3PAUShader@@A 004bcb00     renderextras.obj
 0003:00062b04       ?dblend@@3HA               004bcb04     renderextras.obj
 0003:00062b08       ?hasVBO@@3_NA              004bcb08     rendergl.obj
 0003:00062b09       ?hasOQ@@3_NA               004bcb09     rendergl.obj
 0003:00062b0a       ?hasTR@@3_NA               004bcb0a     rendergl.obj
 0003:00062b0b       ?hasFBO@@3_NA              004bcb0b     rendergl.obj
 0003:00062b0c       ?hasCM@@3_NA               004bcb0c     rendergl.obj
 0003:00062b0d       ?hasTC@@3_NA               004bcb0d     rendergl.obj
 0003:00062b0e       ?deathcam@@3_NA            004bcb0e     rendergl.obj
 0003:00062b0f       ?overrideidents@@3_NA      004bcb0f     command.obj
 0003:00062b10       ?glGenBuffers_@@3P6GXHPAI@ZA 004bcb10     rendergl.obj
 0003:00062b14       ?glBindBuffer_@@3P6GXII@ZA 004bcb14     rendergl.obj
 0003:00062b18       ?glMapBuffer_@@3P6GPAXII@ZA 004bcb18     rendergl.obj
 0003:00062b1c       ?glUnmapBuffer_@@3P6GEI@ZA 004bcb1c     rendergl.obj
 0003:00062b20       ?glBufferData_@@3P6GXIHPBXI@ZA 004bcb20     rendergl.obj
 0003:00062b24       ?glBufferSubData_@@3P6GXIHHPBX@ZA 004bcb24     rendergl.obj
 0003:00062b28       ?glDeleteBuffers_@@3P6GXHPBI@ZA 004bcb28     rendergl.obj
 0003:00062b2c       ?glActiveTexture_@@3P6GXI@ZA 004bcb2c     rendergl.obj
 0003:00062b30       ?glClientActiveTexture_@@3P6GXI@ZA 004bcb30     rendergl.obj
 0003:00062b34       ?glMultiTexCoord2f_@@3P6GXIMM@ZA 004bcb34     rendergl.obj
 0003:00062b38       ?glGenPrograms_@@3P6GXHPAI@ZA 004bcb38     rendergl.obj
 0003:00062b3c       ?glBindProgram_@@3P6GXII@ZA 004bcb3c     rendergl.obj
 0003:00062b40       ?glProgramString_@@3P6GXIIHPBX@ZA 004bcb40     rendergl.obj
 0003:00062b44       ?glProgramEnvParameter4f_@@3P6GXIIMMMM@ZA 004bcb44     rendergl.obj
 0003:00062b48       ?glProgramEnvParameter4fv_@@3P6GXIIPBM@ZA 004bcb48     rendergl.obj
 0003:00062b4c       ?glGenQueries_@@3P6GXHPAI@ZA 004bcb4c     rendergl.obj
 0003:00062b50       ?glDeleteQueries_@@3P6GXHPBI@ZA 004bcb50     rendergl.obj
 0003:00062b54       ?glBeginQuery_@@3P6GXII@ZA 004bcb54     rendergl.obj
 0003:00062b58       ?glEndQuery_@@3P6GXI@ZA    004bcb58     rendergl.obj
 0003:00062b5c       ?glGetQueryiv_@@3P6GXIIPAH@ZA 004bcb5c     rendergl.obj
 0003:00062b60       ?glGetQueryObjectiv_@@3P6GXIIPAH@ZA 004bcb60     rendergl.obj
 0003:00062b64       ?glGetQueryObjectuiv_@@3P6GXIIPAI@ZA 004bcb64     rendergl.obj
 0003:00062b68       ?glBindRenderbuffer_@@3P6GXII@ZA 004bcb68     rendergl.obj
 0003:00062b6c       ?glDeleteRenderbuffers_@@3P6GXHPBI@ZA 004bcb6c     rendergl.obj
 0003:00062b70       ?glGenRenderbuffers_@@3P6GXHPAI@ZA 004bcb70     rendergl.obj
 0003:00062b74       ?glRenderbufferStorage_@@3P6GXIIHH@ZA 004bcb74     rendergl.obj
 0003:00062b78       ?glCheckFramebufferStatus_@@3P6GII@ZA 004bcb78     rendergl.obj
 0003:00062b7c       ?glBindFramebuffer_@@3P6GXII@ZA 004bcb7c     rendergl.obj
 0003:00062b80       ?glDeleteFramebuffers_@@3P6GXHPBI@ZA 004bcb80     rendergl.obj
 0003:00062b84       ?glGenFramebuffers_@@3P6GXHPAI@ZA 004bcb84     rendergl.obj
 0003:00062b88       ?glFramebufferTexture2D_@@3P6GXIIIIH@ZA 004bcb88     rendergl.obj
 0003:00062b8c       ?glFramebufferRenderbuffer_@@3P6GXIIII@ZA 004bcb8c     rendergl.obj
 0003:00062b94       ?defaultshader@@3PAUShader@@A 004bcb94     rendergl.obj
 0003:00062b98       ?notextureshader@@3PAUShader@@A 004bcb98     rendergl.obj
 0003:00062b9c       ?nocolorshader@@3PAUShader@@A 004bcb9c     rendergl.obj
 0003:00062ba0       ?crosshair@@3PAUTexture@@A 004bcba0     rendergl.obj
 0003:00062ba4       ?curtexnum@@3HA            004bcba4     rendergl.obj
 0003:00062ba8       ?fsshader@@3PAUShader@@A   004bcba8     rendergl.obj
 0003:00062bac       ?scaleshader@@3PAUShader@@A 004bcbac     rendergl.obj
 0003:00062bb0       ?fs_w@@3HA                 004bcbb0     rendergl.obj
 0003:00062bb4       ?fs_h@@3HA                 004bcbb4     rendergl.obj
 0003:00062bb8       ?camera1@@3PAUphysent@@A   004bcbb8     rendergl.obj
 0003:00062bbc       ?loadingmodel@@3PAUmodel@@A 004bcbbc     rendermodel.obj
 0003:00062bc0       ?loadingmd2@@3PAUmd2@@A    004bcbc0     rendermodel.obj
 0003:00062bc4       ?loadingmd3@@3PAUmd3@@A    004bcbc4     rendermodel.obj
 0003:00062bc8       ?parempty@@3PAUparticle@@A 004bcbc8     renderparticles.obj
 0003:00062bcc       ?sky@@3PAPAUTexture@@A     004bcbcc     rendertext.obj
 0003:00062be4       ?watershader@@3PAUShader@@A 004bcbe4     water.obj
 0003:00062be8       ?waterreflectshader@@3PAUShader@@A 004bcbe8     water.obj
 0003:00062bec       ?waterrefractshader@@3PAUShader@@A 004bcbec     water.obj
 0003:00062bf0       ?reflectiondb@@3IA         004bcbf0     water.obj
 0003:00062bf4       ?rplanes@@3HA              004bcbf4     water.obj
 0003:00062bfc       ?reflecting@@3MA           004bcbfc     water.obj
 0003:00062c00       ?refracting@@3MA           004bcc00     water.obj
 0003:00062c08       ?idents@@3PAU?$hashtable@PADU?$tident@X@@@@A 004bcc08     command.obj
 0003:00062c10       ?commandret@@3PADA         004bcc10     command.obj
 0003:00062c14       ?completesize@@3HA         004bcc14     command.obj
 0003:00062c18       ?conskip@@3HA              004bcc18     console.obj
 0003:00062c1c       ?saycommandon@@3_NA        004bcc1c     console.obj
 0003:00062c1d       ?fullconsole@@3_NA         004bcc1d     console.obj
 0003:00062c1e       ?inbetweenframes@@3_NA     004bcc1e     main.obj
 0003:00062c20       ?keypressed@@3PAUkeym@@A   004bcc20     console.obj
 0003:00062c24       ?keyaction@@3PADA          004bcc24     console.obj
 0003:00062c28       ?histpos@@3HA              004bcc28     console.obj
 0003:00062c2c       ?screen@@3PAUSDL_Surface@@A 004bcc2c     main.obj
 0003:00062c30       ?lastmillis@@3HA           004bcc30     main.obj
 0003:00062c34       ?player@@3PAUdynent@@A     004bcc34     main.obj
 0003:00062c40       ?mod@@3PAU_Mix_Music@@A    004bcc40     sound.obj
 0003:00062c44       ?stream@@3PAXA             004bcc44     sound.obj
 0003:00062c48       ?musicdonecmd@@3PADA       004bcc48     sound.obj
 0003:00062c4c       ?soundsatonce@@3HA         004bcc4c     sound.obj
 0003:00062c50       ?lastsoundmillis@@3HA      004bcc50     sound.obj
 0003:00062c54       ?importcuberemip@@3HA      004bcc54     cubeloader.obj
 0003:00062c5c       ?lightprecision@@3HA       004bcc5c     lightmap.obj
 0003:00062c60       ?lighterror@@3HA           004bcc60     lightmap.obj
 0003:00062c64       ?bumperror@@3HA            004bcc64     lightmap.obj
 0003:00062c68       ?lightlod@@3HA             004bcc68     lightmap.obj
 0003:00062c6c       ?worldlod@@3HA             004bcc6c     lightmap.obj
 0003:00062c70       ?ambient@@3HA              004bcc70     lightmap.obj
 0003:00062c74       ?lightcompress@@3HA        004bcc74     lightmap.obj
 0003:00092c78       ?edgetolerance@@3HA        004ecc78     lightmap.obj
 0003:00092c7c       ?adaptivesample@@3HA       004ecc7c     lightmap.obj
 0003:00097c80       ?lightcachesize@@3HA       004f1c80     lightmap.obj
 0003:00097c84       ?fullbright@@3HA           004f1c84     lightmap.obj
 0003:00097c88       ?convertlms@@3HA           004f1c88     lightmap.obj
 0003:00097c8c       ?lerpsubdivsize@@3HA       004f1c8c     normal.obj
 0003:00097c90       ?lerpsubdiv@@3HA           004f1c90     normal.obj
 0003:00097c94       ?lerpangle@@3HA            004f1c94     normal.obj
 0003:00097c98       ?worldroot@@3PAUcube@@A    004f1c98     octa.obj
 0003:00097ca0       ?lu@@3Uivec@@A             004f1ca0     octa.obj
 0003:00097cac       ?mipvis@@3HA               004f1cac     octa.obj
 0003:00097cb0       ?minface@@3HA              004f1cb0     octa.obj
 0003:00097cb4       ?maxmerge@@3HA             004f1cb4     octa.obj
 0003:00097cb8       ?sel@@3Uselinfo@@A         004f1cb8     octaedit.obj
 0003:00097cec       ?lastsel@@3Uselinfo@@A     004f1cec     octaedit.obj
 0003:00097d20       ?cor@@3Uivec@@A            004f1d20     octaedit.obj
 0003:00097d2c       ?lastcor@@3Uivec@@A        004f1d2c     octaedit.obj
 0003:00097d38       ?cur@@3Uivec@@A            004f1d38     octaedit.obj
 0003:00097d44       ?lastcur@@3Uivec@@A        004f1d44     octaedit.obj
 0003:00097d50       ?dragging@@3HA             004f1d50     octaedit.obj
 0003:00097d54       ?selectcorners@@3HA        004f1d54     octaedit.obj
 0003:00097d58       ?moving@@3HA               004f1d58     octaedit.obj
 0003:00097d5c       ?gridpower@@3HA            004f1d5c     octaedit.obj
 0003:00097d60       ?passthroughcube@@3HA      004f1d60     octaedit.obj
 0003:00097d64       ?passthroughsel@@3HA       004f1d64     octaedit.obj
 0003:00097d68       ?editing@@3HA              004f1d68     octaedit.obj
 0003:00097d74       ?origin@@3Uivec@@A         004f1d74     octaedit.obj
 0003:00097d80       ?icom_havesel@@3Ucmd_havesel@@A 004f1d80     octaedit.obj
 0003:00097dac       ?undomegs@@3HA             004f1dac     octaedit.obj
 0003:00097db4       ?brushx@@3HA               004f1db4     octaedit.obj
 0003:00097db8       ?brushy@@3HA               004f1db8     octaedit.obj
 0003:00097dc0       ?invalidcubeguard@@3HA     004f1dc0     octaedit.obj
 0003:00097dc8       ?repsel@@3Uselinfo@@A      004f1dc8     octaedit.obj
 0003:00097dfc       ?allfaces@@3HA             004f1dfc     octaedit.obj
 0003:00097e04       ?showcstats@@3HA           004f1e04     octarender.obj
 0003:00097e08       ?floatvtx@@3HA             004f1e08     octarender.obj
 0003:00097e0c       ?printvbo@@3HA             004f1e0c     octarender.obj
 0003:00097e10       ?vbosize@@3HA              004f1e10     octarender.obj
 0003:00097e8c       ?lodsize@@3HA              004f1e8c     octarender.obj
 0003:00097e90       ?l0@@3Ulodcollect@@A       004f1e90     octarender.obj
 0003:00097ee0       ?l1@@3Ulodcollect@@A       004f1ee0     octarender.obj
 0003:00097f30       ?loddistance@@3HA          004f1f30     octarender.obj
 0003:00097f40       ?skyfaces@@3PAY01U?$vector@Ucubeface@@@@A 004f1f40     octarender.obj
 0003:00097fdc       ?vacubemax@@3HA            004f1fdc     octarender.obj
 0003:00097fe0       ?vacubesize@@3HA           004f1fe0     octarender.obj
 0003:00097fe4       ?vacubemin@@3HA            004f1fe4     octarender.obj
 0003:00097ff0       ?vfcP@@3PAUplane@@A        004f1ff0     octarender.obj
 0003:00098040       ?oldvfcP@@3PAUplane@@A     004f2040     octarender.obj
 0003:0009809c       ?oqfrags@@3HA              004f209c     octarender.obj
 0003:000980a0       ?oqreflect@@3HA            004f20a0     octarender.obj
 0003:000980a4       ?oqmm@@3HA                 004f20a4     octarender.obj
 0003:000980a8       ?outline@@3HA              004f20a8     octarender.obj
 0003:000980ac       ?oqdist@@3HA               004f20ac     octarender.obj
 0003:000980b0       ?zpass@@3HA                004f20b0     octarender.obj
 0003:000980b4       ?wall@@3Uvec@@A            004f20b4     physics.obj
 0003:000980c0       ?clipcache@@3PAUclipplanes@@A 004f20c0     physics.obj
 0003:000d6b00       ?dynentsize@@3HA           00530b00     physics.obj
 0003:000d6b08       ?maxroll@@3HA              00530b08     physics.obj
 0003:000d6b0c       ?minframetime@@3HA         00530b0c     physics.obj
 0003:000d6b10       ?icom_backward@@3Ucmd_backward@@A 00530b10     physics.obj
 0003:000d6b3c       ?icom_forward@@3Ucmd_forward@@A 00530b3c     physics.obj
 0003:000d6b68       ?icom_left@@3Ucmd_left@@A  00530b68     physics.obj
 0003:000d6b94       ?icom_right@@3Ucmd_right@@A 00530b94     physics.obj
 0003:000d6bc0       ?icom_jump@@3Ucmd_jump@@A  00530bc0     physics.obj
 0003:000d6bec       ?icom_attack@@3Ucmd_attack@@A 00530bec     physics.obj
 0003:000d6c18       ?sensitivity@@3HA          00530c18     physics.obj
 0003:000d6c1c       ?sensitivityscale@@3HA     00530c1c     physics.obj
 0003:000d6c20       ?invmouse@@3HA             00530c20     physics.obj
 0003:000d6c24       ?octaentsize@@3HA          00530c24     world.obj
 0003:000d6c28       ?entselradius@@3HA         00530c28     world.obj
 0003:000d6c2c       ?entselsnap@@3HA           00530c2c     world.obj
 0003:000d6c30       ?entmoving@@3HA            00530c30     world.obj
 0003:000d6c38       ?entdrop@@3HA              00530c38     world.obj
 0003:000d6c40       ?icom_enthavesel@@3Ucmd_enthavesel@@A 00530c40     world.obj
 0003:000d6c6c       ?icom_entselect@@3Ucmd_entselect@@A 00530c6c     world.obj
 0003:000d6c98       ?icom_entloop@@3Ucmd_entloop@@A 00530c98     world.obj
 0003:000d6cc4       ?icom_insel@@3Ucmd_insel@@A 00530cc4     world.obj
 0003:000d6cf0       ?icom_entget@@3Ucmd_entget@@A 00530cf0     world.obj
 0003:000d6d20       ?triggerstate@@3HA         00530d20     world.obj
 0003:000d6d24       ?savebak@@3HA              00530d24     worldio.obj
 0003:000d6d2c       ?throttle_interval@@3HA    00530d2c     client.obj
 0003:000d6d30       ?throttle_decel@@3HA       00530d30     client.obj
 0003:000d6d34       ?rate@@3HA                 00530d34     client.obj
 0003:000d6d3c       ?throttle_accel@@3HA       00530d3c     client.obj
 0003:000d6d40       ?base@ecjacobian@@2U1@B    00530d40     crypto.obj
 0003:000d6da8       ?origin@ecjacobian@@2U1@B  00530da8     crypto.obj
 0003:000d6e08       ?P@gfield@@2U1@B           00530e08     crypto.obj
 0003:000d6e28       ?B@ecjacobian@@2Ugfield@@B 00530e28     crypto.obj
 0003:000d6e4c       ?guiautotab@@3HA           00530e4c     3dgui.obj
 0003:000d6e50       ?light@gui@@2Uvec@@A       00530e50     3dgui.obj
 0003:000d6e60       ?damagespherefactor@@3HA   00530e60     renderextras.obj
 0003:000d6e64       ?worldpos@@3Uvec@@A        00530e64     renderextras.obj
 0003:000d6e70       ?camright@@3Uvec@@A        00530e70     renderextras.obj
 0003:000d6e7c       ?camup@@3Uvec@@A           00530e7c     renderextras.obj
 0003:000d6e88       ?crosshairsize@@3HA        00530e88     renderextras.obj
 0003:000d6e8c       ?cursorsize@@3HA           00530e8c     renderextras.obj
 0003:000d6e90       ?damageblendfactor@@3HA    00530e90     renderextras.obj
 0003:000d6e94       ?hidestats@@3HA            00530e94     renderextras.obj
 0003:000d6e98       ?hidehud@@3HA              00530e98     renderextras.obj
 0003:000d6e9c       ?crosshairfx@@3HA          00530e9c     renderextras.obj
 0003:000d6ea0       ?shaderdetail@@3HA         00530ea0     rendergl.obj
 0003:000d6eac       ?shaderprecision@@3HA      00530eac     rendergl.obj
 0003:000d6eb0       ?ati_skybox_bug@@3HA       00530eb0     rendergl.obj
 0003:000d6eb4       ?ati_texgen_bug@@3HA       00530eb4     rendergl.obj
 0003:000d6eb8       ?ati_oq_bug@@3HA           00530eb8     rendergl.obj
 0003:000d6ebc       ?nvidia_texgen_bug@@3HA    00530ebc     rendergl.obj
 0003:000d6ec0       ?maxtexsize@@3HA           00530ec0     rendergl.obj
 0003:000d6ec4       ?mintexcompresssize@@3HA   00530ec4     rendergl.obj
 0003:000d6ec8       ?materialslots@@3PAUSlot@@A 00530ec8     rendergl.obj
 0003:000d6f68       ?wireframe@@3HA            00530f68     rendergl.obj
 0003:000d6f6c       ?fov@@3HA                  00530f6c     rendergl.obj
 0003:000d6f70       ?fog@@3HA                  00530f70     rendergl.obj
 0003:000d6f74       ?fogcolour@@3HA            00530f74     rendergl.obj
 0003:000d6f78       ?sparklyfix@@3HA           00530f78     rendergl.obj
 0003:000d6f7c       ?showsky@@3HA              00530f7c     rendergl.obj
 0003:000d6f84       ?thirdperson@@3HA          00530f84     rendergl.obj
 0003:000d6f88       ?thirdpersondistance@@3HA  00530f88     rendergl.obj
 0003:000d6f8c       ?reflectclip@@3HA          00530f8c     rendergl.obj
 0003:000d6f90       ?reflectmms@@3HA           00530f90     rendergl.obj
 0003:000d6f94       ?hudgunfov@@3HA            00530f94     rendergl.obj
 0003:000d6fa0       ?animationinterpolationtime@@3HA 00530fa0     rendermodel.obj
 0003:000d6fa8       ?tsswap@@3HA               00530fa8     rendermodel.obj
 0003:000d6fac       ?showboundingbox@@3HA      00530fac     rendermodel.obj
 0003:000d6fb4       ?dbgts@@3HA                00530fb4     rendermodel.obj
 0003:000d6fb8       ?maxmodelradiusdistance@@3HA 00530fb8     rendermodel.obj
 0003:000d6fc0       ?particlesize@@3HA         00530fc0     renderparticles.obj
 0003:000d6fc4       ?maxparticledistance@@3HA  00530fc4     renderparticles.obj
 0003:000d6fc8       ?particletext@@3HA         00530fc8     renderparticles.obj
 0003:000d6fd0       ?watersubdiv@@3HA          00530fd0     water.obj
 0003:000d6fd4       ?waterlod@@3HA             00530fd4     water.obj
 0003:000d6fd8       ?waterreflect@@3HA         00530fd8     water.obj
 0003:000d6fdc       ?waterrefract@@3HA         00530fdc     water.obj
 0003:000d6fe0       ?reflectdist@@3HA          00530fe0     water.obj
 0003:000d6fe4       ?waterfog@@3HA             00530fe4     water.obj
 0003:000d6fe8       ?waterspec@@3HA            00530fe8     water.obj
 0003:000d6fec       ?oqwater@@3HA              00530fec     water.obj
 0003:000d6ff0       ?reflections@@3PAUReflection@@A 00530ff0     water.obj
 0003:000d76b0       ?reflectsize@@3HA          005316b0     water.obj
 0003:000d76b4       ?reflectfps@@3HA           005316b4     water.obj
 0003:000d76b8       ?maxreflect@@3HA           005316b8     water.obj
 0003:000d76bc       ?maskreflect@@3HA          005316bc     water.obj
 0003:000d76c0       ?showmat@@3HA              005316c0     water.obj
 0003:000d76d0       ?glassenv@@3HA             005316d0     water.obj
 0003:000d76d4       ?optmats@@3HA              005316d4     water.obj
 0003:000d76d8       ?envmapsize@@3HA           005316d8     water.obj
 0003:000d76dc       ?envmapradius@@3HA         005316dc     water.obj
 0003:000d76e0       ?aaenvmap@@3HA             005316e0     water.obj
 0003:000d76e8       ?_numargs@@3HA             005316e8     command.obj
 0003:000d76f0       ?icom_if@@3Ucmd_if@@A      005316f0     command.obj
 0003:000d771c       ?icom_loop@@3Ucmd_loop@@A  0053171c     command.obj
 0003:000d7748       ?icom_while@@3Ucmd_while@@A 00531748     command.obj
 0003:000d778c       ?icom_echo@@3Ucmd_echo@@A  0053178c     command.obj
 0003:000d77c4       ?fullscreen@@3HA           005317c4     main.obj
 0003:000d77c8       ?gamma@@3HA                005317c8     main.obj
 0003:000d77cc       ?gamespeed@@3HA            005317cc     main.obj
 0003:000d77d4       ?paused@@3HA               005317d4     main.obj
 0003:000d77d8       ?maxfps@@3HA               005317d8     main.obj
 0003:000d7800       ?menudistance@@3HA         00531800     menus.obj
 0003:000d7814       ?soundvol@@3HA             00531814     sound.obj
 0003:000d7818       ?soundlocs@@3PAUsoundloc@@A 00531818     sound.obj
 0003:000d7a98       ?musicvol@@3HA             00531a98     sound.obj
 0003:000d7a9c       ?soundbufferlen@@3HA       00531a9c     sound.obj
 0003:000d7aa0       ?stereo@@3HA               00531aa0     sound.obj
 0003:000d7ab4       ?init@?1??hash@tiger@@SAXPBEHAAThashval@2@@Z@4_NA 00531ab4     crypto.obj
 0003:000d7ac4       ?modelshader@?7??setshader@model@@QAEXXZ@4PAUShader@@A 00531ac4     rendermodel.obj
 0003:000d7ac8       ?modelshadernospec@?7??setshader@model@@QAEXXZ@4PAUShader@@A 00531ac8     rendermodel.obj
 0003:000d7acc       ?modelshadermasks@?7??setshader@model@@QAEXXZ@4PAUShader@@A 00531acc     rendermodel.obj
 0003:000d7bf8       ?lastteleport@?O@??pickup@entities@fpsclient@@QAEXHPAUfpsent@@@Z@4HA 00531bf8     fps.obj
 0003:000d7bfc       ?lastjumppad@?BD@??pickup@entities@fpsclient@@QAEXHPAUfpsent@@@Z@4HA 00531bfc     fps.obj
 0003:000d7c00       ?overreadval@?1??get@?$databuf@E@@QAEABEXZ@4EA 00531c00     server.obj
 0003:000d7c08       ?pkt@?2??buildworldstate@fpsserver@@QAE_NXZ@4PAU<unnamed-tag>@?1??12@QAE_NXZ@A 00531c08     fps.obj
 0003:000d8808       ?buf@?L@??addmsg@clientcom@fpsclient@@QAAXHPBDZZ@4PAEA 00532808     fps.obj
 0003:000d9c94       ?Psub1div2@?1???$legendre@$0N@@gfield@@SAHABU?$bigint@$0N@@@@Z@4U2@B 00533c94     crypto.obj
 0003:000d9cb4       ??_B?1???$legendre@$0N@@gfield@@SAHABU?$bigint@$0N@@@@Z@51 00533cb4     crypto.obj
 0003:000d9cb8       ?Padd1div4@?7??sqrt@gfield@@QAE_NABU2@@Z@4U?$bigint@$0N@@@B 00533cb8     crypto.obj
 0003:000d9cd8       ??_B?7??sqrt@gfield@@QAE_NABU1@@Z@57 00533cd8     crypto.obj
 0003:0019ceb0       ?text@?1??parsemessages@clientcom@fpsclient@@QAEXHPAUfpsent@@AAU?$databuf@E@@@Z@4PADA 005f6eb0     fps.obj
 0003:0019e238       ___sse2_available          005f8238     <common>
 0003:0019e23c       __adjust_fdiv              005f823c     <common>
 0003:0019e240       ___native_startup_state    005f8240     <common>
 0003:0019e244       ___native_startup_lock     005f8244     <common>
 0003:0019e248       ___dyn_tls_init_callback   005f8248     <common>
 0003:0019e24c       ___onexitend               005f824c     <common>
 0003:0019e250       ___onexitbegin             005f8250     <common>

 entry point at        0001:00047337

 Static symbols

 0001:00001622       ?htcmp@@YA_NABUcompresskey@@0@Z 00402622 f    CIL library: CIL module
 0001:00002e9b       ?addlight@@YAXABUentity@@HHHHQAUplane@@H@Z 00403e9b f    CIL library: CIL module
 0001:000043b6       ?calclight_timer@@YAIIPAX@Z 004053b6 f    CIL library: CIL module
 0001:00004a71       ?find_unlit@@YAXH@Z        00405a71 f    CIL library: CIL module
 0001:00008d6e       ?mergefacecmp@@YAHPBUcubeface@@0@Z 00409d6e f    CIL library: CIL module
 0001:00008da7       ?mergefacev@@YAHHPAUcubeface@@HAAU1@@Z 00409da7 f    CIL library: CIL module
 0001:00008e6a       ?mergeface@@YAHHPAUcubeface@@HAAU1@@Z 00409e6a f    CIL library: CIL module
 0001:0000d166       ?getmaterial@@YAEAAUcube@@@Z 0040e166 f    CIL library: CIL module
 0001:00014099       ?pushvec@@YAXAAUvec@@ABU1@M@Z 00415099 f    CIL library: CIL module
 0001:00014285       ?disttoent@@YAMPAUoctaentities@@0ABUvec@@1MHPAUextentity@@@Z 00415285 f    CIL library: CIL module
 0001:00017dc4       ?modifyoctaent@@YAX_NH@Z   00418dc4 f    CIL library: CIL module
 0001:0001c75b       ?parsedigits@@YAHPAGHPBD@Z 0041d75b f    CIL library: CIL module
 0001:0001c807       ?printdigits@@YAXPBGHPAU_iobuf@@@Z 0041d807 f    CIL library: CIL module
 0001:000212bf       _enet_peer_reset_outgoing_commands 004222bf f    CIL library: CIL module
 0001:00021301       _enet_peer_reset_incoming_commands 00422301 f    CIL library: CIL module
 0001:0002186e       _enet_protocol_dispatch_incoming_commands 0042286e f    CIL library: CIL module
 0001:0002195e       _enet_protocol_notify_connect 0042295e f    CIL library: CIL module
 0001:00021984       _enet_protocol_notify_disconnect 00422984 f    CIL library: CIL module
 0001:000219b7       _enet_protocol_remove_sent_reliable_command 004229b7 f    CIL library: CIL module
 0001:00021a53       _enet_protocol_handle_connect 00422a53 f    CIL library: CIL module
 0001:00021cd3       _enet_protocol_handle_send_reliable 00422cd3 f    CIL library: CIL module
 0001:00021d41       _enet_protocol_handle_send_unsequenced 00422d41 f    CIL library: CIL module
 0001:00021e50       _enet_protocol_handle_send_unreliable 00422e50 f    CIL library: CIL module
 0001:00021ebe       _enet_protocol_handle_send_fragment 00422ebe f    CIL library: CIL module
 0001:000220a4       _enet_protocol_handle_bandwidth_limit 004230a4 f    CIL library: CIL module
 0001:00022116       _enet_protocol_handle_disconnect 00423116 f    CIL library: CIL module
 0001:00022175       _enet_protocol_handle_acknowledge 00423175 f    CIL library: CIL module
 0001:00022324       _enet_protocol_handle_verify_connect 00423324 f    CIL library: CIL module
 0001:0002241b       _enet_protocol_handle_incoming_commands 0042341b f    CIL library: CIL module
 0001:000226df       _enet_protocol_send_acknowledgements 004236df f    CIL library: CIL module
 0001:000227fa       _enet_protocol_send_unreliable_outgoing_commands 004237fa f    CIL library: CIL module
 0001:00022a04       _enet_protocol_check_timeouts 00423a04 f    CIL library: CIL module
 0001:00022b14       _enet_protocol_send_reliable_outgoing_commands 00423b14 f    CIL library: CIL module
 0001:00022ce9       _enet_protocol_send_outgoing_commands 00423ce9 f    CIL library: CIL module
 0001:00026fc7       ?newtexture@@YAPAUTexture@@PBDPAUSDL_Surface@@_N2@Z 00427fc7 f    CIL library: CIL module
 0001:000270ca       ?texturedata@@YAPAUSDL_Surface@@PBDPAUTex@Slot@@_N@Z 004280ca f    CIL library: CIL module
 0001:00027715       ?findtextype@@YAHAAUSlot@@HH@Z 00428715 f    CIL library: CIL module
 0001:00027750       ?addglow@@YAXPAUSDL_Surface@@0AAUSlot@@@Z 00428750 f    CIL library: CIL module
 0001:00027840       ?addbump@@YAXPAUSDL_Surface@@0@Z 00428840 f    CIL library: CIL module
 0001:000278ec       ?blenddecal@@YAXPAUSDL_Surface@@0@Z 004288ec f    CIL library: CIL module
 0001:000279b3       ?mergespec@@YAXPAUSDL_Surface@@0@Z 004289b3 f    CIL library: CIL module
 0001:00027a3d       ?mergedepth@@YAXPAUSDL_Surface@@0@Z 00428a3d f    CIL library: CIL module
 0001:00027ab7       ?addname@@YAXAAU?$vector@D@@AAUSlot@@AAUTex@2@@Z 00428ab7 f    CIL library: CIL module
 0001:00027c41       ?texcombine@@YAXAAUSlot@@HAAUTex@1@_N@Z 00428c41 f    CIL library: CIL module
 0001:00029010       ?setfog@@YAX_N@Z           0042a010 f    CIL library: CIL module
 0001:0002fd5c       ?raytriintersect@@YA_NABUvec@@0MABUtriangle@@AAM@Z 00430d5c f    CIL library: CIL module
 0001:000302d8       ?yawray@@YAXAAUvec@@0M@Z   004312d8 f    CIL library: CIL module
 0001:00030581       ?vertw@@YAXMMMMMM@Z        00431581 f    CIL library: CIL module
 0001:00030627       ?dx@@YAMM@Z                00431627 f    CIL library: CIL module
 0001:0003065f       ?dy@@YAMM@Z                0043165f f    CIL library: CIL module
 0001:000321da       ?vismatcmp@@YAHPAPBUmaterialsurface@@0@Z 004331da f    CIL library: CIL module
 0001:00032e0c       ?mergematcmp@@YAHPBUmaterialsurface@@0@Z 00433e0c f    CIL library: CIL module
 0001:00032e6d       ?mergematr@@YAHPAUmaterialsurface@@HAAU1@@Z 00433e6d f    CIL library: CIL module
 0001:00032f4d       ?mergemat@@YAHPAUmaterialsurface@@HAAU1@@Z 00433f4d f    CIL library: CIL module
 0001:00032ffa       ?optmatcmp@@YAHPBUmaterialsurface@@0@Z 00433ffa f    CIL library: CIL module
 0001:00037d98       ?updateval@@YAXPADH0@Z     00438d98 f    CIL library: CIL module
 0001:00037e40       ?getval@@YAHPAD@Z          00438e40 f    CIL library: CIL module
 0001:00047094       _pre_cpp_init              00448094 f   msvcrt:crtexe.obj
 0001:000470df       ___tmainCRTStartup         004480df f   msvcrt:crtexe.obj
 0001:00047255       _pre_c_init                00448255 f   msvcrt:crtexe.obj
 0001:00047830       _ShowError                 00448830 f   SDLmain:SDL_win32_main.obj
 0001:00047860       _OutOfMemory               00448860 f   SDLmain:SDL_win32_main.obj
 0001:00047880       _cleanup                   00448880 f   SDLmain:SDL_win32_main.obj
 0001:00047890       _cleanup_output            00448890 f   SDLmain:SDL_win32_main.obj
 0001:00047c36       _has_osfxsr_set            00448c36 f   msvcrt:cpu_disp.obj
 0001:00047cf3       __unwindfunclet$??1cmd_map@?1???0rpgclient@@QAE@XZ@UAE@XZ$0 00448cf3 f    CIL library: CIL module
 0001:00047cf3       __unwindfunclet$??1cmd_showinventory@?2???0rpgclient@@QAE@XZ@UAE@XZ$0 00448cf3 f    CIL library: CIL module
 0001:00047cfb       __ehhandler$??1cmd_map@?1???0rpgclient@@QAE@XZ@UAE@XZ 00448cfb f    CIL library: CIL module
 0001:00047cfb       __ehhandler$??1cmd_showinventory@?2???0rpgclient@@QAE@XZ@UAE@XZ 00448cfb f    CIL library: CIL module
 0001:00047d05       __unwindfunclet$??1cmd_r_stat@?N@???0rpgobjset@rpgclient@@QAE@AAU2@@Z@UAE@XZ$0 00448d05 f    CIL library: CIL module
 0001:00047d05       __unwindfunclet$??1cmd_r_say@?6???0rpgobjset@rpgclient@@QAE@AAU2@@Z@UAE@XZ$0 00448d05 f    CIL library: CIL module
 0001:00047d05       __unwindfunclet$??1cmd_r_gold@?M@???0rpgobjset@rpgclient@@QAE@AAU2@@Z@UAE@XZ$0 00448d05 f    CIL library: CIL module
 0001:00047d05       __unwindfunclet$??1cmd_r_pop@?4???0rpgobjset@rpgclient@@QAE@AAU2@@Z@UAE@XZ$0 00448d05 f    CIL library: CIL module
 0001:00047d05       __unwindfunclet$??1cmd_r_worth@?L@???0rpgobjset@rpgclient@@QAE@AAU2@@Z@UAE@XZ$0 00448d05 f    CIL library: CIL module
 0001:00047d05       __unwindfunclet$??1cmd_r_contain@?3???0rpgobjset@rpgclient@@QAE@AAU2@@Z@UAE@XZ$0 00448d05 f    CIL library: CIL module
 0001:00047d05       __unwindfunclet$??1cmd_r_action@?7???0rpgobjset@rpgclient@@QAE@AAU2@@Z@UAE@XZ$0 00448d05 f    CIL library: CIL module
 0001:00047d05       __unwindfunclet$??1cmd_r_model@?1???0rpgobjset@rpgclient@@QAE@AAU2@@Z@UAE@XZ$0 00448d05 f    CIL library: CIL module
 0001:00047d05       __unwindfunclet$??1cmd_r_take@?8???0rpgobjset@rpgclient@@QAE@AAU2@@Z@UAE@XZ$0 00448d05 f    CIL library: CIL module
 0001:00047d05       __unwindfunclet$??1cmd_r_spawn@?2???0rpgobjset@rpgclient@@QAE@AAU2@@Z@UAE@XZ$0 00448d05 f    CIL library: CIL module
 0001:00047d05       __unwindfunclet$??1cmd_r_give@?9???0rpgobjset@rpgclient@@QAE@AAU2@@Z@UAE@XZ$0 00448d05 f    CIL library: CIL module
 0001:00047d05       __unwindfunclet$??1cmd_r_ai@?5???0rpgobjset@rpgclient@@QAE@AAU2@@Z@UAE@XZ$0 00448d05 f    CIL library: CIL module
 0001:00047d0d       __ehhandler$??1cmd_r_give@?9???0rpgobjset@rpgclient@@QAE@AAU2@@Z@UAE@XZ 00448d0d f    CIL library: CIL module
 0001:00047d0d       __ehhandler$??1cmd_r_spawn@?2???0rpgobjset@rpgclient@@QAE@AAU2@@Z@UAE@XZ 00448d0d f    CIL library: CIL module
 0001:00047d0d       __ehhandler$??1cmd_r_take@?8???0rpgobjset@rpgclient@@QAE@AAU2@@Z@UAE@XZ 00448d0d f    CIL library: CIL module
 0001:00047d0d       __ehhandler$??1cmd_r_worth@?L@???0rpgobjset@rpgclient@@QAE@AAU2@@Z@UAE@XZ 00448d0d f    CIL library: CIL module
 0001:00047d0d       __ehhandler$??1cmd_r_action@?7???0rpgobjset@rpgclient@@QAE@AAU2@@Z@UAE@XZ 00448d0d f    CIL library: CIL module
 0001:00047d0d       __ehhandler$??1cmd_r_model@?1???0rpgobjset@rpgclient@@QAE@AAU2@@Z@UAE@XZ 00448d0d f    CIL library: CIL module
 0001:00047d0d       __ehhandler$??1cmd_r_pop@?4???0rpgobjset@rpgclient@@QAE@AAU2@@Z@UAE@XZ 00448d0d f    CIL library: CIL module
 0001:00047d0d       __ehhandler$??1cmd_r_gold@?M@???0rpgobjset@rpgclient@@QAE@AAU2@@Z@UAE@XZ 00448d0d f    CIL library: CIL module
 0001:00047d0d       __ehhandler$??1cmd_r_ai@?5???0rpgobjset@rpgclient@@QAE@AAU2@@Z@UAE@XZ 00448d0d f    CIL library: CIL module
 0001:00047d0d       __ehhandler$??1cmd_r_stat@?N@???0rpgobjset@rpgclient@@QAE@AAU2@@Z@UAE@XZ 00448d0d f    CIL library: CIL module
 0001:00047d0d       __ehhandler$??1cmd_r_say@?6???0rpgobjset@rpgclient@@QAE@AAU2@@Z@UAE@XZ 00448d0d f    CIL library: CIL module
 0001:00047d0d       __ehhandler$??1cmd_r_contain@?3???0rpgobjset@rpgclient@@QAE@AAU2@@Z@UAE@XZ 00448d0d f    CIL library: CIL module
 0001:00047d17       __unwindfunclet$??1cmd_spawnname@?1???0rpgentities@rpgclient@@QAE@AAU2@@Z@UAE@XZ$0 00448d17 f    CIL library: CIL module
 0001:00047d1f       __ehhandler$??1cmd_spawnname@?1???0rpgentities@rpgclient@@QAE@AAU2@@Z@UAE@XZ 00448d1f f    CIL library: CIL module
 0001:00047d29       __unwindfunclet$??1cmd_kill@?2???0fpsclient@@QAE@XZ@UAE@XZ$0 00448d29 f    CIL library: CIL module
 0001:00047d29       __unwindfunclet$??1cmd_mode@?1???0fpsclient@@QAE@XZ@UAE@XZ$0 00448d29 f    CIL library: CIL module
 0001:00047d31       __ehhandler$??1cmd_kill@?2???0fpsclient@@QAE@XZ@UAE@XZ 00448d31 f    CIL library: CIL module
 0001:00047d31       __ehhandler$??1cmd_mode@?1???0fpsclient@@QAE@XZ@UAE@XZ 00448d31 f    CIL library: CIL module
 0001:00047d3b       __unwindfunclet$??1cmd_repammo@?1???0captureclient@fpsclient@@QAE@AAU2@@Z@UAE@XZ$0 00448d3b f    CIL library: CIL module
 0001:00047d43       __ehhandler$??1cmd_repammo@?1???0captureclient@fpsclient@@QAE@AAU2@@Z@UAE@XZ 00448d43 f    CIL library: CIL module
 0001:00047d4d       __unwindfunclet$??1cmd_map@?4???0clientcom@fpsclient@@QAE@AAU2@@Z@UAE@XZ$0 00448d4d f    CIL library: CIL module
 0001:00047d4d       __unwindfunclet$??1cmd_getmap@?L@???0clientcom@fpsclient@@QAE@AAU2@@Z@UAE@XZ$0 00448d4d f    CIL library: CIL module
 0001:00047d4d       __unwindfunclet$??1cmd_kick@?5???0clientcom@fpsclient@@QAE@AAU2@@Z@UAE@XZ$0 00448d4d f    CIL library: CIL module
 0001:00047d4d       __unwindfunclet$??1cmd_setteam@?9???0clientcom@fpsclient@@QAE@AAU2@@Z@UAE@XZ$0 00448d4d f    CIL library: CIL module
 0001:00047d4d       __unwindfunclet$??1cmd_say@?1???0clientcom@fpsclient@@QAE@AAU2@@Z@UAE@XZ$0 00448d4d f    CIL library: CIL module
 0001:00047d4d       __unwindfunclet$??1cmd_team@?3???0clientcom@fpsclient@@QAE@AAU2@@Z@UAE@XZ$0 00448d4d f    CIL library: CIL module
 0001:00047d4d       __unwindfunclet$??1cmd_mastermode@?7???0clientcom@fpsclient@@QAE@AAU2@@Z@UAE@XZ$0 00448d4d f    CIL library: CIL module
 0001:00047d4d       __unwindfunclet$??1cmd_setmaster@?8???0clientcom@fpsclient@@QAE@AAU2@@Z@UAE@XZ$0 00448d4d f    CIL library: CIL module
 0001:00047d4d       __unwindfunclet$??1cmd_name@?2???0clientcom@fpsclient@@QAE@AAU2@@Z@UAE@XZ$0 00448d4d f    CIL library: CIL module
 0001:00047d4d       __unwindfunclet$??1cmd_sendmap@?M@???0clientcom@fpsclient@@QAE@AAU2@@Z@UAE@XZ$0 00448d4d f    CIL library: CIL module
 0001:00047d4d       __unwindfunclet$??1cmd_spectator@?6???0clientcom@fpsclient@@QAE@AAU2@@Z@UAE@XZ$0 00448d4d f    CIL library: CIL module
 0001:00047d55       __ehhandler$??1cmd_team@?3???0clientcom@fpsclient@@QAE@AAU2@@Z@UAE@XZ 00448d55 f    CIL library: CIL module
 0001:00047d55       __ehhandler$??1cmd_sendmap@?M@???0clientcom@fpsclient@@QAE@AAU2@@Z@UAE@XZ 00448d55 f    CIL library: CIL module
 0001:00047d55       __ehhandler$??1cmd_mastermode@?7???0clientcom@fpsclient@@QAE@AAU2@@Z@UAE@XZ 00448d55 f    CIL library: CIL module
 0001:00047d55       __ehhandler$??1cmd_spectator@?6???0clientcom@fpsclient@@QAE@AAU2@@Z@UAE@XZ 00448d55 f    CIL library: CIL module
 0001:00047d55       __ehhandler$??1cmd_getmap@?L@???0clientcom@fpsclient@@QAE@AAU2@@Z@UAE@XZ 00448d55 f    CIL library: CIL module
 0001:00047d55       __ehhandler$??1cmd_say@?1???0clientcom@fpsclient@@QAE@AAU2@@Z@UAE@XZ 00448d55 f    CIL library: CIL module
 0001:00047d55       __ehhandler$??1cmd_setteam@?9???0clientcom@fpsclient@@QAE@AAU2@@Z@UAE@XZ 00448d55 f    CIL library: CIL module
 0001:00047d55       __ehhandler$??1cmd_name@?2???0clientcom@fpsclient@@QAE@AAU2@@Z@UAE@XZ 00448d55 f    CIL library: CIL module
 0001:00047d55       __ehhandler$??1cmd_setmaster@?8???0clientcom@fpsclient@@QAE@AAU2@@Z@UAE@XZ 00448d55 f    CIL library: CIL module
 0001:00047d55       __ehhandler$??1cmd_map@?4???0clientcom@fpsclient@@QAE@AAU2@@Z@UAE@XZ 00448d55 f    CIL library: CIL module
 0001:00047d55       __ehhandler$??1cmd_kick@?5???0clientcom@fpsclient@@QAE@AAU2@@Z@UAE@XZ 00448d55 f    CIL library: CIL module
 0001:00047d5f       __unwindfunclet$??1cmd_showscores@?1???0scoreboard@fpsclient@@QAE@AAU2@@Z@UAE@XZ$0 00448d5f f    CIL library: CIL module
 0001:00047d67       __ehhandler$??1cmd_showscores@?1???0scoreboard@fpsclient@@QAE@AAU2@@Z@UAE@XZ 00448d67 f    CIL library: CIL module
 0001:00047d71       __unwindfunclet$??1cmd_weapon@?1???0weaponstate@fpsclient@@QAE@AAU2@@Z@UAE@XZ$0 00448d71 f    CIL library: CIL module
 0001:00047d79       __ehhandler$??1cmd_weapon@?1???0weaponstate@fpsclient@@QAE@AAU2@@Z@UAE@XZ 00448d79 f    CIL library: CIL module
 0001:00047d83       __unwindfunclet$??1capturestate@fpsclient@@QAE@XZ$0 00448d83 f    CIL library: CIL module
 0001:00047d83       __unwindfunclet$??0octaentities@@QAE@ABUivec@@H@Z$0 00448d83 f    CIL library: CIL module
 0001:00047d83       __unwindfunclet$?freeoctaentities@@YAXAAUcube@@@Z$0 00448d83 f    CIL library: CIL module
 0001:00047d83       __unwindfunclet$??1capturestate@fpsserver@@QAE@XZ$0 00448d83 f    CIL library: CIL module
 0001:00047d8b       __unwindfunclet$??1capturestate@fpsclient@@QAE@XZ$1 00448d8b f    CIL library: CIL module
 0001:00047d8b       __unwindfunclet$??1capturestate@fpsserver@@QAE@XZ$1 00448d8b f    CIL library: CIL module
 0001:00047d8b       __unwindfunclet$??0octaentities@@QAE@ABUivec@@H@Z$1 00448d8b f    CIL library: CIL module
 0001:00047d8b       __unwindfunclet$?freeoctaentities@@YAXAAUcube@@@Z$1 00448d8b f    CIL library: CIL module
 0001:00047d96       __ehhandler$??0octaentities@@QAE@ABUivec@@H@Z 00448d96 f    CIL library: CIL module
 0001:00047d96       __ehhandler$??1capturestate@fpsserver@@QAE@XZ 00448d96 f    CIL library: CIL module
 0001:00047d96       __ehhandler$?freeoctaentities@@YAXAAUcube@@@Z 00448d96 f    CIL library: CIL module
 0001:00047d96       __ehhandler$??1capturestate@fpsclient@@QAE@XZ 00448d96 f    CIL library: CIL module
 0001:00047da0       __unwindfunclet$??1unionfind@@QAE@XZ$0 00448da0 f    CIL library: CIL module
 0001:00047da0       __unwindfunclet$??1nval@@QAE@XZ$0 00448da0 f    CIL library: CIL module
 0001:00047da8       __ehhandler$??1nval@@QAE@XZ 00448da8 f    CIL library: CIL module
 0001:00047da8       __ehhandler$??1unionfind@@QAE@XZ 00448da8 f    CIL library: CIL module
 0001:00047db2       __unwindfunclet$??0Reflection@@QAE@XZ$0 00448db2 f    CIL library: CIL module
 0001:00047db2       __unwindfunclet$??1Reflection@@QAE@XZ$0 00448db2 f    CIL library: CIL module
 0001:00047dbd       __ehhandler$??0Reflection@@QAE@XZ 00448dbd f    CIL library: CIL module
 0001:00047dbd       __ehhandler$??1Reflection@@QAE@XZ 00448dbd f    CIL library: CIL module
 0001:00047dc7       __unwindfunclet$??0part@vertmodel@@QAE@XZ$0 00448dc7 f    CIL library: CIL module
 0001:00047dd2       __ehhandler$??0part@vertmodel@@QAE@XZ 00448dd2 f    CIL library: CIL module
 0001:00047ddc       __unwindfunclet$??0Slot@@QAE@XZ$0 00448ddc f    CIL library: CIL module
 0001:00047ddc       __unwindfunclet$??1Slot@@QAE@XZ$0 00448ddc f    CIL library: CIL module
 0001:00047de4       __unwindfunclet$??0Slot@@QAE@XZ$1 00448de4 f    CIL library: CIL module
 0001:00047de4       __unwindfunclet$??1Slot@@QAE@XZ$1 00448de4 f    CIL library: CIL module
 0001:00047def       __ehhandler$??1Slot@@QAE@XZ 00448def f    CIL library: CIL module
 0001:00047def       __ehhandler$??0Slot@@QAE@XZ 00448def f    CIL library: CIL module
 0001:00047df9       __unwindfunclet$??0dynentcacheentry@@QAE@XZ$0 00448df9 f    CIL library: CIL module
 0001:00047df9       __unwindfunclet$??1dynentcacheentry@@QAE@XZ$0 00448df9 f    CIL library: CIL module
 0001:00047e04       __ehhandler$??1dynentcacheentry@@QAE@XZ 00448e04 f    CIL library: CIL module
 0001:00047e04       __ehhandler$??0dynentcacheentry@@QAE@XZ 00448e04 f    CIL library: CIL module
 0001:00047e0e       __unwindfunclet$??0lodcollect@@QAE@XZ$0 00448e0e f    CIL library: CIL module
 0001:00047e0e       __unwindfunclet$??1lodcollect@@QAE@XZ$0 00448e0e f    CIL library: CIL module
 0001:00047e16       __unwindfunclet$??1lodcollect@@QAE@XZ$1 00448e16 f    CIL library: CIL module
 0001:00047e16       __unwindfunclet$??0lodcollect@@QAE@XZ$1 00448e16 f    CIL library: CIL module
 0001:00047e21       __unwindfunclet$??0lodcollect@@QAE@XZ$2 00448e21 f    CIL library: CIL module
 0001:00047e21       __unwindfunclet$??1lodcollect@@QAE@XZ$2 00448e21 f    CIL library: CIL module
 0001:00047e2c       __unwindfunclet$??1lodcollect@@QAE@XZ$3 00448e2c f    CIL library: CIL module
 0001:00047e2c       __unwindfunclet$??0lodcollect@@QAE@XZ$3 00448e2c f    CIL library: CIL module
 0001:00047e37       __unwindfunclet$??1lodcollect@@QAE@XZ$4 00448e37 f    CIL library: CIL module
 0001:00047e37       __unwindfunclet$??0lodcollect@@QAE@XZ$4 00448e37 f    CIL library: CIL module
 0001:00047e42       __ehhandler$??0lodcollect@@QAE@XZ 00448e42 f    CIL library: CIL module
 0001:00047e42       __ehhandler$??1lodcollect@@QAE@XZ 00448e42 f    CIL library: CIL module
 0001:00047e4c       __unwindfunclet$??1chain@?$hashtable@Unkey@@Unval@@@@QAE@XZ$0 00448e4c f    CIL library: CIL module
 0001:00047e55       __ehhandler$??1chain@?$hashtable@Unkey@@Unval@@@@QAE@XZ 00448e55 f    CIL library: CIL module
 0001:00047e5f       __unwindfunclet$?clear@?$hashtable@Unkey@@Unval@@@@QAEXXZ$0 00448e5f f    CIL library: CIL module
 0001:00047e71       __ehhandler$?clear@?$hashtable@Unkey@@Unval@@@@QAEXXZ 00448e71 f    CIL library: CIL module
 0001:00047e7b       __unwindfunclet$??1lightcacheentry@@QAE@XZ$0 00448e7b f    CIL library: CIL module
 0001:00047e7b       __unwindfunclet$??0lightcacheentry@@QAE@XZ$0 00448e7b f    CIL library: CIL module
 0001:00047e86       __ehhandler$??1lightcacheentry@@QAE@XZ 00448e86 f    CIL library: CIL module
 0001:00047e86       __ehhandler$??0lightcacheentry@@QAE@XZ 00448e86 f    CIL library: CIL module
 0001:00047e90       __unwindfunclet$??_Gcmd_map@?1???0rpgclient@@QAE@XZ@UAEPAXI@Z$0 00448e90 f    CIL library: CIL module
 0001:00047e90       __unwindfunclet$??_Gcmd_showinventory@?2???0rpgclient@@QAE@XZ@UAEPAXI@Z$0 00448e90 f    CIL library: CIL module
 0001:00047e98       __ehhandler$??_Gcmd_map@?1???0rpgclient@@QAE@XZ@UAEPAXI@Z 00448e98 f    CIL library: CIL module
 0001:00047e98       __ehhandler$??_Gcmd_showinventory@?2???0rpgclient@@QAE@XZ@UAEPAXI@Z 00448e98 f    CIL library: CIL module
 0001:00047ea2       __unwindfunclet$??_Gcmd_r_take@?8???0rpgobjset@rpgclient@@QAE@AAU2@@Z@UAEPAXI@Z$0 00448ea2 f    CIL library: CIL module
 0001:00047ea2       __unwindfunclet$??_Gcmd_r_ai@?5???0rpgobjset@rpgclient@@QAE@AAU2@@Z@UAEPAXI@Z$0 00448ea2 f    CIL library: CIL module
 0001:00047ea2       __unwindfunclet$??_Gcmd_r_pop@?4???0rpgobjset@rpgclient@@QAE@AAU2@@Z@UAEPAXI@Z$0 00448ea2 f    CIL library: CIL module
 0001:00047ea2       __unwindfunclet$??_Gcmd_r_action@?7???0rpgobjset@rpgclient@@QAE@AAU2@@Z@UAEPAXI@Z$0 00448ea2 f    CIL library: CIL module
 0001:00047ea2       __unwindfunclet$??_Gcmd_r_contain@?3???0rpgobjset@rpgclient@@QAE@AAU2@@Z@UAEPAXI@Z$0 00448ea2 f    CIL library: CIL module
 0001:00047ea2       __unwindfunclet$??_Gcmd_r_stat@?N@???0rpgobjset@rpgclient@@QAE@AAU2@@Z@UAEPAXI@Z$0 00448ea2 f    CIL library: CIL module
 0001:00047ea2       __unwindfunclet$??_Gcmd_r_gold@?M@???0rpgobjset@rpgclient@@QAE@AAU2@@Z@UAEPAXI@Z$0 00448ea2 f    CIL library: CIL module
 0001:00047ea2       __unwindfunclet$??_Gcmd_r_give@?9???0rpgobjset@rpgclient@@QAE@AAU2@@Z@UAEPAXI@Z$0 00448ea2 f    CIL library: CIL module
 0001:00047ea2       __unwindfunclet$??_Gcmd_r_spawn@?2???0rpgobjset@rpgclient@@QAE@AAU2@@Z@UAEPAXI@Z$0 00448ea2 f    CIL library: CIL module
 0001:00047ea2       __unwindfunclet$??_Gcmd_r_worth@?L@???0rpgobjset@rpgclient@@QAE@AAU2@@Z@UAEPAXI@Z$0 00448ea2 f    CIL library: CIL module
 0001:00047ea2       __unwindfunclet$??_Gcmd_r_model@?1???0rpgobjset@rpgclient@@QAE@AAU2@@Z@UAEPAXI@Z$0 00448ea2 f    CIL library: CIL module
 0001:00047ea2       __unwindfunclet$??_Gcmd_r_say@?6???0rpgobjset@rpgclient@@QAE@AAU2@@Z@UAEPAXI@Z$0 00448ea2 f    CIL library: CIL module
 0001:00047eaa       __ehhandler$??_Gcmd_r_stat@?N@???0rpgobjset@rpgclient@@QAE@AAU2@@Z@UAEPAXI@Z 00448eaa f    CIL library: CIL module
 0001:00047eaa       __ehhandler$??_Gcmd_r_give@?9???0rpgobjset@rpgclient@@QAE@AAU2@@Z@UAEPAXI@Z 00448eaa f    CIL library: CIL module
 0001:00047eaa       __ehhandler$??_Gcmd_r_model@?1???0rpgobjset@rpgclient@@QAE@AAU2@@Z@UAEPAXI@Z 00448eaa f    CIL library: CIL module
 0001:00047eaa       __ehhandler$??_Gcmd_r_ai@?5???0rpgobjset@rpgclient@@QAE@AAU2@@Z@UAEPAXI@Z 00448eaa f    CIL library: CIL module
 0001:00047eaa       __ehhandler$??_Gcmd_r_gold@?M@???0rpgobjset@rpgclient@@QAE@AAU2@@Z@UAEPAXI@Z 00448eaa f    CIL library: CIL module
 0001:00047eaa       __ehhandler$??_Gcmd_r_say@?6???0rpgobjset@rpgclient@@QAE@AAU2@@Z@UAEPAXI@Z 00448eaa f    CIL library: CIL module
 0001:00047eaa       __ehhandler$??_Gcmd_r_worth@?L@???0rpgobjset@rpgclient@@QAE@AAU2@@Z@UAEPAXI@Z 00448eaa f    CIL library: CIL module
 0001:00047eaa       __ehhandler$??_Gcmd_r_action@?7???0rpgobjset@rpgclient@@QAE@AAU2@@Z@UAEPAXI@Z 00448eaa f    CIL library: CIL module
 0001:00047eaa       __ehhandler$??_Gcmd_r_spawn@?2???0rpgobjset@rpgclient@@QAE@AAU2@@Z@UAEPAXI@Z 00448eaa f    CIL library: CIL module
 0001:00047eaa       __ehhandler$??_Gcmd_r_contain@?3???0rpgobjset@rpgclient@@QAE@AAU2@@Z@UAEPAXI@Z 00448eaa f    CIL library: CIL module
 0001:00047eaa       __ehhandler$??_Gcmd_r_take@?8???0rpgobjset@rpgclient@@QAE@AAU2@@Z@UAEPAXI@Z 00448eaa f    CIL library: CIL module
 0001:00047eaa       __ehhandler$??_Gcmd_r_pop@?4???0rpgobjset@rpgclient@@QAE@AAU2@@Z@UAEPAXI@Z 00448eaa f    CIL library: CIL module
 0001:00047eb4       __unwindfunclet$??_Gcmd_spawnname@?1???0rpgentities@rpgclient@@QAE@AAU2@@Z@UAEPAXI@Z$0 00448eb4 f    CIL library: CIL module
 0001:00047ebc       __ehhandler$??_Gcmd_spawnname@?1???0rpgentities@rpgclient@@QAE@AAU2@@Z@UAEPAXI@Z 00448ebc f    CIL library: CIL module
 0001:00047ec6       __unwindfunclet$??1rpgobjset@rpgclient@@QAE@XZ$0 00448ec6 f    CIL library: CIL module
 0001:00047ed1       __unwindfunclet$??1rpgobjset@rpgclient@@QAE@XZ$1 00448ed1 f    CIL library: CIL module
 0001:00047edc       __unwindfunclet$??1rpgobjset@rpgclient@@QAE@XZ$2 00448edc f    CIL library: CIL module
 0001:00047ee7       __ehhandler$??1rpgobjset@rpgclient@@QAE@XZ 00448ee7 f    CIL library: CIL module
 0001:00047ef1       __unwindfunclet$??1rpgobj@rpgclient@@UAE@XZ$0 00448ef1 f    CIL library: CIL module
 0001:00047ef1       __unwindfunclet$??0rpgobj@rpgclient@@QAE@PADAAUrpgobjset@1@@Z$0 00448ef1 f    CIL library: CIL module
 0001:00047ef9       __unwindfunclet$??1rpgobj@rpgclient@@UAE@XZ$1 00448ef9 f    CIL library: CIL module
 0001:00047ef9       __unwindfunclet$??0rpgobj@rpgclient@@QAE@PADAAUrpgobjset@1@@Z$1 00448ef9 f    CIL library: CIL module
 0001:00047f04       __ehhandler$??1rpgobj@rpgclient@@UAE@XZ 00448f04 f    CIL library: CIL module
 0001:00047f04       __ehhandler$??0rpgobj@rpgclient@@QAE@PADAAUrpgobjset@1@@Z 00448f04 f    CIL library: CIL module
 0001:00047f0e       __unwindfunclet$??1entities@fpsclient@@UAE@XZ$0 00448f0e f    CIL library: CIL module
 0001:00047f0e       __unwindfunclet$??1rpgentities@rpgclient@@UAE@XZ$0 00448f0e f    CIL library: CIL module
 0001:00047f16       __unwindfunclet$??1entities@fpsclient@@UAE@XZ$1 00448f16 f    CIL library: CIL module
 0001:00047f16       __unwindfunclet$??1rpgentities@rpgclient@@UAE@XZ$1 00448f16 f    CIL library: CIL module
 0001:00047f21       __ehhandler$??1rpgentities@rpgclient@@UAE@XZ 00448f21 f    CIL library: CIL module
 0001:00047f21       __ehhandler$??1entities@fpsclient@@UAE@XZ 00448f21 f    CIL library: CIL module
 0001:00047f2b       __unwindfunclet$??1rpgdummycom@@UAE@XZ$0 00448f2b f    CIL library: CIL module
 0001:00047f33       __ehhandler$??1rpgdummycom@@UAE@XZ 00448f33 f    CIL library: CIL module
 0001:00047f3d       __unwindfunclet$??_Gcmd_mode@?1???0fpsclient@@QAE@XZ@UAEPAXI@Z$0 00448f3d f    CIL library: CIL module
 0001:00047f3d       __unwindfunclet$??_Gcmd_kill@?2???0fpsclient@@QAE@XZ@UAEPAXI@Z$0 00448f3d f    CIL library: CIL module
 0001:00047f45       __ehhandler$??_Gcmd_kill@?2???0fpsclient@@QAE@XZ@UAEPAXI@Z 00448f45 f    CIL library: CIL module
 0001:00047f45       __ehhandler$??_Gcmd_mode@?1???0fpsclient@@QAE@XZ@UAEPAXI@Z 00448f45 f    CIL library: CIL module
 0001:00047f4f       __unwindfunclet$??_Gcmd_repammo@?1???0captureclient@fpsclient@@QAE@AAU2@@Z@UAEPAXI@Z$0 00448f4f f    CIL library: CIL module
 0001:00047f57       __ehhandler$??_Gcmd_repammo@?1???0captureclient@fpsclient@@QAE@AAU2@@Z@UAEPAXI@Z 00448f57 f    CIL library: CIL module
 0001:00047f61       __unwindfunclet$??_Gcmd_sendmap@?M@???0clientcom@fpsclient@@QAE@AAU2@@Z@UAEPAXI@Z$0 00448f61 f    CIL library: CIL module
 0001:00047f61       __unwindfunclet$??_Gcmd_getmap@?L@???0clientcom@fpsclient@@QAE@AAU2@@Z@UAEPAXI@Z$0 00448f61 f    CIL library: CIL module
 0001:00047f61       __unwindfunclet$??_Gcmd_name@?2???0clientcom@fpsclient@@QAE@AAU2@@Z@UAEPAXI@Z$0 00448f61 f    CIL library: CIL module
 0001:00047f61       __unwindfunclet$??_Gcmd_spectator@?6???0clientcom@fpsclient@@QAE@AAU2@@Z@UAEPAXI@Z$0 00448f61 f    CIL library: CIL module
 0001:00047f61       __unwindfunclet$??_Gcmd_setteam@?9???0clientcom@fpsclient@@QAE@AAU2@@Z@UAEPAXI@Z$0 00448f61 f    CIL library: CIL module
 0001:00047f61       __unwindfunclet$??_Gcmd_kick@?5???0clientcom@fpsclient@@QAE@AAU2@@Z@UAEPAXI@Z$0 00448f61 f    CIL library: CIL module
 0001:00047f61       __unwindfunclet$??_Gcmd_say@?1???0clientcom@fpsclient@@QAE@AAU2@@Z@UAEPAXI@Z$0 00448f61 f    CIL library: CIL module
 0001:00047f61       __unwindfunclet$??_Gcmd_team@?3???0clientcom@fpsclient@@QAE@AAU2@@Z@UAEPAXI@Z$0 00448f61 f    CIL library: CIL module
 0001:00047f61       __unwindfunclet$??_Gcmd_setmaster@?8???0clientcom@fpsclient@@QAE@AAU2@@Z@UAEPAXI@Z$0 00448f61 f    CIL library: CIL module
 0001:00047f61       __unwindfunclet$??_Gcmd_map@?4???0clientcom@fpsclient@@QAE@AAU2@@Z@UAEPAXI@Z$0 00448f61 f    CIL library: CIL module
 0001:00047f61       __unwindfunclet$??_Gcmd_mastermode@?7???0clientcom@fpsclient@@QAE@AAU2@@Z@UAEPAXI@Z$0 00448f61 f    CIL library: CIL module
 0001:00047f69       __ehhandler$??_Gcmd_setmaster@?8???0clientcom@fpsclient@@QAE@AAU2@@Z@UAEPAXI@Z 00448f69 f    CIL library: CIL module
 0001:00047f69       __ehhandler$??_Gcmd_kick@?5???0clientcom@fpsclient@@QAE@AAU2@@Z@UAEPAXI@Z 00448f69 f    CIL library: CIL module
 0001:00047f69       __ehhandler$??_Gcmd_setteam@?9???0clientcom@fpsclient@@QAE@AAU2@@Z@UAEPAXI@Z 00448f69 f    CIL library: CIL module
 0001:00047f69       __ehhandler$??_Gcmd_getmap@?L@???0clientcom@fpsclient@@QAE@AAU2@@Z@UAEPAXI@Z 00448f69 f    CIL library: CIL module
 0001:00047f69       __ehhandler$??_Gcmd_mastermode@?7???0clientcom@fpsclient@@QAE@AAU2@@Z@UAEPAXI@Z 00448f69 f    CIL library: CIL module
 0001:00047f69       __ehhandler$??_Gcmd_team@?3???0clientcom@fpsclient@@QAE@AAU2@@Z@UAEPAXI@Z 00448f69 f    CIL library: CIL module
 0001:00047f69       __ehhandler$??_Gcmd_name@?2???0clientcom@fpsclient@@QAE@AAU2@@Z@UAEPAXI@Z 00448f69 f    CIL library: CIL module
 0001:00047f69       __ehhandler$??_Gcmd_sendmap@?M@???0clientcom@fpsclient@@QAE@AAU2@@Z@UAEPAXI@Z 00448f69 f    CIL library: CIL module
 0001:00047f69       __ehhandler$??_Gcmd_say@?1???0clientcom@fpsclient@@QAE@AAU2@@Z@UAEPAXI@Z 00448f69 f    CIL library: CIL module
 0001:00047f69       __ehhandler$??_Gcmd_spectator@?6???0clientcom@fpsclient@@QAE@AAU2@@Z@UAEPAXI@Z 00448f69 f    CIL library: CIL module
 0001:00047f69       __ehhandler$??_Gcmd_map@?4???0clientcom@fpsclient@@QAE@AAU2@@Z@UAEPAXI@Z 00448f69 f    CIL library: CIL module
 0001:00047f73       __unwindfunclet$??_Gcmd_showscores@?1???0scoreboard@fpsclient@@QAE@AAU2@@Z@UAEPAXI@Z$0 00448f73 f    CIL library: CIL module
 0001:00047f7b       __ehhandler$??_Gcmd_showscores@?1???0scoreboard@fpsclient@@QAE@AAU2@@Z@UAEPAXI@Z 00448f7b f    CIL library: CIL module
 0001:00047f85       __unwindfunclet$??_Gcmd_weapon@?1???0weaponstate@fpsclient@@QAE@AAU2@@Z@UAEPAXI@Z$0 00448f85 f    CIL library: CIL module
 0001:00047f8d       __ehhandler$??_Gcmd_weapon@?1???0weaponstate@fpsclient@@QAE@AAU2@@Z@UAEPAXI@Z 00448f8d f    CIL library: CIL module
 0001:00047f97       __unwindfunclet$??1clientcom@fpsclient@@UAE@XZ$0 00448f97 f    CIL library: CIL module
 0001:00047f9f       __unwindfunclet$??1clientcom@fpsclient@@UAE@XZ$1 00448f9f f    CIL library: CIL module
 0001:00047faa       __ehhandler$??1clientcom@fpsclient@@UAE@XZ 00448faa f    CIL library: CIL module
 0001:00047fb4       __unwindfunclet$??1scoreboard@fpsclient@@UAE@XZ$0 00448fb4 f    CIL library: CIL module
 0001:00047fbc       __ehhandler$??1scoreboard@fpsclient@@UAE@XZ 00448fbc f    CIL library: CIL module
 0001:00047fc6       __unwindfunclet$??1var_maxdebris@weaponstate@fpsclient@@UAE@XZ$0 00448fc6 f    CIL library: CIL module
 0001:00047fc6       __unwindfunclet$??0var_skill@monsterset@fpsclient@@QAE@XZ$0 00448fc6 f    CIL library: CIL module
 0001:00047fc6       __unwindfunclet$??0var_maxdebris@weaponstate@fpsclient@@QAE@XZ$0 00448fc6 f    CIL library: CIL module
 0001:00047fc6       __unwindfunclet$??1var_skill@monsterset@fpsclient@@UAE@XZ$0 00448fc6 f    CIL library: CIL module
 0001:00047fc6       __unwindfunclet$??1var_hudgun@fpsclient@@UAE@XZ$0 00448fc6 f    CIL library: CIL module
 0001:00047fce       __ehhandler$??1var_hudgun@fpsclient@@UAE@XZ 00448fce f    CIL library: CIL module
 0001:00047fce       __ehhandler$??0var_skill@monsterset@fpsclient@@QAE@XZ 00448fce f    CIL library: CIL module
 0001:00047fce       __ehhandler$??1var_skill@monsterset@fpsclient@@UAE@XZ 00448fce f    CIL library: CIL module
 0001:00047fce       __ehhandler$??0var_maxdebris@weaponstate@fpsclient@@QAE@XZ 00448fce f    CIL library: CIL module
 0001:00047fce       __ehhandler$??1var_maxdebris@weaponstate@fpsclient@@UAE@XZ 00448fce f    CIL library: CIL module
 0001:00047fd8       __unwindfunclet$??_Gworldstate@fpsserver@@QAEPAXI@Z$0 00448fd8 f    CIL library: CIL module
 0001:00047fe3       __unwindfunclet$??_Gworldstate@fpsserver@@QAEPAXI@Z$1 00448fe3 f    CIL library: CIL module
 0001:00047fee       __ehhandler$??_Gworldstate@fpsserver@@QAEPAXI@Z 00448fee f    CIL library: CIL module
 0001:00047ff8       __unwindfunclet$??1captureserv@fpsserver@@QAE@XZ$0 00448ff8 f    CIL library: CIL module
 0001:00047ff8       __unwindfunclet$??1captureclient@fpsclient@@QAE@XZ$0 00448ff8 f    CIL library: CIL module
 0001:00048001       __ehhandler$??1captureserv@fpsserver@@QAE@XZ 00449001 f    CIL library: CIL module
 0001:00048001       __ehhandler$??1captureclient@fpsclient@@QAE@XZ 00449001 f    CIL library: CIL module
 0001:0004800b       __unwindfunclet$??1chain@?$hashtable@PADUsample@@@@QAE@XZ$0 0044900b f    CIL library: CIL module
 0001:0004800b       __unwindfunclet$??0chain@?$hashtable@PADUsample@@@@QAE@XZ$0 0044900b f    CIL library: CIL module
 0001:00048013       __ehhandler$??1chain@?$hashtable@PADUsample@@@@QAE@XZ 00449013 f    CIL library: CIL module
 0001:00048013       __ehhandler$??0chain@?$hashtable@PADUsample@@@@QAE@XZ 00449013 f    CIL library: CIL module
 0001:0004801d       __unwindfunclet$?clear@?$hashtable@PADUsample@@@@QAEXXZ$0 0044901d f    CIL library: CIL module
 0001:0004802f       __ehhandler$?clear@?$hashtable@PADUsample@@@@QAEXXZ 0044902f f    CIL library: CIL module
 0001:00048039       __unwindfunclet$?clear@?$hashtable@PADU?$tident@X@@@@QAEXXZ$0 00449039 f    CIL library: CIL module
 0001:0004804b       __ehhandler$?clear@?$hashtable@PADU?$tident@X@@@@QAEXXZ 0044904b f    CIL library: CIL module
 0001:00048055       __unwindfunclet$??1tristrip@@QAE@XZ$0 00449055 f    CIL library: CIL module
 0001:0004805d       __unwindfunclet$??1tristrip@@QAE@XZ$1 0044905d f    CIL library: CIL module
 0001:00048073       __unwindfunclet$??1tristrip@@QAE@XZ$2 00449073 f    CIL library: CIL module
 0001:0004807e       __ehhandler$??1tristrip@@QAE@XZ 0044907e f    CIL library: CIL module
 0001:00048088       __unwindfunclet$??1part@vertmodel@@UAE@XZ$0 00449088 f    CIL library: CIL module
 0001:00048093       __ehhandler$??1part@vertmodel@@UAE@XZ 00449093 f    CIL library: CIL module
 0001:0004809d       __unwindfunclet$??1Shader@@QAE@XZ$0 0044909d f    CIL library: CIL module
 0001:000480a8       __ehhandler$??1Shader@@QAE@XZ 004490a8 f    CIL library: CIL module
 0001:000480b2       __unwindfunclet$??1chain@?$hashtable@PBDUShader@@@@QAE@XZ$0 004490b2 f    CIL library: CIL module
 0001:000480bb       __ehhandler$??1chain@?$hashtable@PBDUShader@@@@QAE@XZ 004490bb f    CIL library: CIL module
 0001:000480c5       __unwindfunclet$??0chain@?$hashtable@PBDUShader@@@@QAE@XZ$1 004490c5 f    CIL library: CIL module
 0001:000480d0       __unwindfunclet$??0chain@?$hashtable@PBDUShader@@@@QAE@XZ$0 004490d0 f    CIL library: CIL module
 0001:000480d9       __ehhandler$??0chain@?$hashtable@PBDUShader@@@@QAE@XZ 004490d9 f    CIL library: CIL module
 0001:000480e3       __unwindfunclet$?insert@?$hashtable@PBDUShader@@@@QAEPAUchain@1@ABQBDI@Z$0 004490e3 f    CIL library: CIL module
 0001:000480ed       __unwindfunclet$?insert@?$hashtable@PBDUShader@@@@QAEPAUchain@1@ABQBDI@Z$1 004490ed f    CIL library: CIL module
 0001:000480ff       __ehhandler$?insert@?$hashtable@PBDUShader@@@@QAEPAUchain@1@ABQBDI@Z 004490ff f    CIL library: CIL module
 0001:00048109       __unwindfunclet$??_Ggui@@UAEPAXI@Z$0 00449109 f    CIL library: CIL module
 0001:00048111       __ehhandler$??_Ggui@@UAEPAXI@Z 00449111 f    CIL library: CIL module
 0001:0004811b       __unwindfunclet$?add@?$vector@Ugui@@@@QAEAAUgui@@XZ$0 0044911b f    CIL library: CIL module
 0001:00048120       __unwindfunclet$?add@?$vector@Ugui@@@@QAEAAUgui@@XZ$1 00449120 f    CIL library: CIL module
 0001:00048128       __ehhandler$?add@?$vector@Ugui@@@@QAEAAUgui@@XZ 00449128 f    CIL library: CIL module
 0001:00048132       __unwindfunclet$?setsize@?$vector@Userverinfo@@@@QAEXH@Z$0 00449132 f    CIL library: CIL module
 0001:0004813f       __ehhandler$?setsize@?$vector@Userverinfo@@@@QAEXH@Z 0044913f f    CIL library: CIL module
 0001:00048149       __unwindfunclet$?add@?$vector@Userverinfo@@@@QAEAAUserverinfo@@XZ$0 00449149 f    CIL library: CIL module
 0001:0004814e       __unwindfunclet$?add@?$vector@Userverinfo@@@@QAEAAUserverinfo@@XZ$1 0044914e f    CIL library: CIL module
 0001:0004815b       __ehhandler$?add@?$vector@Userverinfo@@@@QAEAAUserverinfo@@XZ 0044915b f    CIL library: CIL module
 0001:00048165       __unwindfunclet$??1sortval@@QAE@XZ$0 00449165 f    CIL library: CIL module
 0001:0004817b       __ehhandler$??1sortval@@QAE@XZ 0044917b f    CIL library: CIL module
 0001:00048185       __unwindfunclet$??1chain@?$hashtable@Usortkey@@Usortval@@@@QAE@XZ$0 00449185 f    CIL library: CIL module
 0001:0004818e       __ehhandler$??1chain@?$hashtable@Usortkey@@Usortval@@@@QAE@XZ 0044918e f    CIL library: CIL module
 0001:00048198       __unwindfunclet$?clearidx@lodcollect@@QAEXXZ$0 00449198 f    CIL library: CIL module
 0001:000481aa       __ehhandler$?clearidx@lodcollect@@QAEXXZ 004491aa f    CIL library: CIL module
 0001:000481b4       __unwindfunclet$??1cfval@@QAE@XZ$0 004491b4 f    CIL library: CIL module
 0001:000481bc       __ehhandler$??1cfval@@QAE@XZ 004491bc f    CIL library: CIL module
 0001:000481c6       __unwindfunclet$??1chain@?$hashtable@Ucfkey@@Ucfval@@@@QAE@XZ$0 004491c6 f    CIL library: CIL module
 0001:000481cf       __ehhandler$??1chain@?$hashtable@Ucfkey@@Ucfval@@@@QAE@XZ 004491cf f    CIL library: CIL module
 0001:000481d9       __unwindfunclet$?newnormals@@YAXAAUcube@@@Z$0 004491d9 f    CIL library: CIL module
 0001:000481d9       __unwindfunclet$?insert@QuadNode@@QAEXHHH@Z$0 004491d9 f    CIL library: CIL module
 0001:000481e3       __ehhandler$?newnormals@@YAXAAUcube@@@Z 004491e3 f    CIL library: CIL module
 0001:000481e3       __ehhandler$?insert@QuadNode@@QAEXHHH@Z 004491e3 f    CIL library: CIL module
 0001:000481ed       __unwindfunclet$?setsize@?$vector@ULightMap@@@@QAEXH@Z$0 004491ed f    CIL library: CIL module
 0001:000481fb       __ehhandler$?setsize@?$vector@ULightMap@@@@QAEXH@Z 004491fb f    CIL library: CIL module
 0001:00048205       __unwindfunclet$??0LightMap@@QAE@XZ$0 00449205 f    CIL library: CIL module
 0001:00048213       __ehhandler$??0LightMap@@QAE@XZ 00449213 f    CIL library: CIL module
 0001:0004821d       __unwindfunclet$??_Gfpsgame@@UAEPAXI@Z$0 0044921d f    CIL library: CIL module
 0001:0004821d       __unwindfunclet$??_Grpggame@@UAEPAXI@Z$0 0044921d f    CIL library: CIL module
 0001:00048225       __ehhandler$??_Gfpsgame@@UAEPAXI@Z 00449225 f    CIL library: CIL module
 0001:00048225       __ehhandler$??_Grpggame@@UAEPAXI@Z 00449225 f    CIL library: CIL module
 0001:0004822f       __unwindfunclet$?newserver@rpggame@@UAEPAUigameserver@@XZ$0 0044922f f    CIL library: CIL module
 0001:0004822f       __unwindfunclet$??_Grpgdummyserver@@UAEPAXI@Z$0 0044922f f    CIL library: CIL module
 0001:00048237       __ehhandler$??_Grpgdummyserver@@UAEPAXI@Z 00449237 f    CIL library: CIL module
 0001:00048237       __ehhandler$?newserver@rpggame@@UAEPAUigameserver@@XZ 00449237 f    CIL library: CIL module
 0001:00048241       __unwindfunclet$??1monsterset@fpsclient@@QAE@XZ$0 00449241 f    CIL library: CIL module
 0001:0004824c       __unwindfunclet$??1monsterset@fpsclient@@QAE@XZ$1 0044924c f    CIL library: CIL module
 0001:00048259       __ehhandler$??1monsterset@fpsclient@@QAE@XZ 00449259 f    CIL library: CIL module
 0001:00048263       __unwindfunclet$??1weaponstate@fpsclient@@QAE@XZ$0 00449263 f    CIL library: CIL module
 0001:00048272       __unwindfunclet$??1weaponstate@fpsclient@@QAE@XZ$1 00449272 f    CIL library: CIL module
 0001:0004827f       __ehhandler$??1weaponstate@fpsclient@@QAE@XZ 0044927f f    CIL library: CIL module
 0001:00048289       __unwindfunclet$?unite@unionfind@@QAEXHH@Z$0 00449289 f    CIL library: CIL module
 0001:00048289       __unwindfunclet$?add@?$vector@U?$vector@D@@@@QAEAAU?$vector@D@@XZ$0 00449289 f    CIL library: CIL module
 0001:00048289       __unwindfunclet$?add@?$vector@Uenvmap@@@@QAEAAUenvmap@@XZ$0 00449289 f    CIL library: CIL module
 0001:00048289       __unwindfunclet$?add@?$vector@USlot@@@@QAEAAUSlot@@XZ$0 00449289 f    CIL library: CIL module
 0001:00048289       __unwindfunclet$?gentris@mesh@vertmodel@@QAEXHAAU?$vector@Utriangle@@@@QAM@Z$0 00449289 f    CIL library: CIL module
 0001:00048289       __unwindfunclet$?access@vechash@@QAEHABUvvec@@FFABUbvec@@@Z$0 00449289 f    CIL library: CIL module
 0001:00048289       __unwindfunclet$?addbase@capturestate@fpsclient@@QAEXABUvec@@@Z$0 00449289 f    CIL library: CIL module
 0001:00048289       __unwindfunclet$?add@?$vector@ULightMap@@@@QAEAAULightMap@@XZ$0 00449289 f    CIL library: CIL module
 0001:00048289       __unwindfunclet$?addbase@capturestate@fpsserver@@QAEXABUvec@@@Z$0 00449289 f    CIL library: CIL module
 0001:0004828e       __ehhandler$?add@?$vector@USlot@@@@QAEAAUSlot@@XZ 0044928e f    CIL library: CIL module
 0001:0004828e       __ehhandler$?addbase@capturestate@fpsserver@@QAEXABUvec@@@Z 0044928e f    CIL library: CIL module
 0001:0004828e       __ehhandler$?unite@unionfind@@QAEXHH@Z 0044928e f    CIL library: CIL module
 0001:0004828e       __ehhandler$?add@?$vector@Uenvmap@@@@QAEAAUenvmap@@XZ 0044928e f    CIL library: CIL module
 0001:0004828e       __ehhandler$?add@?$vector@U?$vector@D@@@@QAEAAU?$vector@D@@XZ 0044928e f    CIL library: CIL module
 0001:0004828e       __ehhandler$?add@?$vector@ULightMap@@@@QAEAAULightMap@@XZ 0044928e f    CIL library: CIL module
 0001:0004828e       __ehhandler$?access@vechash@@QAEHABUvvec@@FFABUbvec@@@Z 0044928e f    CIL library: CIL module
 0001:0004828e       __ehhandler$?addbase@capturestate@fpsclient@@QAEXABUvec@@@Z 0044928e f    CIL library: CIL module
 0001:0004828e       __ehhandler$?gentris@mesh@vertmodel@@QAEXHAAU?$vector@Utriangle@@@@QAM@Z 0044928e f    CIL library: CIL module
 0001:00048298       __unwindfunclet$?gui@scoreboard@fpsclient@@UAEXAAUg3d_gui@@_N@Z$0 00449298 f    CIL library: CIL module
 0001:000482a0       __unwindfunclet$?gui@scoreboard@fpsclient@@UAEXAAUg3d_gui@@_N@Z$1 004492a0 f    CIL library: CIL module
 0001:000482a8       __ehhandler$?gui@scoreboard@fpsclient@@UAEXAAUg3d_gui@@_N@Z 004492a8 f    CIL library: CIL module
 0001:000482b2       __unwindfunclet$??1fpsserver@@UAE@XZ$0 004492b2 f    CIL library: CIL module
 0001:000482ba       __unwindfunclet$??1fpsserver@@UAE@XZ$1 004492ba f    CIL library: CIL module
 0001:000482c7       __unwindfunclet$??1fpsserver@@UAE@XZ$2 004492c7 f    CIL library: CIL module
 0001:000482d5       __unwindfunclet$??1fpsserver@@UAE@XZ$3 004492d5 f    CIL library: CIL module
 0001:000482e2       __unwindfunclet$??1fpsserver@@UAE@XZ$4 004492e2 f    CIL library: CIL module
 0001:000482f1       __unwindfunclet$??1fpsserver@@UAE@XZ$5 004492f1 f    CIL library: CIL module
 0001:000482fe       __unwindfunclet$??1fpsserver@@UAE@XZ$6 004492fe f    CIL library: CIL module
 0001:0004830b       __ehhandler$??1fpsserver@@UAE@XZ 0044930b f    CIL library: CIL module
 0001:00048315       __unwindfunclet$?buildworldstate@fpsserver@@QAE_NXZ$0 00449315 f    CIL library: CIL module
 0001:0004831f       __unwindfunclet$?buildworldstate@fpsserver@@QAE_NXZ$1 0044931f f    CIL library: CIL module
 0001:0004832a       __unwindfunclet$?buildworldstate@fpsserver@@QAE_NXZ$2 0044932a f    CIL library: CIL module
 0001:00048335       __ehhandler$?buildworldstate@fpsserver@@QAE_NXZ 00449335 f    CIL library: CIL module
 0001:0004833f       __unwindfunclet$??0fpsserver@@QAE@XZ$0 0044933f f    CIL library: CIL module
 0001:00048347       __unwindfunclet$??0fpsserver@@QAE@XZ$1 00449347 f    CIL library: CIL module
 0001:00048354       __unwindfunclet$??0fpsserver@@QAE@XZ$2 00449354 f    CIL library: CIL module
 0001:00048362       __unwindfunclet$??0fpsserver@@QAE@XZ$3 00449362 f    CIL library: CIL module
 0001:0004836f       __unwindfunclet$??0fpsserver@@QAE@XZ$8 0044936f f    CIL library: CIL module
 0001:00048377       __unwindfunclet$??0fpsserver@@QAE@XZ$9 00449377 f    CIL library: CIL module
 0001:00048382       __unwindfunclet$??0fpsserver@@QAE@XZ$7 00449382 f    CIL library: CIL module
 0001:0004838b       __unwindfunclet$??0fpsserver@@QAE@XZ$4 0044938b f    CIL library: CIL module
 0001:0004839a       __unwindfunclet$??0fpsserver@@QAE@XZ$5 0044939a f    CIL library: CIL module
 0001:000483a7       __unwindfunclet$??0fpsserver@@QAE@XZ$6 004493a7 f    CIL library: CIL module
 0001:000483b4       __ehhandler$??0fpsserver@@QAE@XZ 004493b4 f    CIL library: CIL module
 0001:000483be       __unwindfunclet$??0clientinfo@fpsserver@@QAE@XZ$0 004493be f    CIL library: CIL module
 0001:000483cb       __unwindfunclet$??0clientinfo@fpsserver@@QAE@XZ$1 004493cb f    CIL library: CIL module
 0001:000483d8       __ehhandler$??0clientinfo@fpsserver@@QAE@XZ 004493d8 f    CIL library: CIL module
 0001:000483e2       __unwindfunclet$?insert@?$hashtable@PADUsample@@@@QAEPAUchain@1@ABQADI@Z$0 004493e2 f    CIL library: CIL module
 0001:000483ec       __unwindfunclet$?insert@?$hashtable@PADUsample@@@@QAEPAUchain@1@ABQADI@Z$1 004493ec f    CIL library: CIL module
 0001:000483fe       __ehhandler$?insert@?$hashtable@PADUsample@@@@QAEPAUchain@1@ABQADI@Z 004493fe f    CIL library: CIL module
 0001:00048408       __unwindfunclet$??_Gmainmenucallback@@UAEPAXI@Z$0 00449408 f    CIL library: CIL module
 0001:00048410       __ehhandler$??_Gmainmenucallback@@UAEPAXI@Z 00449410 f    CIL library: CIL module
 0001:0004841a       __unwindfunclet$?insert@?$hashtable@PADU?$tident@X@@@@QAEPAUchain@1@ABQADI@Z$0 0044941a f    CIL library: CIL module
 0001:00048424       __unwindfunclet$?insert@?$hashtable@PADU?$tident@X@@@@QAEPAUchain@1@ABQADI@Z$1 00449424 f    CIL library: CIL module
 0001:00048436       __ehhandler$?insert@?$hashtable@PADU?$tident@X@@@@QAEPAUchain@1@ABQADI@Z 00449436 f    CIL library: CIL module
 0001:00048440       __unwindfunclet$?addcommand@@YA_NPADP6AXXZ0@Z$0 00449440 f    CIL library: CIL module
 0001:00048440       __unwindfunclet$?variable@@YAHPADHHHPAHP6AXXZ_N@Z$0 00449440 f    CIL library: CIL module
 0001:0004844a       __unwindfunclet$?variable@@YAHPADHHHPAHP6AXXZ_N@Z$1 0044944a f    CIL library: CIL module
 0001:0004844a       __unwindfunclet$?addcommand@@YA_NPADP6AXXZ0@Z$1 0044944a f    CIL library: CIL module
 0001:00048452       __ehhandler$?variable@@YAHPADHHHPAHP6AXXZ_N@Z 00449452 f    CIL library: CIL module
 0001:00048452       __ehhandler$?addcommand@@YA_NPADP6AXXZ0@Z 00449452 f    CIL library: CIL module
 0001:0004845c       __unwindfunclet$??_GSphereLeaf@@UAEPAXI@Z$0 0044945c f    CIL library: CIL module
 0001:0004845c       __unwindfunclet$??_GSphereBranch@@UAEPAXI@Z$0 0044945c f    CIL library: CIL module
 0001:00048464       __ehhandler$??_GSphereLeaf@@UAEPAXI@Z 00449464 f    CIL library: CIL module
 0001:00048464       __ehhandler$??_GSphereBranch@@UAEPAXI@Z 00449464 f    CIL library: CIL module
 0001:0004846e       __unwindfunclet$??0SphereBranch@@QAE@PAUSphereTree@@0@Z$0 0044946e f    CIL library: CIL module
 0001:0004846e       __unwindfunclet$??0SphereLeaf@@QAE@ABUtriangle@@@Z$0 0044946e f    CIL library: CIL module
 0001:00048476       __ehhandler$??0SphereLeaf@@QAE@ABUtriangle@@@Z 00449476 f    CIL library: CIL module
 0001:00048476       __ehhandler$??0SphereBranch@@QAE@PAUSphereTree@@0@Z 00449476 f    CIL library: CIL module
 0001:00048480       __unwindfunclet$??0md3part@md3@@QAE@XZ$0 00449480 f    CIL library: CIL module
 0001:00048488       __ehhandler$??0md3part@md3@@QAE@XZ 00449488 f    CIL library: CIL module
 0001:00048492       __unwindfunclet$??_Gmd2part@md2@@UAEPAXI@Z$0 00449492 f    CIL library: CIL module
 0001:00048492       __unwindfunclet$??_Gmd3part@md3@@UAEPAXI@Z$0 00449492 f    CIL library: CIL module
 0001:0004849a       __ehhandler$??_Gmd2part@md2@@UAEPAXI@Z 0044949a f    CIL library: CIL module
 0001:0004849a       __ehhandler$??_Gmd3part@md3@@UAEPAXI@Z 0044949a f    CIL library: CIL module
 0001:000484a4       __unwindfunclet$??_Gmd3@@UAEPAXI@Z$0 004494a4 f    CIL library: CIL module
 0001:000484a4       __unwindfunclet$??_Gmd2@@UAEPAXI@Z$0 004494a4 f    CIL library: CIL module
 0001:000484ad       __ehhandler$??_Gmd2@@UAEPAXI@Z 004494ad f    CIL library: CIL module
 0001:000484ad       __ehhandler$??_Gmd3@@UAEPAXI@Z 004494ad f    CIL library: CIL module
 0001:000484b7       __unwindfunclet$?gentcverts@md2part@md2@@QAEXPAHAAU?$vector@Utcvert@vertmodel@@@@AAU?$vector@Utri@vertmodel@@@@@Z$0 004494b7 f    CIL library: CIL module
 0001:000484bf       __unwindfunclet$?gentcverts@md2part@md2@@QAEXPAHAAU?$vector@Utcvert@vertmodel@@@@AAU?$vector@Utri@vertmodel@@@@@Z$1 004494bf f    CIL library: CIL module
 0001:000484c7       __ehhandler$?gentcverts@md2part@md2@@QAEXPAHAAU?$vector@Utcvert@vertmodel@@@@AAU?$vector@Utri@vertmodel@@@@@Z 004494c7 f    CIL library: CIL module
 0001:000484d1       __unwindfunclet$??0cmd_entloop@@QAE@XZ$0 004494d1 f    CIL library: CIL module
 0001:000484d1       __unwindfunclet$??0cmd_if@@QAE@XZ$0 004494d1 f    CIL library: CIL module
 0001:000484d1       __unwindfunclet$??_Gcmd_entselect@@UAEPAXI@Z$0 004494d1 f    CIL library: CIL module
 0001:000484d1       __unwindfunclet$??0cmd_loop@@QAE@XZ$0 004494d1 f    CIL library: CIL module
 0001:000484d1       __unwindfunclet$??0cmd_entselect@@QAE@XZ$0 004494d1 f    CIL library: CIL module
 0001:000484d1       __unwindfunclet$??_Gcmd_while@@UAEPAXI@Z$0 004494d1 f    CIL library: CIL module
 0001:000484d1       __unwindfunclet$??_Gcmd_enthavesel@@UAEPAXI@Z$0 004494d1 f    CIL library: CIL module
 0001:000484d1       __unwindfunclet$??0cmd_echo@@QAE@XZ$0 004494d1 f    CIL library: CIL module
 0001:000484d1       __unwindfunclet$??0cmd_enthavesel@@QAE@XZ$0 004494d1 f    CIL library: CIL module
 0001:000484d1       __unwindfunclet$??_Gcmd_insel@@UAEPAXI@Z$0 004494d1 f    CIL library: CIL module
 0001:000484d1       __unwindfunclet$??_Gcmd_if@@UAEPAXI@Z$0 004494d1 f    CIL library: CIL module
 0001:000484d1       __unwindfunclet$??0cmd_insel@@QAE@XZ$0 004494d1 f    CIL library: CIL module
 0001:000484d1       __unwindfunclet$??_Gcmd_attack@@UAEPAXI@Z$0 004494d1 f    CIL library: CIL module
 0001:000484d1       __unwindfunclet$??0cmd_entget@@QAE@XZ$0 004494d1 f    CIL library: CIL module
 0001:000484d1       __unwindfunclet$??0cmd_attack@@QAE@XZ$0 004494d1 f    CIL library: CIL module
 0001:000484d1       __unwindfunclet$??0cmd_while@@QAE@XZ$0 004494d1 f    CIL library: CIL module
 0001:000484d1       __unwindfunclet$??_Gcmd_jump@@UAEPAXI@Z$0 004494d1 f    CIL library: CIL module
 0001:000484d1       __unwindfunclet$??_Gcmd_havesel@@UAEPAXI@Z$0 004494d1 f    CIL library: CIL module
 0001:000484d1       __unwindfunclet$??0cmd_jump@@QAE@XZ$0 004494d1 f    CIL library: CIL module
 0001:000484d1       __unwindfunclet$??1chain@?$hashtable@PADU?$tident@X@@@@QAE@XZ$0 004494d1 f    CIL library: CIL module
 0001:000484d1       __unwindfunclet$??_Gcmd_right@@UAEPAXI@Z$0 004494d1 f    CIL library: CIL module
 0001:000484d1       __unwindfunclet$??_Gcmd_entget@@UAEPAXI@Z$0 004494d1 f    CIL library: CIL module
 0001:000484d1       __unwindfunclet$??0cmd_right@@QAE@XZ$0 004494d1 f    CIL library: CIL module
 0001:000484d1       __unwindfunclet$??_Gcmd_loop@@UAEPAXI@Z$0 004494d1 f    CIL library: CIL module
 0001:000484d1       __unwindfunclet$??_Gcmd_left@@UAEPAXI@Z$0 004494d1 f    CIL library: CIL module
 0001:000484d1       __unwindfunclet$??0chain@?$hashtable@PADU?$tident@X@@@@QAE@XZ$0 004494d1 f    CIL library: CIL module
 0001:000484d1       __unwindfunclet$??0cmd_left@@QAE@XZ$0 004494d1 f    CIL library: CIL module
 0001:000484d1       __unwindfunclet$??0cmd_havesel@@QAE@XZ$0 004494d1 f    CIL library: CIL module
 0001:000484d1       __unwindfunclet$??_Gcmd_forward@@UAEPAXI@Z$0 004494d1 f    CIL library: CIL module
 0001:000484d1       __unwindfunclet$??_Gcmd_echo@@UAEPAXI@Z$0 004494d1 f    CIL library: CIL module
 0001:000484d1       __unwindfunclet$??0cmd_forward@@QAE@XZ$0 004494d1 f    CIL library: CIL module
 0001:000484d1       __unwindfunclet$??_Gcmd_entloop@@UAEPAXI@Z$0 004494d1 f    CIL library: CIL module
 0001:000484d1       __unwindfunclet$??_Gcmd_backward@@UAEPAXI@Z$0 004494d1 f    CIL library: CIL module
 0001:000484d1       __unwindfunclet$??0cmd_backward@@QAE@XZ$0 004494d1 f    CIL library: CIL module
 0001:000484d9       __ehhandler$??_Gcmd_backward@@UAEPAXI@Z 004494d9 f    CIL library: CIL module
 0001:000484d9       __ehhandler$??0cmd_backward@@QAE@XZ 004494d9 f    CIL library: CIL module
 0001:000484d9       __ehhandler$??0chain@?$hashtable@PADU?$tident@X@@@@QAE@XZ 004494d9 f    CIL library: CIL module
 0001:000484d9       __ehhandler$??1chain@?$hashtable@PADU?$tident@X@@@@QAE@XZ 004494d9 f    CIL library: CIL module
 0001:000484d9       __ehhandler$??_Gcmd_havesel@@UAEPAXI@Z 004494d9 f    CIL library: CIL module
 0001:000484d9       __ehhandler$??_Gcmd_echo@@UAEPAXI@Z 004494d9 f    CIL library: CIL module
 0001:000484d9       __ehhandler$??_Gcmd_while@@UAEPAXI@Z 004494d9 f    CIL library: CIL module
 0001:000484d9       __ehhandler$??_Gcmd_loop@@UAEPAXI@Z 004494d9 f    CIL library: CIL module
 0001:000484d9       __ehhandler$??0cmd_forward@@QAE@XZ 004494d9 f    CIL library: CIL module
 0001:000484d9       __ehhandler$??_Gcmd_forward@@UAEPAXI@Z 004494d9 f    CIL library: CIL module
 0001:000484d9       __ehhandler$??0cmd_left@@QAE@XZ 004494d9 f    CIL library: CIL module
 0001:000484d9       __ehhandler$??0cmd_havesel@@QAE@XZ 004494d9 f    CIL library: CIL module
 0001:000484d9       __ehhandler$??_Gcmd_if@@UAEPAXI@Z 004494d9 f    CIL library: CIL module
 0001:000484d9       __ehhandler$??_Gcmd_entget@@UAEPAXI@Z 004494d9 f    CIL library: CIL module
 0001:000484d9       __ehhandler$??0cmd_entget@@QAE@XZ 004494d9 f    CIL library: CIL module
 0001:000484d9       __ehhandler$??_Gcmd_insel@@UAEPAXI@Z 004494d9 f    CIL library: CIL module
 0001:000484d9       __ehhandler$??0cmd_insel@@QAE@XZ 004494d9 f    CIL library: CIL module
 0001:000484d9       __ehhandler$??_Gcmd_entloop@@UAEPAXI@Z 004494d9 f    CIL library: CIL module
 0001:000484d9       __ehhandler$??_Gcmd_left@@UAEPAXI@Z 004494d9 f    CIL library: CIL module
 0001:000484d9       __ehhandler$??0cmd_if@@QAE@XZ 004494d9 f    CIL library: CIL module
 0001:000484d9       __ehhandler$??0cmd_entloop@@QAE@XZ 004494d9 f    CIL library: CIL module
 0001:000484d9       __ehhandler$??0cmd_loop@@QAE@XZ 004494d9 f    CIL library: CIL module
 0001:000484d9       __ehhandler$??_Gcmd_entselect@@UAEPAXI@Z 004494d9 f    CIL library: CIL module
 0001:000484d9       __ehhandler$??0cmd_while@@QAE@XZ 004494d9 f    CIL library: CIL module
 0001:000484d9       __ehhandler$??0cmd_entselect@@QAE@XZ 004494d9 f    CIL library: CIL module
 0001:000484d9       __ehhandler$??0cmd_right@@QAE@XZ 004494d9 f    CIL library: CIL module
 0001:000484d9       __ehhandler$??_Gcmd_right@@UAEPAXI@Z 004494d9 f    CIL library: CIL module
 0001:000484d9       __ehhandler$??0cmd_jump@@QAE@XZ 004494d9 f    CIL library: CIL module
 0001:000484d9       __ehhandler$??0cmd_echo@@QAE@XZ 004494d9 f    CIL library: CIL module
 0001:000484d9       __ehhandler$??_Gcmd_enthavesel@@UAEPAXI@Z 004494d9 f    CIL library: CIL module
 0001:000484d9       __ehhandler$??0cmd_enthavesel@@QAE@XZ 004494d9 f    CIL library: CIL module
 0001:000484d9       __ehhandler$??_Gcmd_attack@@UAEPAXI@Z 004494d9 f    CIL library: CIL module
 0001:000484d9       __ehhandler$??0cmd_attack@@QAE@XZ 004494d9 f    CIL library: CIL module
 0001:000484d9       __ehhandler$??_Gcmd_jump@@UAEPAXI@Z 004494d9 f    CIL library: CIL module
 0001:000484e3       __unwindfunclet$??0chain@?$hashtable@Usortkey@@Usortval@@@@QAE@XZ$1 004494e3 f    CIL library: CIL module
 0001:000484f9       __unwindfunclet$??0chain@?$hashtable@Usortkey@@Usortval@@@@QAE@XZ$0 004494f9 f    CIL library: CIL module
 0001:00048502       __ehhandler$??0chain@?$hashtable@Usortkey@@Usortval@@@@QAE@XZ 00449502 f    CIL library: CIL module
 0001:0004850c       __unwindfunclet$?insert@?$hashtable@Usortkey@@Usortval@@@@QAEPAUchain@1@ABUsortkey@@I@Z$0 0044950c f    CIL library: CIL module
 0001:00048516       __unwindfunclet$?insert@?$hashtable@Usortkey@@Usortval@@@@QAEPAUchain@1@ABUsortkey@@I@Z$1 00449516 f    CIL library: CIL module
 0001:00048528       __ehhandler$?insert@?$hashtable@Usortkey@@Usortval@@@@QAEPAUchain@1@ABUsortkey@@I@Z 00449528 f    CIL library: CIL module
 0001:00048532       __unwindfunclet$??0chain@?$hashtable@Ucfkey@@Ucfval@@@@QAE@XZ$1 00449532 f    CIL library: CIL module
 0001:0004853a       __unwindfunclet$??0chain@?$hashtable@Ucfkey@@Ucfval@@@@QAE@XZ$0 0044953a f    CIL library: CIL module
 0001:00048543       __ehhandler$??0chain@?$hashtable@Ucfkey@@Ucfval@@@@QAE@XZ 00449543 f    CIL library: CIL module
 0001:0004854d       __unwindfunclet$?insert@?$hashtable@Ucfkey@@Ucfval@@@@QAEPAUchain@1@ABUcfkey@@I@Z$0 0044954d f    CIL library: CIL module
 0001:00048557       __unwindfunclet$?insert@?$hashtable@Ucfkey@@Ucfval@@@@QAEPAUchain@1@ABUcfkey@@I@Z$1 00449557 f    CIL library: CIL module
 0001:00048569       __ehhandler$?insert@?$hashtable@Ucfkey@@Ucfval@@@@QAEPAUchain@1@ABUcfkey@@I@Z 00449569 f    CIL library: CIL module
 0001:00048573       __unwindfunclet$??0chain@?$hashtable@Unkey@@Unval@@@@QAE@XZ$1 00449573 f    CIL library: CIL module
 0001:0004857b       __unwindfunclet$??0chain@?$hashtable@Unkey@@Unval@@@@QAE@XZ$0 0044957b f    CIL library: CIL module
 0001:00048584       __ehhandler$??0chain@?$hashtable@Unkey@@Unval@@@@QAE@XZ 00449584 f    CIL library: CIL module
 0001:0004858e       __unwindfunclet$?insert@?$hashtable@Unkey@@Unval@@@@QAEPAUchain@1@ABUnkey@@I@Z$0 0044958e f    CIL library: CIL module
 0001:00048598       __unwindfunclet$?insert@?$hashtable@Unkey@@Unval@@@@QAEPAUchain@1@ABUnkey@@I@Z$1 00449598 f    CIL library: CIL module
 0001:000485aa       __ehhandler$?insert@?$hashtable@Unkey@@Unval@@@@QAEPAUchain@1@ABUnkey@@I@Z 004495aa f    CIL library: CIL module
 0001:000485b4       __unwindfunclet$?insert@PackNode@@QAE_NAAG0GG@Z$0 004495b4 f    CIL library: CIL module
 0001:000485be       __unwindfunclet$?insert@PackNode@@QAE_NAAG0GG@Z$1 004495be f    CIL library: CIL module
 0001:000485c8       __unwindfunclet$?insert@PackNode@@QAE_NAAG0GG@Z$2 004495c8 f    CIL library: CIL module
 0001:000485d2       __unwindfunclet$?insert@PackNode@@QAE_NAAG0GG@Z$3 004495d2 f    CIL library: CIL module
 0001:000485dc       __ehhandler$?insert@PackNode@@QAE_NAAG0GG@Z 004495dc f    CIL library: CIL module
 0001:000485e6       __unwindfunclet$??_Grpgclient@@UAEPAXI@Z$0 004495e6 f    CIL library: CIL module
 0001:000485ee       __unwindfunclet$??_Grpgclient@@UAEPAXI@Z$1 004495ee f    CIL library: CIL module
 0001:00048602       __unwindfunclet$??_Grpgclient@@UAEPAXI@Z$2 00449602 f    CIL library: CIL module
 0001:0004860f       __unwindfunclet$??_Grpgclient@@UAEPAXI@Z$3 0044960f f    CIL library: CIL module
 0001:0004861c       __unwindfunclet$??_Grpgclient@@UAEPAXI@Z$4 0044961c f    CIL library: CIL module
 0001:00048629       __ehhandler$??_Grpgclient@@UAEPAXI@Z 00449629 f    CIL library: CIL module
 0001:00048633       __unwindfunclet$??0rpgentities@rpgclient@@QAE@AAU1@@Z$0 00449633 f    CIL library: CIL module
 0001:0004863b       __unwindfunclet$??0rpgentities@rpgclient@@QAE@AAU1@@Z$1 0044963b f    CIL library: CIL module
 0001:00048646       __unwindfunclet$??0rpgentities@rpgclient@@QAE@AAU1@@Z$3 00449646 f    CIL library: CIL module
 0001:0004864e       __unwindfunclet$??0rpgentities@rpgclient@@QAE@AAU1@@Z$2 0044964e f    CIL library: CIL module
 0001:00048658       __unwindfunclet$??0rpgentities@rpgclient@@QAE@AAU1@@Z$4 00449658 f    CIL library: CIL module
 0001:00048660       __ehhandler$??0rpgentities@rpgclient@@QAE@AAU1@@Z 00449660 f    CIL library: CIL module
 0001:0004866a       __unwindfunclet$??0captureclient@fpsclient@@QAE@AAU1@@Z$2 0044966a f    CIL library: CIL module
 0001:00048672       __unwindfunclet$??0captureclient@fpsclient@@QAE@AAU1@@Z$3 00449672 f    CIL library: CIL module
 0001:0004867d       __unwindfunclet$??0captureclient@fpsclient@@QAE@AAU1@@Z$0 0044967d f    CIL library: CIL module
 0001:00048686       __unwindfunclet$??0captureclient@fpsclient@@QAE@AAU1@@Z$4 00449686 f    CIL library: CIL module
 0001:0004868e       __unwindfunclet$??0captureclient@fpsclient@@QAE@AAU1@@Z$1 0044968e f    CIL library: CIL module
 0001:00048698       __unwindfunclet$??0captureclient@fpsclient@@QAE@AAU1@@Z$5 00449698 f    CIL library: CIL module
 0001:000486a0       __ehhandler$??0captureclient@fpsclient@@QAE@AAU1@@Z 004496a0 f    CIL library: CIL module
 0001:000486aa       __unwindfunclet$??0clientcom@fpsclient@@QAE@AAU1@@Z$0 004496aa f    CIL library: CIL module
 0001:000486b2       __unwindfunclet$??0clientcom@fpsclient@@QAE@AAU1@@Z$1 004496b2 f    CIL library: CIL module
 0001:000486bd       __unwindfunclet$??0clientcom@fpsclient@@QAE@AAU1@@Z$13 004496bd f    CIL library: CIL module
 0001:000486c8       __unwindfunclet$??0clientcom@fpsclient@@QAE@AAU1@@Z$2 004496c8 f    CIL library: CIL module
 0001:000486d5       __unwindfunclet$??0clientcom@fpsclient@@QAE@AAU1@@Z$14 004496d5 f    CIL library: CIL module
 0001:000486e0       __unwindfunclet$??0clientcom@fpsclient@@QAE@AAU1@@Z$3 004496e0 f    CIL library: CIL module
 0001:000486ed       __unwindfunclet$??0clientcom@fpsclient@@QAE@AAU1@@Z$15 004496ed f    CIL library: CIL module
 0001:000486f8       __unwindfunclet$??0clientcom@fpsclient@@QAE@AAU1@@Z$4 004496f8 f    CIL library: CIL module
 0001:00048705       __unwindfunclet$??0clientcom@fpsclient@@QAE@AAU1@@Z$16 00449705 f    CIL library: CIL module
 0001:00048710       __unwindfunclet$??0clientcom@fpsclient@@QAE@AAU1@@Z$5 00449710 f    CIL library: CIL module
 0001:0004871d       __unwindfunclet$??0clientcom@fpsclient@@QAE@AAU1@@Z$17 0044971d f    CIL library: CIL module
 0001:00048725       __unwindfunclet$??0clientcom@fpsclient@@QAE@AAU1@@Z$6 00449725 f    CIL library: CIL module
 0001:0004872f       __unwindfunclet$??0clientcom@fpsclient@@QAE@AAU1@@Z$18 0044972f f    CIL library: CIL module
 0001:00048737       __unwindfunclet$??0clientcom@fpsclient@@QAE@AAU1@@Z$7 00449737 f    CIL library: CIL module
 0001:00048741       __unwindfunclet$??0clientcom@fpsclient@@QAE@AAU1@@Z$19 00449741 f    CIL library: CIL module
 0001:0004874c       __unwindfunclet$??0clientcom@fpsclient@@QAE@AAU1@@Z$8 0044974c f    CIL library: CIL module
 0001:00048759       __unwindfunclet$??0clientcom@fpsclient@@QAE@AAU1@@Z$20 00449759 f    CIL library: CIL module
 0001:00048764       __unwindfunclet$??0clientcom@fpsclient@@QAE@AAU1@@Z$9 00449764 f    CIL library: CIL module
 0001:00048771       __unwindfunclet$??0clientcom@fpsclient@@QAE@AAU1@@Z$21 00449771 f    CIL library: CIL module
 0001:00048779       __unwindfunclet$??0clientcom@fpsclient@@QAE@AAU1@@Z$10 00449779 f    CIL library: CIL module
 0001:00048783       __unwindfunclet$??0clientcom@fpsclient@@QAE@AAU1@@Z$22 00449783 f    CIL library: CIL module
 0001:0004878e       __unwindfunclet$??0clientcom@fpsclient@@QAE@AAU1@@Z$11 0044978e f    CIL library: CIL module
 0001:0004879b       __unwindfunclet$??0clientcom@fpsclient@@QAE@AAU1@@Z$23 0044979b f    CIL library: CIL module
 0001:000487a3       __unwindfunclet$??0clientcom@fpsclient@@QAE@AAU1@@Z$12 004497a3 f    CIL library: CIL module
 0001:000487ad       __unwindfunclet$??0clientcom@fpsclient@@QAE@AAU1@@Z$24 004497ad f    CIL library: CIL module
 0001:000487b5       __unwindfunclet$??0clientcom@fpsclient@@QAE@AAU1@@Z$25 004497b5 f    CIL library: CIL module
 0001:000487c0       __unwindfunclet$??0clientcom@fpsclient@@QAE@AAU1@@Z$26 004497c0 f    CIL library: CIL module
 0001:000487c8       __unwindfunclet$??0clientcom@fpsclient@@QAE@AAU1@@Z$27 004497c8 f    CIL library: CIL module
 0001:000487d3       __unwindfunclet$??0clientcom@fpsclient@@QAE@AAU1@@Z$28 004497d3 f    CIL library: CIL module
 0001:000487de       __unwindfunclet$??0clientcom@fpsclient@@QAE@AAU1@@Z$29 004497de f    CIL library: CIL module
 0001:000487e6       __unwindfunclet$??0clientcom@fpsclient@@QAE@AAU1@@Z$30 004497e6 f    CIL library: CIL module
 0001:000487ee       __unwindfunclet$??0clientcom@fpsclient@@QAE@AAU1@@Z$31 004497ee f    CIL library: CIL module
 0001:000487f9       __unwindfunclet$??0clientcom@fpsclient@@QAE@AAU1@@Z$32 004497f9 f    CIL library: CIL module
 0001:00048804       __unwindfunclet$??0clientcom@fpsclient@@QAE@AAU1@@Z$33 00449804 f    CIL library: CIL module
 0001:0004880f       __unwindfunclet$??0clientcom@fpsclient@@QAE@AAU1@@Z$34 0044980f f    CIL library: CIL module
 0001:0004881a       __ehhandler$??0clientcom@fpsclient@@QAE@AAU1@@Z 0044981a f    CIL library: CIL module
 0001:00048824       __unwindfunclet$??0scoreboard@fpsclient@@QAE@AAU1@@Z$0 00449824 f    CIL library: CIL module
 0001:0004882c       __unwindfunclet$??0scoreboard@fpsclient@@QAE@AAU1@@Z$2 0044982c f    CIL library: CIL module
 0001:00048834       __unwindfunclet$??0scoreboard@fpsclient@@QAE@AAU1@@Z$1 00449834 f    CIL library: CIL module
 0001:0004883e       __unwindfunclet$??0scoreboard@fpsclient@@QAE@AAU1@@Z$3 0044983e f    CIL library: CIL module
 0001:00048846       __ehhandler$??0scoreboard@fpsclient@@QAE@AAU1@@Z 00449846 f    CIL library: CIL module
 0001:00048850       __unwindfunclet$?autoteam@fpsserver@@QAEXXZ$0 00449850 f    CIL library: CIL module
 0001:00048863       __ehhandler$?autoteam@fpsserver@@QAEXXZ 00449863 f    CIL library: CIL module
 0001:0004886d       __unwindfunclet$??0filesval@@QAE@PBD0@Z$0 0044986d f    CIL library: CIL module
 0001:00048878       __ehhandler$??0filesval@@QAE@PBD0@Z 00449878 f    CIL library: CIL module
 0001:00048882       __unwindfunclet$??0vertmodel@@QAE@PBD@Z$0 00449882 f    CIL library: CIL module
 0001:00048882       __unwindfunclet$??1vertmodel@@UAE@XZ$0 00449882 f    CIL library: CIL module
 0001:0004888a       __unwindfunclet$??1vertmodel@@UAE@XZ$1 0044988a f    CIL library: CIL module
 0001:0004888a       __unwindfunclet$??0vertmodel@@QAE@PBD@Z$1 0044988a f    CIL library: CIL module
 0001:00048895       __ehhandler$??1vertmodel@@UAE@XZ 00449895 f    CIL library: CIL module
 0001:00048895       __ehhandler$??0vertmodel@@QAE@PBD@Z 00449895 f    CIL library: CIL module
 0001:0004889f       __unwindfunclet$??0weaponstate@fpsclient@@QAE@AAU1@@Z$0 0044989f f    CIL library: CIL module
 0001:000488ae       __unwindfunclet$??0weaponstate@fpsclient@@QAE@AAU1@@Z$1 004498ae f    CIL library: CIL module
 0001:000488bb       __unwindfunclet$??0weaponstate@fpsclient@@QAE@AAU1@@Z$3 004498bb f    CIL library: CIL module
 0001:000488c3       __unwindfunclet$??0weaponstate@fpsclient@@QAE@AAU1@@Z$2 004498c3 f    CIL library: CIL module
 0001:000488cd       __unwindfunclet$??0weaponstate@fpsclient@@QAE@AAU1@@Z$4 004498cd f    CIL library: CIL module
 0001:000488d5       __ehhandler$??0weaponstate@fpsclient@@QAE@AAU1@@Z 004498d5 f    CIL library: CIL module
 0001:000488df       __unwindfunclet$?format@@YAXPAPADPAH@Z$0 004498df f    CIL library: CIL module
 0001:000488e7       __ehhandler$?format@@YAXPAPADPAH@Z 004498e7 f    CIL library: CIL module
 0001:000488f1       __unwindfunclet$?aliasa@@YAXPAD0@Z$0 004498f1 f    CIL library: CIL module
 0001:000488f1       __unwindfunclet$?pusha@@YAXPAD0@Z$0 004498f1 f    CIL library: CIL module
 0001:000488f9       __ehhandler$?aliasa@@YAXPAD0@Z 004498f9 f    CIL library: CIL module
 0001:000488f9       __ehhandler$?pusha@@YAXPAD0@Z 004498f9 f    CIL library: CIL module
 0001:00048903       __unwindfunclet$?optimizematsurfs@@YAHPAUmaterialsurface@@H@Z$0 00449903 f    CIL library: CIL module
 0001:0004890b       __ehhandler$?optimizematsurfs@@YAHPAUmaterialsurface@@H@Z 0044990b f    CIL library: CIL module
 0001:00048915       __unwindfunclet$?buildspheretree@@YAPAUSphereTree@@HPBUtriangle@@@Z$0 00449915 f    CIL library: CIL module
 0001:0004891f       __unwindfunclet$?buildspheretree@@YAPAUSphereTree@@HPBUtriangle@@@Z$1 0044991f f    CIL library: CIL module
 0001:00048929       __ehhandler$?buildspheretree@@YAPAUSphereTree@@HPBUtriangle@@@Z 00449929 f    CIL library: CIL module
 0001:00048933       __unwindfunclet$?load@md3part@md3@@QAE_NPAD@Z$0 00449933 f    CIL library: CIL module
 0001:00048940       __unwindfunclet$?load@md3part@md3@@QAE_NPAD@Z$1 00449940 f    CIL library: CIL module
 0001:0004894d       __unwindfunclet$?load@md3part@md3@@QAE_NPAD@Z$2 0044994d f    CIL library: CIL module
 0001:0004895a       __ehhandler$?load@md3part@md3@@QAE_NPAD@Z 0044995a f    CIL library: CIL module
 0001:00048964       __unwindfunclet$?initundoent@@YAXAAUundoblock@@@Z$0 00449964 f    CIL library: CIL module
 0001:00048964       __unwindfunclet$?newclient@rpggame@@UAEPAUigameclient@@XZ$0 00449964 f    CIL library: CIL module
 0001:00048964       __unwindfunclet$?addcomplete@@YAXPAD00@Z$0 00449964 f    CIL library: CIL module
 0001:00048964       __unwindfunclet$?newbouncer@weaponstate@fpsclient@@QAEXABUvec@@0_NPAUfpsent@@HHH@Z$0 00449964 f    CIL library: CIL module
 0001:00048964       __unwindfunclet$?addident@@YAXPADPAU?$tident@X@@@Z$0 00449964 f    CIL library: CIL module
 0001:00048964       __unwindfunclet$?newentity@rpgentities@rpgclient@@UAEPAUextentity@@XZ$0 00449964 f    CIL library: CIL module
 0001:00048964       __unwindfunclet$?spawn@rpgobjset@rpgclient@@QAEXPAD@Z$0 00449964 f    CIL library: CIL module
 0001:00048964       __unwindfunclet$?newclient@fpsgame@@UAEPAUigameclient@@XZ$0 00449964 f    CIL library: CIL module
 0001:00048964       __unwindfunclet$?setanim@part@vertmodel@@QAEXHHHM@Z$0 00449964 f    CIL library: CIL module
 0001:00048964       __unwindfunclet$?insert@?$hashtable@Ucompresskey@@Ucompressval@@@@QAEPAUchain@1@ABUcompresskey@@I@Z$0 00449964 f    CIL library: CIL module
 0001:00048964       __unwindfunclet$?newinfo@fpsserver@@UAEPAXXZ$0 00449964 f    CIL library: CIL module
 0001:00048964       __unwindfunclet$?insert@?$hashtable@Uedge@tristrip@@G@@QAEPAUchain@1@ABUedge@tristrip@@I@Z$0 00449964 f    CIL library: CIL module
 0001:00048964       __unwindfunclet$?placeinworld@rpgobj@rpgclient@@QAEXAAUvec@@M@Z$0 00449964 f    CIL library: CIL module
 0001:00048964       __unwindfunclet$?newentity@entities@fpsclient@@UAEPAUextentity@@XZ$0 00449964 f    CIL library: CIL module
 0001:00048964       __unwindfunclet$?spawnmonster@monsterset@fpsclient@@QAEXXZ$0 00449964 f    CIL library: CIL module
 0001:00048964       __unwindfunclet$?newclient@fpsclient@@QAEPAUfpsent@@H@Z$0 00449964 f    CIL library: CIL module
 0001:00048964       __unwindfunclet$?insert@?$hashtable@Uivec@@H@@QAEPAUchain@1@ABUivec@@I@Z$0 00449964 f    CIL library: CIL module
 0001:00048964       __unwindfunclet$?md3load@@YAXPAD@Z$0 00449964 f    CIL library: CIL module
 0001:00048964       __unwindfunclet$?newparticle@@YAPAUparticle@@ABUvec@@0HH@Z$0 00449964 f    CIL library: CIL module
 0001:00048964       __unwindfunclet$?newserver@fpsgame@@UAEPAUigameserver@@XZ$0 00449964 f    CIL library: CIL module
 0001:00048964       __unwindfunclet$?insert@?$hashtable@Ufileskey@@PAUfilesval@@@@QAEPAUchain@1@ABUfileskey@@I@Z$0 00449964 f    CIL library: CIL module
 0001:00048964       __unwindfunclet$?registergame@@YAXPADPAUigame@@@Z$0 00449964 f    CIL library: CIL module
 0001:0004896e       __ehhandler$?newserver@fpsgame@@UAEPAUigameserver@@XZ 0044996e f    CIL library: CIL module
 0001:0004896e       __ehhandler$?newentity@entities@fpsclient@@UAEPAUextentity@@XZ 0044996e f    CIL library: CIL module
 0001:0004896e       __ehhandler$?newparticle@@YAPAUparticle@@ABUvec@@0HH@Z 0044996e f    CIL library: CIL module
 0001:0004896e       __ehhandler$?md3load@@YAXPAD@Z 0044996e f    CIL library: CIL module
 0001:0004896e       __ehhandler$?spawnmonster@monsterset@fpsclient@@QAEXXZ 0044996e f    CIL library: CIL module
 0001:0004896e       __ehhandler$?insert@?$hashtable@Uivec@@H@@QAEPAUchain@1@ABUivec@@I@Z 0044996e f    CIL library: CIL module
 0001:0004896e       __ehhandler$?spawn@rpgobjset@rpgclient@@QAEXPAD@Z 0044996e f    CIL library: CIL module
 0001:0004896e       __ehhandler$?placeinworld@rpgobj@rpgclient@@QAEXAAUvec@@M@Z 0044996e f    CIL library: CIL module
 0001:0004896e       __ehhandler$?initundoent@@YAXAAUundoblock@@@Z 0044996e f    CIL library: CIL module
 0001:0004896e       __ehhandler$?newentity@rpgentities@rpgclient@@UAEPAUextentity@@XZ 0044996e f    CIL library: CIL module
 0001:0004896e       __ehhandler$?insert@?$hashtable@Uedge@tristrip@@G@@QAEPAUchain@1@ABUedge@tristrip@@I@Z 0044996e f    CIL library: CIL module
 0001:0004896e       __ehhandler$?insert@?$hashtable@Ucompresskey@@Ucompressval@@@@QAEPAUchain@1@ABUcompresskey@@I@Z 0044996e f    CIL library: CIL module
 0001:0004896e       __ehhandler$?setanim@part@vertmodel@@QAEXHHHM@Z 0044996e f    CIL library: CIL module
 0001:0004896e       __ehhandler$?newbouncer@weaponstate@fpsclient@@QAEXABUvec@@0_NPAUfpsent@@HHH@Z 0044996e f    CIL library: CIL module
 0001:0004896e       __ehhandler$?newclient@fpsgame@@UAEPAUigameclient@@XZ 0044996e f    CIL library: CIL module
 0001:0004896e       __ehhandler$?newinfo@fpsserver@@UAEPAXXZ 0044996e f    CIL library: CIL module
 0001:0004896e       __ehhandler$?newclient@rpggame@@UAEPAUigameclient@@XZ 0044996e f    CIL library: CIL module
 0001:0004896e       __ehhandler$?addcomplete@@YAXPAD00@Z 0044996e f    CIL library: CIL module
 0001:0004896e       __ehhandler$?newclient@fpsclient@@QAEPAUfpsent@@H@Z 0044996e f    CIL library: CIL module
 0001:0004896e       __ehhandler$?addident@@YAXPADPAU?$tident@X@@@Z 0044996e f    CIL library: CIL module
 0001:0004896e       __ehhandler$?insert@?$hashtable@Ufileskey@@PAUfilesval@@@@QAEPAUchain@1@ABUfileskey@@I@Z 0044996e f    CIL library: CIL module
 0001:0004896e       __ehhandler$?registergame@@YAXPADPAUigame@@@Z 0044996e f    CIL library: CIL module
 0001:00048978       __unwindfunclet$??$legendre@$0N@@gfield@@SAHABU?$bigint@$0N@@@@Z$0 00449978 f    CIL library: CIL module
 0001:00048986       __ehhandler$??$legendre@$0N@@gfield@@SAHABU?$bigint@$0N@@@@Z 00449986 f    CIL library: CIL module
 0001:00048990       __unwindfunclet$?sqrt@gfield@@QAE_NABU1@@Z$0 00449990 f    CIL library: CIL module
 0001:0004899e       __ehhandler$?sqrt@gfield@@QAE_NABU1@@Z 0044999e f    CIL library: CIL module
 0001:000489a8       __unwindfunclet$?save_world@@YAXPAD_N@Z$0 004499a8 f    CIL library: CIL module
 0001:000489b3       __ehhandler$?save_world@@YAXPAD_N@Z 004499b3 f    CIL library: CIL module
 0001:000489bd       __unwindfunclet$?chooseworstteam@fpsserver@@QAEPBDPBD@Z$0 004499bd f    CIL library: CIL module
 0001:000489bd       __unwindfunclet$?checkvotes@fpsserver@@QAEX_N@Z$0 004499bd f    CIL library: CIL module
 0001:000489c5       __ehhandler$?chooseworstteam@fpsserver@@QAEPBDPBD@Z 004499c5 f    CIL library: CIL module
 0001:000489c5       __ehhandler$?checkvotes@fpsserver@@QAEX_N@Z 004499c5 f    CIL library: CIL module
 0001:000489cf       __unwindfunclet$?loadmodel@@YAPAUmodel@@PBDH@Z$0 004499cf f    CIL library: CIL module
 0001:000489d9       __unwindfunclet$?loadmodel@@YAPAUmodel@@PBDH@Z$2 004499d9 f    CIL library: CIL module
 0001:000489e2       __unwindfunclet$?loadmodel@@YAPAUmodel@@PBDH@Z$1 004499e2 f    CIL library: CIL module
 0001:000489ec       __unwindfunclet$?loadmodel@@YAPAUmodel@@PBDH@Z$3 004499ec f    CIL library: CIL module
 0001:000489f5       __ehhandler$?loadmodel@@YAPAUmodel@@PBDH@Z 004499f5 f    CIL library: CIL module
 0001:000489ff       __unwindfunclet$?findconnectivity@tristrip@@QAEXXZ$0 004499ff f    CIL library: CIL module
 0001:00048a07       __ehhandler$?findconnectivity@tristrip@@QAEXXZ 00449a07 f    CIL library: CIL module
 0001:00048a11       __unwindfunclet$?texcombine@@YAXAAUSlot@@HAAUTex@1@_N@Z$0 00449a11 f    CIL library: CIL module
 0001:00048a19       __ehhandler$?texcombine@@YAXAAUSlot@@HAAUTex@1@_N@Z 00449a19 f    CIL library: CIL module
 0001:00048a23       __unwindfunclet$?modifyoctaentity@@YAX_NHPAUcube@@ABUivec@@H22PAUvtxarray@@@Z$0 00449a23 f    CIL library: CIL module
 0001:00048a2d       __unwindfunclet$?modifyoctaentity@@YAX_NHPAUcube@@ABUivec@@H22PAUvtxarray@@@Z$1 00449a2d f    CIL library: CIL module
 0001:00048a37       __ehhandler$?modifyoctaentity@@YAX_NHPAUcube@@ABUivec@@H22PAUvtxarray@@@Z 00449a37 f    CIL library: CIL module
 0001:00048a41       __unwindfunclet$?genmergedfaces@@YAXAAUcube@@ABUivec@@HH@Z$0 00449a41 f    CIL library: CIL module
 0001:00048a4b       __ehhandler$?genmergedfaces@@YAXAAUcube@@ABUivec@@HH@Z 00449a4b f    CIL library: CIL module
 0001:00048a55       __unwindfunclet$?buildstrips@tristrip@@QAEXAAU?$vector@G@@_N1@Z$0 00449a55 f    CIL library: CIL module
 0001:00048a5d       __unwindfunclet$?buildstrips@tristrip@@QAEXAAU?$vector@G@@_N1@Z$1 00449a5d f    CIL library: CIL module
 0001:00048a65       __ehhandler$?buildstrips@tristrip@@QAEXAAU?$vector@G@@_N1@Z 00449a65 f    CIL library: CIL module
 0001:00048a6f       __unwindfunclet$?optimize@lodcollect@@QAEXXZ$0 00449a6f f    CIL library: CIL module
 0001:00048a6f       __unwindfunclet$?renderreflectedmapmodels@@YAXM_N@Z$0 00449a6f f    CIL library: CIL module
 0001:00048a77       __ehhandler$?renderreflectedmapmodels@@YAXM_N@Z 00449a77 f    CIL library: CIL module
 0001:00048a77       __ehhandler$?optimize@lodcollect@@QAEXXZ 00449a77 f    CIL library: CIL module
 0001:00048a81       __unwindfunclet$?rendermaterials@@YAXM_N@Z$0 00449a81 f    CIL library: CIL module
 0001:00048a81       __unwindfunclet$?setspheretree@vertmodel@@UAEPAUSphereTree@@XZ$0 00449a81 f    CIL library: CIL module
 0001:00048a89       __ehhandler$?rendermaterials@@YAXM_N@Z 00449a89 f    CIL library: CIL module
 0001:00048a89       __ehhandler$?setspheretree@vertmodel@@UAEPAUSphereTree@@XZ 00449a89 f    CIL library: CIL module
 0001:00048a93       __unwindfunclet$?genva@mesh@vertmodel@@QAEX_N@Z$1 00449a93 f    CIL library: CIL module
 0001:00048a9b       __unwindfunclet$?genva@mesh@vertmodel@@QAEX_N@Z$2 00449a9b f    CIL library: CIL module
 0001:00048aa3       __unwindfunclet$?genva@mesh@vertmodel@@QAEX_N@Z$5 00449aa3 f    CIL library: CIL module
 0001:00048aa8       __unwindfunclet$?genva@mesh@vertmodel@@QAEX_N@Z$6 00449aa8 f    CIL library: CIL module
 0001:00048ab3       __unwindfunclet$?genva@mesh@vertmodel@@QAEX_N@Z$7 00449ab3 f    CIL library: CIL module
 0001:00048ac9       __unwindfunclet$?genva@mesh@vertmodel@@QAEX_N@Z$8 00449ac9 f    CIL library: CIL module
 0001:00048ad1       __unwindfunclet$?genva@mesh@vertmodel@@QAEX_N@Z$3 00449ad1 f    CIL library: CIL module
 0001:00048ade       __unwindfunclet$?genva@mesh@vertmodel@@QAEX_N@Z$4 00449ade f    CIL library: CIL module
 0001:00048ae8       __unwindfunclet$?genva@mesh@vertmodel@@QAEX_N@Z$9 00449ae8 f    CIL library: CIL module
 0001:00048af3       __unwindfunclet$?genva@mesh@vertmodel@@QAEX_N@Z$10 00449af3 f    CIL library: CIL module
 0001:00048b09       __unwindfunclet$?genva@mesh@vertmodel@@QAEX_N@Z$11 00449b09 f    CIL library: CIL module
 0001:00048b11       __ehhandler$?genva@mesh@vertmodel@@QAEX_N@Z 00449b11 f    CIL library: CIL module
 0001:00048b1b       __unwindfunclet$?testcurve@@YAXPAD@Z$0 00449b1b f    CIL library: CIL module
 0001:00048b26       __unwindfunclet$?testcurve@@YAXPAD@Z$1 00449b26 f    CIL library: CIL module
 0001:00048b31       __ehhandler$?testcurve@@YAXPAD@Z 00449b31 f    CIL library: CIL module
 0001:00048b3b       __unwindfunclet$?load@md3@@UAE_NXZ$0 00449b3b f    CIL library: CIL module
 0001:00048b48       __ehhandler$?load@md3@@UAE_NXZ 00449b48 f    CIL library: CIL module
 0001:00048b52       __unwindfunclet$?newva@@YAPAUvtxarray@@HHHH@Z$0 00449b52 f    CIL library: CIL module
 0001:00048b5c       __unwindfunclet$?newva@@YAPAUvtxarray@@HHHH@Z$1 00449b5c f    CIL library: CIL module
 0001:00048b66       __ehhandler$?newva@@YAPAUvtxarray@@HHHH@Z 00449b66 f    CIL library: CIL module
 0001:00048b70       __unwindfunclet$??0rpgobjset@rpgclient@@QAE@AAU1@@Z$0 00449b70 f    CIL library: CIL module
 0001:00048b7b       __unwindfunclet$??0rpgobjset@rpgclient@@QAE@AAU1@@Z$1 00449b7b f    CIL library: CIL module
 0001:00048b86       __unwindfunclet$??0rpgobjset@rpgclient@@QAE@AAU1@@Z$2 00449b86 f    CIL library: CIL module
 0001:00048b91       __unwindfunclet$??0rpgobjset@rpgclient@@QAE@AAU1@@Z$16 00449b91 f    CIL library: CIL module
 0001:00048b9c       __unwindfunclet$??0rpgobjset@rpgclient@@QAE@AAU1@@Z$3 00449b9c f    CIL library: CIL module
 0001:00048ba9       __unwindfunclet$??0rpgobjset@rpgclient@@QAE@AAU1@@Z$17 00449ba9 f    CIL library: CIL module
 0001:00048bb4       __unwindfunclet$??0rpgobjset@rpgclient@@QAE@AAU1@@Z$4 00449bb4 f    CIL library: CIL module
 0001:00048bc1       __unwindfunclet$??0rpgobjset@rpgclient@@QAE@AAU1@@Z$18 00449bc1 f    CIL library: CIL module
 0001:00048bcc       __unwindfunclet$??0rpgobjset@rpgclient@@QAE@AAU1@@Z$5 00449bcc f    CIL library: CIL module
 0001:00048bd9       __unwindfunclet$??0rpgobjset@rpgclient@@QAE@AAU1@@Z$19 00449bd9 f    CIL library: CIL module
 0001:00048be4       __unwindfunclet$??0rpgobjset@rpgclient@@QAE@AAU1@@Z$6 00449be4 f    CIL library: CIL module
 0001:00048bf1       __unwindfunclet$??0rpgobjset@rpgclient@@QAE@AAU1@@Z$20 00449bf1 f    CIL library: CIL module
 0001:00048bf9       __unwindfunclet$??0rpgobjset@rpgclient@@QAE@AAU1@@Z$7 00449bf9 f    CIL library: CIL module
 0001:00048c03       __unwindfunclet$??0rpgobjset@rpgclient@@QAE@AAU1@@Z$21 00449c03 f    CIL library: CIL module
 0001:00048c0b       __unwindfunclet$??0rpgobjset@rpgclient@@QAE@AAU1@@Z$8 00449c0b f    CIL library: CIL module
 0001:00048c15       __unwindfunclet$??0rpgobjset@rpgclient@@QAE@AAU1@@Z$22 00449c15 f    CIL library: CIL module
 0001:00048c1d       __unwindfunclet$??0rpgobjset@rpgclient@@QAE@AAU1@@Z$9 00449c1d f    CIL library: CIL module
 0001:00048c27       __unwindfunclet$??0rpgobjset@rpgclient@@QAE@AAU1@@Z$23 00449c27 f    CIL library: CIL module
 0001:00048c32       __unwindfunclet$??0rpgobjset@rpgclient@@QAE@AAU1@@Z$10 00449c32 f    CIL library: CIL module
 0001:00048c3f       __unwindfunclet$??0rpgobjset@rpgclient@@QAE@AAU1@@Z$24 00449c3f f    CIL library: CIL module
 0001:00048c4a       __unwindfunclet$??0rpgobjset@rpgclient@@QAE@AAU1@@Z$11 00449c4a f    CIL library: CIL module
 0001:00048c57       __unwindfunclet$??0rpgobjset@rpgclient@@QAE@AAU1@@Z$25 00449c57 f    CIL library: CIL module
 0001:00048c62       __unwindfunclet$??0rpgobjset@rpgclient@@QAE@AAU1@@Z$12 00449c62 f    CIL library: CIL module
 0001:00048c6f       __unwindfunclet$??0rpgobjset@rpgclient@@QAE@AAU1@@Z$26 00449c6f f    CIL library: CIL module
 0001:00048c77       __unwindfunclet$??0rpgobjset@rpgclient@@QAE@AAU1@@Z$13 00449c77 f    CIL library: CIL module
 0001:00048c81       __unwindfunclet$??0rpgobjset@rpgclient@@QAE@AAU1@@Z$27 00449c81 f    CIL library: CIL module
 0001:00048c8c       __unwindfunclet$??0rpgobjset@rpgclient@@QAE@AAU1@@Z$14 00449c8c f    CIL library: CIL module
 0001:00048c99       __unwindfunclet$??0rpgobjset@rpgclient@@QAE@AAU1@@Z$15 00449c99 f    CIL library: CIL module
 0001:00048ca3       __unwindfunclet$??0rpgobjset@rpgclient@@QAE@AAU1@@Z$28 00449ca3 f    CIL library: CIL module
 0001:00048cae       __unwindfunclet$??0rpgobjset@rpgclient@@QAE@AAU1@@Z$29 00449cae f    CIL library: CIL module
 0001:00048cb6       __unwindfunclet$??0rpgobjset@rpgclient@@QAE@AAU1@@Z$30 00449cb6 f    CIL library: CIL module
 0001:00048cc1       __unwindfunclet$??0rpgobjset@rpgclient@@QAE@AAU1@@Z$31 00449cc1 f    CIL library: CIL module
 0001:00048ccc       __unwindfunclet$??0rpgobjset@rpgclient@@QAE@AAU1@@Z$32 00449ccc f    CIL library: CIL module
 0001:00048cd7       __unwindfunclet$??0rpgobjset@rpgclient@@QAE@AAU1@@Z$33 00449cd7 f    CIL library: CIL module
 0001:00048cdf       __unwindfunclet$??0rpgobjset@rpgclient@@QAE@AAU1@@Z$34 00449cdf f    CIL library: CIL module
 0001:00048ce7       __unwindfunclet$??0rpgobjset@rpgclient@@QAE@AAU1@@Z$35 00449ce7 f    CIL library: CIL module
 0001:00048cef       __unwindfunclet$??0rpgobjset@rpgclient@@QAE@AAU1@@Z$36 00449cef f    CIL library: CIL module
 0001:00048cfa       __unwindfunclet$??0rpgobjset@rpgclient@@QAE@AAU1@@Z$37 00449cfa f    CIL library: CIL module
 0001:00048d05       __unwindfunclet$??0rpgobjset@rpgclient@@QAE@AAU1@@Z$38 00449d05 f    CIL library: CIL module
 0001:00048d10       __unwindfunclet$??0rpgobjset@rpgclient@@QAE@AAU1@@Z$39 00449d10 f    CIL library: CIL module
 0001:00048d1b       __ehhandler$??0rpgobjset@rpgclient@@QAE@AAU1@@Z 00449d1b f    CIL library: CIL module
 0001:00048d25       __unwindfunclet$??0rpgclient@@QAE@XZ$0 00449d25 f    CIL library: CIL module
 0001:00048d2d       __unwindfunclet$??0rpgclient@@QAE@XZ$1 00449d2d f    CIL library: CIL module
 0001:00048d38       __unwindfunclet$??0rpgclient@@QAE@XZ$2 00449d38 f    CIL library: CIL module
 0001:00048d45       __unwindfunclet$??0rpgclient@@QAE@XZ$7 00449d45 f    CIL library: CIL module
 0001:00048d4d       __unwindfunclet$??0rpgclient@@QAE@XZ$3 00449d4d f    CIL library: CIL module
 0001:00048d5a       __unwindfunclet$??0rpgclient@@QAE@XZ$4 00449d5a f    CIL library: CIL module
 0001:00048d67       __unwindfunclet$??0rpgclient@@QAE@XZ$8 00449d67 f    CIL library: CIL module
 0001:00048d6f       __unwindfunclet$??0rpgclient@@QAE@XZ$5 00449d6f f    CIL library: CIL module
 0001:00048d79       __unwindfunclet$??0rpgclient@@QAE@XZ$9 00449d79 f    CIL library: CIL module
 0001:00048d81       __unwindfunclet$??0rpgclient@@QAE@XZ$6 00449d81 f    CIL library: CIL module
 0001:00048d8b       __unwindfunclet$??0rpgclient@@QAE@XZ$10 00449d8b f    CIL library: CIL module
 0001:00048d93       __unwindfunclet$??0rpgclient@@QAE@XZ$11 00449d93 f    CIL library: CIL module
 0001:00048d9b       __ehhandler$??0rpgclient@@QAE@XZ 00449d9b f    CIL library: CIL module
 0001:00048da5       __unwindfunclet$??1fpsclient@@UAE@XZ$0 00449da5 f    CIL library: CIL module
 0001:00048dad       __unwindfunclet$??1fpsclient@@UAE@XZ$1 00449dad f    CIL library: CIL module
 0001:00048dba       __unwindfunclet$??1fpsclient@@UAE@XZ$2 00449dba f    CIL library: CIL module
 0001:00048dc7       __unwindfunclet$??1fpsclient@@UAE@XZ$3 00449dc7 f    CIL library: CIL module
 0001:00048dd6       __unwindfunclet$??1fpsclient@@UAE@XZ$4 00449dd6 f    CIL library: CIL module
 0001:00048de5       __unwindfunclet$??1fpsclient@@UAE@XZ$5 00449de5 f    CIL library: CIL module
 0001:00048df4       __unwindfunclet$??1fpsclient@@UAE@XZ$6 00449df4 f    CIL library: CIL module
 0001:00048e03       __unwindfunclet$??1fpsclient@@UAE@XZ$7 00449e03 f    CIL library: CIL module
 0001:00048e12       __unwindfunclet$??1fpsclient@@UAE@XZ$8 00449e12 f    CIL library: CIL module
 0001:00048e21       __unwindfunclet$??1fpsclient@@UAE@XZ$9 00449e21 f    CIL library: CIL module
 0001:00048e30       __ehhandler$??1fpsclient@@UAE@XZ 00449e30 f    CIL library: CIL module
 0001:00048e3a       __unwindfunclet$??0fpsclient@@QAE@XZ$0 00449e3a f    CIL library: CIL module
 0001:00048e42       __unwindfunclet$??0fpsclient@@QAE@XZ$1 00449e42 f    CIL library: CIL module
 0001:00048e4c       __unwindfunclet$??0fpsclient@@QAE@XZ$2 00449e4c f    CIL library: CIL module
 0001:00048e59       __unwindfunclet$??0fpsclient@@QAE@XZ$3 00449e59 f    CIL library: CIL module
 0001:00048e66       __unwindfunclet$??0fpsclient@@QAE@XZ$4 00449e66 f    CIL library: CIL module
 0001:00048e75       __unwindfunclet$??0fpsclient@@QAE@XZ$13 00449e75 f    CIL library: CIL module
 0001:00048e80       __unwindfunclet$??0fpsclient@@QAE@XZ$14 00449e80 f    CIL library: CIL module
 0001:00048e8d       __unwindfunclet$??0fpsclient@@QAE@XZ$5 00449e8d f    CIL library: CIL module
 0001:00048e9c       __unwindfunclet$??0fpsclient@@QAE@XZ$6 00449e9c f    CIL library: CIL module
 0001:00048eab       __unwindfunclet$??0fpsclient@@QAE@XZ$15 00449eab f    CIL library: CIL module
 0001:00048eb3       __unwindfunclet$??0fpsclient@@QAE@XZ$16 00449eb3 f    CIL library: CIL module
 0001:00048ebe       __unwindfunclet$??0fpsclient@@QAE@XZ$7 00449ebe f    CIL library: CIL module
 0001:00048ecd       __unwindfunclet$??0fpsclient@@QAE@XZ$8 00449ecd f    CIL library: CIL module
 0001:00048edc       __unwindfunclet$??0fpsclient@@QAE@XZ$9 00449edc f    CIL library: CIL module
 0001:00048eeb       __unwindfunclet$??0fpsclient@@QAE@XZ$17 00449eeb f    CIL library: CIL module
 0001:00048ef3       __unwindfunclet$??0fpsclient@@QAE@XZ$10 00449ef3 f    CIL library: CIL module
 0001:00048f02       __unwindfunclet$??0fpsclient@@QAE@XZ$18 00449f02 f    CIL library: CIL module
 0001:00048f0a       __unwindfunclet$??0fpsclient@@QAE@XZ$11 00449f0a f    CIL library: CIL module
 0001:00048f14       __unwindfunclet$??0fpsclient@@QAE@XZ$19 00449f14 f    CIL library: CIL module
 0001:00048f1c       __unwindfunclet$??0fpsclient@@QAE@XZ$12 00449f1c f    CIL library: CIL module
 0001:00048f26       __unwindfunclet$??0fpsclient@@QAE@XZ$20 00449f26 f    CIL library: CIL module
 0001:00048f2e       __unwindfunclet$??0fpsclient@@QAE@XZ$21 00449f2e f    CIL library: CIL module
 0001:00048f36       __ehhandler$??0fpsclient@@QAE@XZ 00449f36 f    CIL library: CIL module
 0001:00048f40       __unwindfunclet$?load@md2part@md2@@QAE_NPAD@Z$0 00449f40 f    CIL library: CIL module
 0001:00048f4a       __unwindfunclet$?load@md2part@md2@@QAE_NPAD@Z$1 00449f4a f    CIL library: CIL module
 0001:00048f52       __unwindfunclet$?load@md2part@md2@@QAE_NPAD@Z$2 00449f52 f    CIL library: CIL module
 0001:00048f5a       __unwindfunclet$?load@md2part@md2@@QAE_NPAD@Z$3 00449f5a f    CIL library: CIL module
 0001:00048f64       __ehhandler$?load@md2part@md2@@QAE_NPAD@Z 00449f64 f    CIL library: CIL module
 0001:00048f6e       __unwindfunclet$?load@md2@@UAE_NXZ$0 00449f6e f    CIL library: CIL module
 0001:00048f7b       __unwindfunclet$?load@md2@@UAE_NXZ$1 00449f7b f    CIL library: CIL module
 0001:00048f86       __ehhandler$?load@md2@@UAE_NXZ 00449f86 f    CIL library: CIL module
 0001:00048f90       __unwindfunclet$?entdrag@@YAXABUvec@@HAAUivec@@_N@Z$0 00449f90 f    CIL library: CIL module
 0001:00048f9e       __unwindfunclet$?entdrag@@YAXABUvec@@HAAUivec@@_N@Z$1 00449f9e f    CIL library: CIL module
 0001:00048fac       __ehhandler$?entdrag@@YAXABUvec@@HAAUivec@@_N@Z 00449fac f    CIL library: CIL module
 0001:00048fb6       __unwindfunclet$?genmergeinfo@@YAXPAUcube@@ABUivec@@H@Z$0 00449fb6 f    CIL library: CIL module
 0001:00048fc8       __ehhandler$?genmergeinfo@@YAXPAUcube@@ABUivec@@H@Z 00449fc8 f    CIL library: CIL module
 0001:00048fd2       __unwindfunclet$?setva@@YAXAAUcube@@HHHHH@Z$0 00449fd2 f    CIL library: CIL module
 0001:00048fdc       __ehhandler$?setva@@YAXAAUcube@@HHHHH@Z 00449fdc f    CIL library: CIL module
 0001:00048fe6       __unwindfunclet$?cursorupdate@@YAXXZ$0 00449fe6 f    CIL library: CIL module
 0001:00048ff4       __unwindfunclet$?cursorupdate@@YAXXZ$1 00449ff4 f    CIL library: CIL module
 0001:00049002       __ehhandler$?cursorupdate@@YAXXZ 0044a002 f    CIL library: CIL module
 0001:0004900c       __unwindfunclet$?generate_lightmap@@YA_NMIIABUvec@@PBUlerpvert@@H00@Z$0 0044a00c f    CIL library: CIL module
 0001:0004901a       __ehhandler$?generate_lightmap@@YA_NMIIABUvec@@PBUlerpvert@@H00@Z 0044a01a f    CIL library: CIL module
 0001:00049024       __unwindfunclet$?drawcubemap@@YAXHABUvec@@MM@Z$0 0044a024 f    CIL library: CIL module
 0001:00049032       __ehhandler$?drawcubemap@@YAXHABUvec@@MM@Z 0044a032 f    CIL library: CIL module
 0001:0004903c       __unwindfunclet$??0monster@monsterset@fpsclient@@QAE@HHHHHPAU12@@Z$0 0044a03c f    CIL library: CIL module
 0001:00049044       __ehhandler$??0monster@monsterset@fpsclient@@QAE@HHHHHPAU12@@Z 0044a044 f    CIL library: CIL module
 0001:0004904e       __unwindfunclet$?monsterclear@monsterset@fpsclient@@QAEXH@Z$1 0044a04e f    CIL library: CIL module
 0001:00049056       __unwindfunclet$?monsterclear@monsterset@fpsclient@@QAEXH@Z$0 0044a056 f    CIL library: CIL module
 0001:00049060       __ehhandler$?monsterclear@monsterset@fpsclient@@QAEXH@Z 0044a060 f    CIL library: CIL module
 0001:0004906a       __unwindfunclet$?setupmaterials@@YAX_N@Z$0 0044a06a f    CIL library: CIL module
 0001:00049072       __unwindfunclet$?setupmaterials@@YAX_N@Z$1 0044a072 f    CIL library: CIL module
 0001:0004907a       __unwindfunclet$?setupmaterials@@YAX_N@Z$2 0044a07a f    CIL library: CIL module
 0001:00049085       __unwindfunclet$?setupmaterials@@YAX_N@Z$4 0044a085 f    CIL library: CIL module
 0001:0004908d       __unwindfunclet$?setupmaterials@@YAX_N@Z$3 0044a08d f    CIL library: CIL module
 0001:00049097       __unwindfunclet$?setupmaterials@@YAX_N@Z$5 0044a097 f    CIL library: CIL module
 0001:0004909f       __ehhandler$?setupmaterials@@YAX_N@Z 0044a09f f    CIL library: CIL module
 0001:000490a9       __unwindfunclet$?recomputecamera@@YAXXZ$0 0044a0a9 f    CIL library: CIL module
 0001:000490b7       __ehhandler$?recomputecamera@@YAXXZ 0044a0b7 f    CIL library: CIL module
 0001:000490c1       __unwindfunclet$?load_world@@YAXPBD0@Z$0 0044a0c1 f    CIL library: CIL module
 0001:000490cc       __ehhandler$?load_world@@YAXPBD0@Z 0044a0cc f    CIL library: CIL module
 0001:000490d6       __unwindfunclet$?mpcopy@@YAXAAPAUeditinfo@@AAUselinfo@@_N@Z$0 0044a0d6 f    CIL library: CIL module
 0001:000490e0       __ehhandler$?mpcopy@@YAXAAPAUeditinfo@@AAUselinfo@@_N@Z 0044a0e0 f    CIL library: CIL module
 0001:000490ea       __unwindfunclet$??__Fmmcb@@YAXXZ$0 0044a0ea f    CIL library: CIL module
 0001:000490ea       __unwindfunclet$??__Emmcb@@YAXXZ$0 0044a0ea f    CIL library: CIL module
 0001:000490f4       __ehhandler$??__Emmcb@@YAXXZ 0044a0f4 f    CIL library: CIL module
 0001:000490f4       __ehhandler$??__Fmmcb@@YAXXZ 0044a0f4 f    CIL library: CIL module
 0001:000490fe       __unwindfunclet$??__Ficom_havesel@@YAXXZ$0 0044a0fe f    CIL library: CIL module
 0001:00049108       __ehhandler$??__Ficom_havesel@@YAXXZ 0044a108 f    CIL library: CIL module
 0001:00049112       __unwindfunclet$??__Ereg_rpggame@@YAXXZ$0 0044a112 f    CIL library: CIL module
 0001:00049112       __unwindfunclet$??__Freg_rpggame@@YAXXZ$0 0044a112 f    CIL library: CIL module
 0001:0004911c       __ehhandler$??__Freg_rpggame@@YAXXZ 0044a11c f    CIL library: CIL module
 0001:0004911c       __ehhandler$??__Ereg_rpggame@@YAXXZ 0044a11c f    CIL library: CIL module
 0001:00049126       __unwindfunclet$??__Ereg_fpsgame@@YAXXZ$0 0044a126 f    CIL library: CIL module
 0001:00049126       __unwindfunclet$??__Freg_fpsgame@@YAXXZ$0 0044a126 f    CIL library: CIL module
 0001:00049130       __ehhandler$??__Ereg_fpsgame@@YAXXZ 0044a130 f    CIL library: CIL module
 0001:00049130       __ehhandler$??__Freg_fpsgame@@YAXXZ 0044a130 f    CIL library: CIL module
 0001:0004913a       __unwindfunclet$??__Ficom_echo@@YAXXZ$0 0044a13a f    CIL library: CIL module
 0001:00049144       __ehhandler$??__Ficom_echo@@YAXXZ 0044a144 f    CIL library: CIL module
 0001:0004914e       __unwindfunclet$??__Ficom_while@@YAXXZ$0 0044a14e f    CIL library: CIL module
 0001:00049158       __ehhandler$??__Ficom_while@@YAXXZ 0044a158 f    CIL library: CIL module
 0001:00049162       __unwindfunclet$??__Ficom_loop@@YAXXZ$0 0044a162 f    CIL library: CIL module
 0001:0004916c       __ehhandler$??__Ficom_loop@@YAXXZ 0044a16c f    CIL library: CIL module
 0001:00049176       __unwindfunclet$??__Ficom_if@@YAXXZ$0 0044a176 f    CIL library: CIL module
 0001:00049180       __ehhandler$??__Ficom_if@@YAXXZ 0044a180 f    CIL library: CIL module
 0001:0004918a       __unwindfunclet$??__Ficom_entget@@YAXXZ$0 0044a18a f    CIL library: CIL module
 0001:00049194       __ehhandler$??__Ficom_entget@@YAXXZ 0044a194 f    CIL library: CIL module
 0001:0004919e       __unwindfunclet$??__Ficom_insel@@YAXXZ$0 0044a19e f    CIL library: CIL module
 0001:000491a8       __ehhandler$??__Ficom_insel@@YAXXZ 0044a1a8 f    CIL library: CIL module
 0001:000491b2       __unwindfunclet$??__Ficom_entloop@@YAXXZ$0 0044a1b2 f    CIL library: CIL module
 0001:000491bc       __ehhandler$??__Ficom_entloop@@YAXXZ 0044a1bc f    CIL library: CIL module
 0001:000491c6       __unwindfunclet$??__Ficom_entselect@@YAXXZ$0 0044a1c6 f    CIL library: CIL module
 0001:000491d0       __ehhandler$??__Ficom_entselect@@YAXXZ 0044a1d0 f    CIL library: CIL module
 0001:000491da       __unwindfunclet$??__Ficom_enthavesel@@YAXXZ$0 0044a1da f    CIL library: CIL module
 0001:000491e4       __ehhandler$??__Ficom_enthavesel@@YAXXZ 0044a1e4 f    CIL library: CIL module
 0001:000491ee       __unwindfunclet$??__Ficom_attack@@YAXXZ$0 0044a1ee f    CIL library: CIL module
 0001:000491f8       __ehhandler$??__Ficom_attack@@YAXXZ 0044a1f8 f    CIL library: CIL module
 0001:00049202       __unwindfunclet$??__Ficom_jump@@YAXXZ$0 0044a202 f    CIL library: CIL module
 0001:0004920c       __ehhandler$??__Ficom_jump@@YAXXZ 0044a20c f    CIL library: CIL module
 0001:00049216       __unwindfunclet$??__Ficom_right@@YAXXZ$0 0044a216 f    CIL library: CIL module
 0001:00049220       __ehhandler$??__Ficom_right@@YAXXZ 0044a220 f    CIL library: CIL module
 0001:0004922a       __unwindfunclet$??__Ficom_left@@YAXXZ$0 0044a22a f    CIL library: CIL module
 0001:00049234       __ehhandler$??__Ficom_left@@YAXXZ 0044a234 f    CIL library: CIL module
 0001:0004923e       __unwindfunclet$??__Ficom_forward@@YAXXZ$0 0044a23e f    CIL library: CIL module
 0001:00049248       __ehhandler$??__Ficom_forward@@YAXXZ 0044a248 f    CIL library: CIL module
 0001:00049252       __unwindfunclet$??__Ficom_backward@@YAXXZ$0 0044a252 f    CIL library: CIL module
 0001:0004925c       __ehhandler$??__Ficom_backward@@YAXXZ 0044a25c f    CIL library: CIL module
 0001:00049266       __unwindfunclet$??__Fvh@@YAXXZ$0 0044a266 f    CIL library: CIL module
 0001:00049266       __unwindfunclet$??__Evh@@YAXXZ$0 0044a266 f    CIL library: CIL module
 0001:00049270       __ehhandler$??__Fvh@@YAXXZ 0044a270 f    CIL library: CIL module
 0001:00049270       __ehhandler$??__Evh@@YAXXZ 0044a270 f    CIL library: CIL module
 0001:0004927a       ??__Eimportcuberemip@@YAXXZ 0044a27a f    CIL library: CIL module
 0001:000492a1       ??__E__dummy_importcube@@YAXXZ 0044a2a1 f    CIL library: CIL module
 0001:000492be       ??__Elightmaps@@YAXXZ      0044a2be f    CIL library: CIL module
 0001:000492e2       ??__Elightprecision@@YAXXZ 0044a2e2 f    CIL library: CIL module
 0001:0004930a       ??__Elighterror@@YAXXZ     0044a30a f    CIL library: CIL module
 0001:0004932f       ??__Ebumperror@@YAXXZ      0044a32f f    CIL library: CIL module
 0001:00049354       ??__Elightlod@@YAXXZ       0044a354 f    CIL library: CIL module
 0001:00049378       ??__Eworldlod@@YAXXZ       0044a378 f    CIL library: CIL module
 0001:0004939c       ??__Eambient@@YAXXZ        0044a39c f    CIL library: CIL module
 0001:000493c1       ??__Elights1@@YAXXZ        0044a3c1 f    CIL library: CIL module
 0001:000493e2       ??__Elights2@@YAXXZ        0044a3e2 f    CIL library: CIL module
 0001:00049403       ??__Ecompressed@@YAXXZ     0044a403 f    CIL library: CIL module
 0001:00049444       ??__Elightcompress@@YAXXZ  0044a444 f    CIL library: CIL module
 0001:00049465       ??__Eedgetolerance@@YAXXZ  0044a465 f    CIL library: CIL module
 0001:00049487       ??__Eadaptivesample@@YAXXZ 0044a487 f    CIL library: CIL module
 0001:000494a8       ??__Elightcache@@YAXXZ     0044a4a8 f    CIL library: CIL module
 0001:000494cf       ??__Elightcachesize@@YAXXZ 0044a4cf f    CIL library: CIL module
 0001:000494f4       ??__E__dummy_calclight@@YAXXZ 0044a4f4 f    CIL library: CIL module
 0001:00049511       ??__E__dummy_patchlight@@YAXXZ 0044a511 f    CIL library: CIL module
 0001:0004952e       ??__Efullbright@@YAXXZ     0044a52e f    CIL library: CIL module
 0001:00049552       ??__Elmtexids@@YAXXZ       0044a552 f    CIL library: CIL module
 0001:00049573       ??__Econvertlms@@YAXXZ     0044a573 f    CIL library: CIL module
 0001:00049598       ??__E__dummy_dumplms@@YAXXZ 0044a598 f    CIL library: CIL module
 0001:000495b5       ??__Enormals@@YAXXZ        0044a5b5 f    CIL library: CIL module
 0001:000495f6       ??__Elerpangle@@YAXXZ      0044a5f6 f    CIL library: CIL module
 0001:0004961e       ??__Elerpsubdiv@@YAXXZ     0044a61e f    CIL library: CIL module
 0001:0004963f       ??__Elerpsubdivsize@@YAXXZ 0044a63f f    CIL library: CIL module
 0001:00049664       ??__Eworldroot@@YAXXZ      0044a664 f    CIL library: CIL module
 0001:00049676       ??__E__dummy_printcube@@YAXXZ 0044a676 f    CIL library: CIL module
 0001:00049693       ??__Emipvis@@YAXXZ         0044a693 f    CIL library: CIL module
 0001:000496b3       ??__E__dummy_remip_@@YAXXZ 0044a6b3 f    CIL library: CIL module
 0001:000496d0       ??__Ecfaces@@YAXXZ         0044a6d0 f    CIL library: CIL module
 0001:00049711       ??__Eminface@@YAXXZ        0044a711 f    CIL library: CIL module
 0001:00049732       ??__Emaxmerge@@YAXXZ       0044a732 f    CIL library: CIL module
 0001:00049753       ??__Edragging@@YAXXZ       0044a753 f    CIL library: CIL module
 0001:00049777       ??__Eselectcorners@@YAXXZ  0044a777 f    CIL library: CIL module
 0001:00049797       ??__Emoving@@YAXXZ         0044a797 f    CIL library: CIL module
 0001:000497bb       ??__Egridpower@@YAXXZ      0044a7bb f    CIL library: CIL module
 0001:000497e0       ??__Epassthroughcube@@YAXXZ 0044a7e0 f    CIL library: CIL module
 0001:00049800       ??__Epassthroughsel@@YAXXZ 0044a800 f    CIL library: CIL module
 0001:00049820       ??__Eediting@@YAXXZ        0044a820 f    CIL library: CIL module
 0001:00049840       ??__E__dummy_toggleedit@@YAXXZ 0044a840 f    CIL library: CIL module
 0001:0004985d       ??__E__dummy_entcancel@@YAXXZ 0044a85d f    CIL library: CIL module
 0001:0004987a       ??__E__dummy_cubecancel@@YAXXZ 0044a87a f    CIL library: CIL module
 0001:00049897       ??__E__dummy_cancelsel@@YAXXZ 0044a897 f    CIL library: CIL module
 0001:000498b4       ??__E__dummy_reorient@@YAXXZ 0044a8b4 f    CIL library: CIL module
 0001:000498d1       ??__E__dummy_selextend@@YAXXZ 0044a8d1 f    CIL library: CIL module
 0001:000498ee       ??__Eicom_havesel@@YAXXZ   0044a8ee f    CIL library: CIL module
 0001:000498ff       ??__Eundos@@YAXXZ          0044a8ff f    CIL library: CIL module
 0001:00049923       ??__Eredos@@YAXXZ          0044a923 f    CIL library: CIL module
 0001:00049947       ??__Eundomegs@@YAXXZ       0044a947 f    CIL library: CIL module
 0001:00049969       ??__E__dummy_copy@@YAXXZ   0044a969 f    CIL library: CIL module
 0001:00049986       ??__E__dummy_paste@@YAXXZ  0044a986 f    CIL library: CIL module
 0001:000499a3       ??__E__dummy_editundo@@YAXXZ 0044a9a3 f    CIL library: CIL module
 0001:000499c0       ??__E__dummy_editredo@@YAXXZ 0044a9c0 f    CIL library: CIL module
 0001:000499dd       ??__E__dummy_getheightmap@@YAXXZ 0044a9dd f    CIL library: CIL module
 0001:000499fa       ??__Ebrushx@@YAXXZ         0044a9fa f    CIL library: CIL module
 0001:00049a1b       ??__Ebrushy@@YAXXZ         0044aa1b f    CIL library: CIL module
 0001:00049a3c       ??__E__dummy_clearbrush@@YAXXZ 0044aa3c f    CIL library: CIL module
 0001:00049a59       ??__E__dummy_brushvert@@YAXXZ 0044aa59 f    CIL library: CIL module
 0001:00049a76       ??__E__dummy_copybrush@@YAXXZ 0044aa76 f    CIL library: CIL module
 0001:00049a93       ??__E__dummy_savebrush@@YAXXZ 0044aa93 f    CIL library: CIL module
 0001:00049ab0       ??__Einvalidcubeguard@@YAXXZ 0044aab0 f    CIL library: CIL module
 0001:00049ad1       ??__E__dummy_pushsel@@YAXXZ 0044aad1 f    CIL library: CIL module
 0001:00049aee       ??__E__dummy_editface@@YAXXZ 0044aaee f    CIL library: CIL module
 0001:00049b0b       ??__E__dummy_delcube@@YAXXZ 0044ab0b f    CIL library: CIL module
 0001:00049b28       ??__Eallfaces@@YAXXZ       0044ab28 f    CIL library: CIL module
 0001:00049b48       ??__E__dummy_edittex@@YAXXZ 0044ab48 f    CIL library: CIL module
 0001:00049b65       ??__E__dummy_gettex@@YAXXZ 0044ab65 f    CIL library: CIL module
 0001:00049b82       ??__E__dummy_replace@@YAXXZ 0044ab82 f    CIL library: CIL module
 0001:00049b9f       ??__E__dummy_flip@@YAXXZ   0044ab9f f    CIL library: CIL module
 0001:00049bbc       ??__E__dummy_rotate@@YAXXZ 0044abbc f    CIL library: CIL module
 0001:00049bd9       ??__E__dummy_editmat@@YAXXZ 0044abd9 f    CIL library: CIL module
 0001:00049bf6       ??__Everts@@YAXXZ          0044abf6 f    CIL library: CIL module
 0001:00049c17       ??__Eshowcstats@@YAXXZ     0044ac17 f    CIL library: CIL module
 0001:00049c37       ??__Efloatvtx@@YAXXZ       0044ac37 f    CIL library: CIL module
 0001:00049c5b       ??__Evbos@@YAXXZ           0044ac5b f    CIL library: CIL module
 0001:00049c9c       ??__Eprintvbo@@YAXXZ       0044ac9c f    CIL library: CIL module
 0001:00049cbc       ??__Evbosize@@YAXXZ        0044acbc f    CIL library: CIL module
 0001:00049ce3       ??__Evbodata@@YAXXZ        0044ace3 f    CIL library: CIL module
 0001:00049d07       ??__Evbovas@@YAXXZ         0044ad07 f    CIL library: CIL module
 0001:00049d2b       ??__Evh@@YAXXZ             0044ad2b f    CIL library: CIL module
 0001:00049d7f       ??__El0@@YAXXZ             0044ad7f f    CIL library: CIL module
 0001:00049d95       ??__El1@@YAXXZ             0044ad95 f    CIL library: CIL module
 0001:00049dab       ??__Elodsize@@YAXXZ        0044adab f    CIL library: CIL module
 0001:00049dd3       ??__Eloddistance@@YAXXZ    0044add3 f    CIL library: CIL module
 0001:00049dfa       ??__Eskyfaces@@YAXXZ       0044adfa f    CIL library: CIL module
 0001:00049e1e       ??__Evalist@@YAXXZ         0044ae1e f    CIL library: CIL module
 0001:00049e3f       ??__Evaroot@@YAXXZ         0044ae3f f    CIL library: CIL module
 0001:00049e60       ??__Evamms@@YAXXZ          0044ae60 f    CIL library: CIL module
 0001:00049e81       ??__Evacubemax@@YAXXZ      0044ae81 f    CIL library: CIL module
 0001:00049eac       ??__Evacubesize@@YAXXZ     0044aeac f    CIL library: CIL module
 0001:00049ed7       ??__Evacubemin@@YAXXZ      0044aed7 f    CIL library: CIL module
 0001:00049f02       ??__E__dummy_recalc@@YAXXZ 0044af02 f    CIL library: CIL module
 0001:00049f1f       ??__Eoqfrags@@YAXXZ        0044af1f f    CIL library: CIL module
 0001:00049f40       ??__Eoqreflect@@YAXXZ      0044af40 f    CIL library: CIL module
 0001:00049f61       ??__Eoqmm@@YAXXZ           0044af61 f    CIL library: CIL module
 0001:00049f82       ??__Erenderedmms@@YAXXZ    0044af82 f    CIL library: CIL module
 0001:00049fa3       ??__Eoutline@@YAXXZ        0044afa3 f    CIL library: CIL module
 0001:00049fc6       ??__Eoqdist@@YAXXZ         0044afc6 f    CIL library: CIL module
 0001:00049fed       ??__Ezpass@@YAXXZ          0044afed f    CIL library: CIL module
 0001:0004a00e       ??__E__dummy_writeobj@@YAXXZ 0044b00e f    CIL library: CIL module
 0001:0004a02b       ??__Eclipcache@@YAXXZ      0044b02b f    CIL library: CIL module
 0001:0004a053       ??__Edynentcache@@YAXXZ    0044b053 f    CIL library: CIL module
 0001:0004a07a       ??__Edynentsize@@YAXXZ     0044b07a f    CIL library: CIL module
 0001:0004a09f       ??__E__dummy_phystest@@YAXXZ 0044b09f f    CIL library: CIL module
 0001:0004a0bc       ??__Emaxroll@@YAXXZ        0044b0bc f    CIL library: CIL module
 0001:0004a0de       ??__Eminframetime@@YAXXZ   0044b0de f    CIL library: CIL module
 0001:0004a100       ??__Eicom_backward@@YAXXZ  0044b100 f    CIL library: CIL module
 0001:0004a111       ??__Eicom_forward@@YAXXZ   0044b111 f    CIL library: CIL module
 0001:0004a122       ??__Eicom_left@@YAXXZ      0044b122 f    CIL library: CIL module
 0001:0004a133       ??__Eicom_right@@YAXXZ     0044b133 f    CIL library: CIL module
 0001:0004a144       ??__Eicom_jump@@YAXXZ      0044b144 f    CIL library: CIL module
 0001:0004a155       ??__Eicom_attack@@YAXXZ    0044b155 f    CIL library: CIL module
 0001:0004a166       ??__Esensitivity@@YAXXZ    0044b166 f    CIL library: CIL module
 0001:0004a18b       ??__Esensitivityscale@@YAXXZ 0044b18b f    CIL library: CIL module
 0001:0004a1ad       ??__Einvmouse@@YAXXZ       0044b1ad f    CIL library: CIL module
 0001:0004a1ce       ??__Etexmru@@YAXXZ         0044b1ce f    CIL library: CIL module
 0001:0004a1ef       ??__Eoctaentsize@@YAXXZ    0044b1ef f    CIL library: CIL module
 0001:0004a216       ??__Eentselradius@@YAXXZ   0044b216 f    CIL library: CIL module
 0001:0004a237       ??__Eentgroup@@YAXXZ       0044b237 f    CIL library: CIL module
 0001:0004a258       ??__Eentselsnap@@YAXXZ     0044b258 f    CIL library: CIL module
 0001:0004a278       ??__Eentmoving@@YAXXZ      0044b278 f    CIL library: CIL module
 0001:0004a29c       ??__E__dummy_entflip@@YAXXZ 0044b29c f    CIL library: CIL module
 0001:0004a2b9       ??__E__dummy_entrotate@@YAXXZ 0044b2b9 f    CIL library: CIL module
 0001:0004a2d6       ??__E__dummy_entpush@@YAXXZ 0044b2d6 f    CIL library: CIL module
 0001:0004a2f3       ??__Eentdrop@@YAXXZ        0044b2f3 f    CIL library: CIL module
 0001:0004a314       ??__Eentcopybuf@@YAXXZ     0044b314 f    CIL library: CIL module
 0001:0004a338       ??__E__dummy_newent@@YAXXZ 0044b338 f    CIL library: CIL module
 0001:0004a355       ??__E__dummy_delent@@YAXXZ 0044b355 f    CIL library: CIL module
 0001:0004a372       ??__E__dummy_dropent@@YAXXZ 0044b372 f    CIL library: CIL module
 0001:0004a38f       ??__E__dummy_entcopy@@YAXXZ 0044b38f f    CIL library: CIL module
 0001:0004a3ac       ??__E__dummy_entpaste@@YAXXZ 0044b3ac f    CIL library: CIL module
 0001:0004a3c9       ??__Eicom_enthavesel@@YAXXZ 0044b3c9 f    CIL library: CIL module
 0001:0004a3da       ??__Eicom_entselect@@YAXXZ 0044b3da f    CIL library: CIL module
 0001:0004a3eb       ??__Eicom_entloop@@YAXXZ   0044b3eb f    CIL library: CIL module
 0001:0004a3fc       ??__Eicom_insel@@YAXXZ     0044b3fc f    CIL library: CIL module
 0001:0004a40d       ??__Eicom_entget@@YAXXZ    0044b40d f    CIL library: CIL module
 0001:0004a41e       ??__E__dummy_entset@@YAXXZ 0044b41e f    CIL library: CIL module
 0001:0004a43b       ??__E__dummy_newmap@@YAXXZ 0044b43b f    CIL library: CIL module
 0001:0004a458       ??__E__dummy_mapenlarge@@YAXXZ 0044b458 f    CIL library: CIL module
 0001:0004a475       ??__E__dummy_trigger@@YAXXZ 0044b475 f    CIL library: CIL module
 0001:0004a492       ??__Etriggerstate@@YAXXZ   0044b492 f    CIL library: CIL module
 0001:0004a4b3       ??__Esavebak@@YAXXZ        0044b4b3 f    CIL library: CIL module
 0001:0004a4d5       ??__E__dummy_savemap@@YAXXZ 0044b4d5 f    CIL library: CIL module
 0001:0004a4f2       ??__E__dummy_savecurrentmap@@YAXXZ 0044b4f2 f    CIL library: CIL module
 0001:0004a50f       ??__Erate@@YAXXZ           0044b50f f    CIL library: CIL module
 0001:0004a536       ??__Ethrottle_interval@@YAXXZ 0044b536 f    CIL library: CIL module
 0001:0004a55b       ??__Ethrottle_accel@@YAXXZ 0044b55b f    CIL library: CIL module
 0001:0004a580       ??__Ethrottle_decel@@YAXXZ 0044b580 f    CIL library: CIL module
 0001:0004a5a5       ??__E__dummy_connects@@YAXXZ 0044b5a5 f    CIL library: CIL module
 0001:0004a5c2       ??__E__dummy_lanconnect@@YAXXZ 0044b5c2 f    CIL library: CIL module
 0001:0004a5df       ??__E__dummy_trydisconnect@@YAXXZ 0044b5df f    CIL library: CIL module
 0001:0004a5fc       ??__E?origin@ecjacobian@@2U1@B@@YAXXZ 0044b5fc f    CIL library: CIL module
 0001:0004a644       ??__E?P@gfield@@2U1@B@@YAXXZ 0044b644 f    CIL library: CIL module
 0001:0004a656       ??__E?B@ecjacobian@@2Ugfield@@B@@YAXXZ 0044b656 f    CIL library: CIL module
 0001:0004a668       ??__E?base@ecjacobian@@2U1@B@@YAXXZ 0044b668 f    CIL library: CIL module
 0001:0004a6cc       ??__E__dummy_testgf@@YAXXZ 0044b6cc f    CIL library: CIL module
 0001:0004a6e9       ??__E__dummy_testcurve@@YAXXZ 0044b6e9 f    CIL library: CIL module
 0001:0004a706       ??__Eclients@@YAXXZ        0044b706 f    CIL library: CIL module
 0001:0004a727       ??__Eresolverthreads@@YAXXZ 0044b727 f    CIL library: CIL module
 0001:0004a748       ??__Eresolverqueries@@YAXXZ 0044b748 f    CIL library: CIL module
 0001:0004a769       ??__Eresolverresults@@YAXXZ 0044b769 f    CIL library: CIL module
 0001:0004a78a       ??__Eservers@@YAXXZ        0044b78a f    CIL library: CIL module
 0001:0004a7ae       ??__E__dummy_addserver@@YAXXZ 0044b7ae f    CIL library: CIL module
 0001:0004a7cb       ??__E__dummy_updatefrommaster@@YAXXZ 0044b7cb f    CIL library: CIL module
 0001:0004a7e8       ??__Eguiautotab@@YAXXZ     0044b7e8 f    CIL library: CIL module
 0001:0004a813       ??__E?lists@gui@@2U?$vector@Ulist@gui@@@@A@@YAXXZ 0044b813 f    CIL library: CIL module
 0001:0004a834       ??__Eguis@@YAXXZ           0044b834 f    CIL library: CIL module
 0001:0004a858       ??__E__dummy_flipnormalmapy@@YAXXZ 0044b858 f    CIL library: CIL module
 0001:0004a875       ??__E__dummy_mergenormalmaps@@YAXXZ 0044b875 f    CIL library: CIL module
 0001:0004a892       ??__Espheres@@YAXXZ        0044b892 f    CIL library: CIL module
 0001:0004a8b6       ??__Edamagespherefactor@@YAXXZ 0044b8b6 f    CIL library: CIL module
 0001:0004a8db       ??__Ecrosshairsize@@YAXXZ  0044b8db f    CIL library: CIL module
 0001:0004a8fd       ??__Ecursorsize@@YAXXZ     0044b8fd f    CIL library: CIL module
 0001:0004a91f       ??__Edamageblendfactor@@YAXXZ 0044b91f f    CIL library: CIL module
 0001:0004a947       ??__Ehidestats@@YAXXZ      0044b947 f    CIL library: CIL module
 0001:0004a968       ??__Ehidehud@@YAXXZ        0044b968 f    CIL library: CIL module
 0001:0004a989       ??__Ecrosshairfx@@YAXXZ    0044b989 f    CIL library: CIL module
 0001:0004a9ab       ??__Eshaders@@YAXXZ        0044b9ab f    CIL library: CIL module
 0001:0004a9ec       ??__Ecurparams@@YAXXZ      0044b9ec f    CIL library: CIL module
 0001:0004aa10       ??__Eshaderdetail@@YAXXZ   0044ba10 f    CIL library: CIL module
